
i2c.elf:     file format elf32-littleriscv
i2c.elf
architecture: riscv:rv32, flags 0x00000112:
EXEC_P, HAS_SYMS, D_PAGED
start address 0x80000000

Program Header:
    LOAD off    0x00001000 vaddr 0x80000000 paddr 0x80000000 align 2**12
         filesz 0x00009754 memsz 0x00009754 flags rwx
    LOAD off    0x0000b000 vaddr 0x90000000 paddr 0x80009754 align 2**12
         filesz 0x00000234 memsz 0x00000234 flags rw-
    LOAD off    0x00000234 vaddr 0x90000234 paddr 0x90000234 align 2**12
         filesz 0x00000000 memsz 0x00000138 flags rw-
    LOAD off    0x00000800 vaddr 0x9000f800 paddr 0x9000036c align 2**12
         filesz 0x00000000 memsz 0x00000800 flags rw-

Sections:
Idx Name              Size      VMA       LMA       File off  Algn  Flags
  0 .init             000000ba  80000000  80000000  00001000  2**0  CONTENTS, ALLOC, LOAD, READONLY, CODE
  1 .ilalign          00000002  800000ba  800000ba  000010ba  2**0  ALLOC
  2 .text             000087de  800000bc  800000bc  000010bc  2**2  CONTENTS, ALLOC, LOAD, READONLY, CODE
  3 .rodata           00000eb4  800088a0  800088a0  000098a0  2**3  CONTENTS, ALLOC, LOAD, READONLY, DATA
  4 .lalign           00000000  80009754  80009754  0000b234  2**0  CONTENTS
  5 .dalign           00000000  90000000  90000000  0000b234  2**0  CONTENTS
  6 .data             00000234  90000000  80009754  0000b000  2**3  CONTENTS, ALLOC, LOAD, DATA
  7 .bss              00000138  90000234  90000234  0000b234  2**2  ALLOC
  8 .stack            00000800  9000f800  9000036c  0000b800  2**0  ALLOC
  9 .debug_info       0000d288  00000000  00000000  0000b234  2**0  CONTENTS, READONLY, DEBUGGING, OCTETS
 10 .debug_abbrev     00002747  00000000  00000000  000184bc  2**0  CONTENTS, READONLY, DEBUGGING, OCTETS
 11 .debug_loc        00007658  00000000  00000000  0001ac03  2**0  CONTENTS, READONLY, DEBUGGING, OCTETS
 12 .debug_aranges    00000620  00000000  00000000  00022260  2**3  CONTENTS, READONLY, DEBUGGING, OCTETS
 13 .debug_ranges     00001d00  00000000  00000000  00022880  2**0  CONTENTS, READONLY, DEBUGGING, OCTETS
 14 .debug_line       0001205e  00000000  00000000  00024580  2**0  CONTENTS, READONLY, DEBUGGING, OCTETS
 15 .debug_str        00001fb0  00000000  00000000  000365de  2**0  CONTENTS, READONLY, DEBUGGING, OCTETS
 16 .comment          00000012  00000000  00000000  0003858e  2**0  CONTENTS, READONLY
 17 .riscv.attributes 0000002f  00000000  00000000  000385a0  2**0  CONTENTS, READONLY
 18 .debug_frame      00000bb8  00000000  00000000  000385d0  2**2  CONTENTS, READONLY, DEBUGGING, OCTETS
SYMBOL TABLE:
80000000 l    d  .init	00000000 .init
800000ba l    d  .ilalign	00000000 .ilalign
800000bc l    d  .text	00000000 .text
800088a0 l    d  .rodata	00000000 .rodata
80009754 l    d  .lalign	00000000 .lalign
90000000 l    d  .dalign	00000000 .dalign
90000000 l    d  .data	00000000 .data
90000234 l    d  .bss	00000000 .bss
9000f800 l    d  .stack	00000000 .stack
00000000 l    d  .debug_info	00000000 .debug_info
00000000 l    d  .debug_abbrev	00000000 .debug_abbrev
00000000 l    d  .debug_loc	00000000 .debug_loc
00000000 l    d  .debug_aranges	00000000 .debug_aranges
00000000 l    d  .debug_ranges	00000000 .debug_ranges
00000000 l    d  .debug_line	00000000 .debug_line
00000000 l    d  .debug_str	00000000 .debug_str
00000000 l    d  .comment	00000000 .comment
00000000 l    d  .riscv.attributes	00000000 .riscv.attributes
00000000 l    d  .debug_frame	00000000 .debug_frame
00000000 l    df *ABS*	00000000 main.c
00000000 l    df *ABS*	00000000 close.c
00000000 l    df *ABS*	00000000 exit.c
00000000 l    df *ABS*	00000000 fstat.c
00000000 l    df *ABS*	00000000 getpid.c
00000000 l    df *ABS*	00000000 isatty.c
00000000 l    df *ABS*	00000000 kill.c
00000000 l    df *ABS*	00000000 lseek.c
00000000 l    df *ABS*	00000000 read.c
00000000 l    df *ABS*	00000000 sbrk.c
900001d0 l     O .data	00000004 curbrk.0
00000000 l    df *ABS*	00000000 write.c
00000000 l    df *ABS*	00000000 hbirdv2_gpio.c
00000000 l    df *ABS*	00000000 hbirdv2_i2c.c
00000000 l    df *ABS*	00000000 hbirdv2_uart.c
00000000 l    df *ABS*	00000000 hbirdv2_common.c
00000000 l    df *ABS*	00000000 system_hbirdv2.c
800008e0 l     F .text	00000044 system_default_exception_handler
80000928 l     F .text	00000048 system_default_interrupt_handler
90000248 l     O .bss	00000028 SystemCoreInterruptHandlers
90000270 l     O .bss	0000002c SystemExceptionHandlers
9000029c l     O .bss	00000044 SystemExtInterruptHandlers
00000000 l    df *ABS*	00000000 oled.c
00000000 l    df *ABS*	00000000 libgcc2.c
00000000 l    df *ABS*	00000000 atexit.c
00000000 l    df *ABS*	00000000 fini.c
00000000 l    df *ABS*	00000000 init.c
00000000 l    df *ABS*	00000000 nano-vfprintf_float.c
00000000 l    df *ABS*	00000000 nano-vfprintf_i.c
00000000 l    df *ABS*	00000000 printf.c
00000000 l    df *ABS*	00000000 puts.c
00000000 l    df *ABS*	00000000 strlen.c
00000000 l    df *ABS*	00000000 sysisatty.c
00000000 l    df *ABS*	00000000 wbuf.c
00000000 l    df *ABS*	00000000 wsetup.c
00000000 l    df *ABS*	00000000 __atexit.c
900002e0 l     O .bss	0000008c _global_atexit0
00000000 l    df *ABS*	00000000 dtoa.c
800048d2 l     F .text	0000012c quorem
00000000 l    df *ABS*	00000000 fflush.c
00000000 l    df *ABS*	00000000 findfp.c
80005800 l     F .text	00000068 std
00000000 l    df *ABS*	00000000 fwalk.c
00000000 l    df *ABS*	00000000 localeconv.c
00000000 l    df *ABS*	00000000 makebuf.c
00000000 l    df *ABS*	00000000 malloc.c
00000000 l    df *ABS*	00000000 memchr.c
00000000 l    df *ABS*	00000000 memcpy.c
00000000 l    df *ABS*	00000000 mprec.c
80009568 l     O .rodata	0000000c p05.0
00000000 l    df *ABS*	00000000 nano-mallocr.c
00000000 l    df *ABS*	00000000 nano-mallocr.c
00000000 l    df *ABS*	00000000 nano-mallocr.c
00000000 l    df *ABS*	00000000 nano-vfprintf.c
8000671a l     F .text	0000002a __sfputc_r
00000000 l    df *ABS*	00000000 sbrkr.c
00000000 l    df *ABS*	00000000 stdio.c
00000000 l    df *ABS*	00000000 writer.c
00000000 l    df *ABS*	00000000 assert.c
00000000 l    df *ABS*	00000000 closer.c
00000000 l    df *ABS*	00000000 fprintf.c
00000000 l    df *ABS*	00000000 fstatr.c
00000000 l    df *ABS*	00000000 isattyr.c
00000000 l    df *ABS*	00000000 lseekr.c
00000000 l    df *ABS*	00000000 mbtowc_r.c
00000000 l    df *ABS*	00000000 mlock.c
00000000 l    df *ABS*	00000000 readr.c
00000000 l    df *ABS*	00000000 wctomb_r.c
00000000 l    df *ABS*	00000000 abort.c
00000000 l    df *ABS*	00000000 signal.c
00000000 l    df *ABS*	00000000 signalr.c
00000000 l    df *ABS*	00000000 adddf3.c
00000000 l    df *ABS*	00000000 divdf3.c
00000000 l    df *ABS*	00000000 eqdf2.c
00000000 l    df *ABS*	00000000 gedf2.c
00000000 l    df *ABS*	00000000 ledf2.c
00000000 l    df *ABS*	00000000 muldf3.c
00000000 l    df *ABS*	00000000 subdf3.c
00000000 l    df *ABS*	00000000 unorddf2.c
00000000 l    df *ABS*	00000000 fixdfsi.c
00000000 l    df *ABS*	00000000 floatsidf.c
00000000 l    df *ABS*	00000000 floatunsidf.c
00000000 l    df *ABS*	00000000 trunctfdf2.c
00000000 l    df *ABS*	00000000 libgcc2.c
00000000 l    df *ABS*	00000000 libgcc2.c
00000000 l    df *ABS*	00000000 locale.c
00000000 l    df *ABS*	00000000 ctype_.c
00000000 l    df *ABS*	00000000 impure.c
90000000 l     O .data	00000060 impure_data
00000000 l    df *ABS*	00000000 
80009754 l       .rodata	00000000 __fini_array_end
80009754 l       .rodata	00000000 __fini_array_start
80009754 l       .rodata	00000000 __init_array_end
80009754 l       .rodata	00000000 __preinit_array_end
80009754 l       .rodata	00000000 __init_array_start
80009754 l       .rodata	00000000 __preinit_array_start
80003b66 g     F .text	000000ec __cvt
80006bec g     F .text	00000028 _isatty_r
8000015c  w    F .text	00000004 _getpid
80004586 g     F .text	000000de _puts_r
80006c14 g     F .text	0000002c _lseek_r
800078c0 g     F .text	0000006a .hidden __eqdf2
80006d48 g     F .text	0000002a _kill_r
80004546 g     F .text	00000040 printf
900009d0 g       .data	00000000 __global_pointer$
80006ace g     F .text	00000036 __sseek
800058b8 g     F .text	0000006c __sinit
80004688 g     F .text	000000c6 __swbuf_r
80005872 g     F .text	00000046 __sfmoreglue
80006c7c g     F .text	00000002 __malloc_unlock
80005cde g     F .text	000000ae _Balloc
8000792a g     F .text	000000a6 .hidden __gtdf2
80006bc2 g     F .text	0000002a _fstat_r
90000238 g     O .bss	00000004 errno
00000800 g       *ABS*	00000000 __stack_size
80000590 g     F .text	00000064 uart_write
80009754 g       .rodata	00000000 __rt_init_start
80009754 g       .rodata	00000000 __fsymtab_end
800000bc g       .ilalign	00000000 _ilm_lma
80005b5a g     F .text	000000dc memcpy
80001678 g     F .text	000020ec OLED_Init
80005868 g     F .text	0000000a _cleanup_r
8000856e g     F .text	00000066 .hidden __floatsidf
800079d0 g     F .text	000000a6 .hidden __ltdf2
80004664 g     F .text	0000000e puts
80009754 g       .rodata	00000000 __rt_init_end
900001d4 g     O .data	00000004 SystemCoreClock
80005b32 g     F .text	0000000e malloc
80004684 g     F .text	00000004 isatty
80006cd8 g     F .text	00000062 _raise_r
8000013c  w    F .text	0000001e _fstat
80006b36 g     F .text	0000003a __assert_func
8000065c g     F .text	00000280 get_cpu_freq
800094a0 g     O .rodata	000000c8 __mprec_tens
80006d72 g     F .text	00000004 _getpid_r
80005a2a g     F .text	0000000a _localeconv_r
80005f5e g     F .text	00000038 __i2b
80006a28 g     F .text	00000028 _sbrk_r
80006c7e g     F .text	0000002c _read_r
80009754 g       .rodata	00000000 _eilm
80006d76 g     F .text	0000060a .hidden __adddf3
9000f800 g       .stack	00000000 _heap_end
80000164  w    F .text	00000004 _isatty
90000230 g     O .data	00000004 _global_impure_ptr
80003b08 g     F .text	0000005e __libc_init_array
80003766 g     F .text	00000360 .hidden __udivdi3
80009478 g     O .rodata	00000028 __mprec_bigtens
80006cca g     F .text	0000000e abort
800085d4 g     F .text	0000004e .hidden __floatunsidf
800001a8  w    F .text	0000002e _sbrk
800062f4 g     F .text	00000036 __mcmp
90000234 g     O .bss	00000002 gTxPacket
80000d6c g     F .text	00000002 _init
80003ad2 g     F .text	00000036 __libc_fini_array
80005eae g     F .text	00000046 __hi0bits
800000bc g       .ilalign	00000000 _ilm
8000850a g     F .text	00000064 .hidden __fixdfsi
80000530 g     F .text	00000014 i2c_busy
80000a54 g     F .text	00000314 _premain_init
80006b98 g     F .text	0000002a fprintf
800079d0 g     F .text	000000a6 .hidden __ledf2
80000d74 g     F .text	00000900 OLED_ShowString
80006116 g     F .text	000000da __pow5mult
800093c4 g     O .rodata	00000020 __sf_fake_stderr
80000988 g     F .text	000000ca core_trap_handler
8000885e g     F .text	0000003c .hidden __clzsi2
80006744 g     F .text	00000044 __sfputs_r
80000548 g     F .text	00000044 uart_init
80005b40 g     F .text	0000001a memchr
80003cee  w    F .text	000004d8 _printf_float
800065ac g     F .text	0000009e _free_r
9000023c g     O .bss	00000004 _global_atexit
90010000 g       .stack	00000000 _sp
80000000 g     F .init	00000000 _start
80000178  w    F .text	00000004 _lseek
800061f0 g     F .text	00000104 __lshift
8000485e g     F .text	00000074 __register_exitproc
80005f96 g     F .text	00000180 __multiply
80006488 g     F .text	000000ee __d2b
80006b70 g     F .text	00000028 _close_r
8000051c g     F .text	00000010 i2c_send_command
8000474e g     F .text	00000110 __swsetup_r
80007380 g     F .text	00000540 .hidden __divdf3
80005924 g     F .text	0000009c __sfp
80007a76 g     F .text	00000442 .hidden __muldf3
80006a50 g     F .text	00000030 __sread
80006c7a g     F .text	00000002 __malloc_lock
8000579a g     F .text	00000066 _fflush_r
80006576 g     F .text	00000036 _calloc_r
800093e4 g     O .rodata	00000020 __sf_fake_stdin
90000234 g       .bss	00000000 __bss_start
80005c36 g     F .text	000000a8 memset
800000bc g     F .text	0000004e main
80008bb0 g     O .rodata	000005f0 asc2_1608
80000468  w      .text	00000000 trap_entry
80006b04 g     F .text	00000006 __sclose
800049fe g     F .text	00000c54 _dtoa_r
8000664a g     F .text	000000d0 _malloc_r
80006caa g     F .text	00000020 __ascii_wctomb
80009754 g       .rodata	00000000 __vsymtab_start
80000508 g     F .text	00000010 i2c_send_data
80000974 g     F .text	00000012 SystemInit
800078c0 g     F .text	0000006a .hidden __nedf2
80000d70 g     F .text	00000002 _fini
80004546 g     F .text	00000040 iprintf
800091a0 g     O .rodata	00000100 .hidden __clz_tab
80003c52 g     F .text	0000009c __exponent
80003ac6 g     F .text	0000000c atexit
80006b0a g     F .text	0000002c _write_r
800041c6 g     F .text	0000010c _printf_common
900001d8 g     O .data	00000004 _impure_ptr
80005652 g     F .text	00000148 __sflush_r
80006c40 g     F .text	0000003a __ascii_mbtowc
90000000 g       .dalign	00000000 _data
80009754 g       .rodata	00000000 __vsymtab_end
80005a34 g     F .text	0000005c __swhatbuf_r
800001d8  w    F .text	0000028e _write
90000234 g       .bss	00000000 _edata
80000d68 g     F .text	00000002 _postmain_fini
90000370 g       .bss	00000000 _end
80009754 g       .lalign	00000000 _data_lma
800005f4 g     F .text	00000066 uart_read
80006a80 g     F .text	0000004e __swrite
80006b98 g     F .text	0000002a fiprintf
80006788 g     F .text	000002a0 _vfiprintf_r
800059c0 g     F .text	0000006a _fwalk_reent
8000632a g     F .text	0000015e __mdiff
8000016c  w    F .text	0000000a _kill
80009404 g     O .rodata	00000020 __sf_fake_stdout
800095d8 g     O .rodata	00000101 _ctype_
80000180  w    F .text	00000026 _read
800084d0 g     F .text	0000003a .hidden __unorddf2
80000118  w    F .text	00000022 _exit
80005a90 g     F .text	000000a2 __smakebuf_r
80004672 g     F .text	00000012 strlen
800042d2 g     F .text	00000274 _printf_i
8000792a g     F .text	000000a6 .hidden __gedf2
90000244 g     O .bss	00000004 __malloc_sbrk_start
800004f8 g     F .text	00000010 i2c_setup
90000240 g     O .bss	00000004 __malloc_free_list
80009754 g       .rodata	00000000 __fsymtab_start
80007eb8 g     F .text	00000618 .hidden __subdf3
80006788 g     F .text	000002a0 _vfprintf_r
80008974 g     O .rodata	0000023a asc2_0806
80005ef4 g     F .text	0000006a __lo0bits
90000060 g     O .data	0000016c __global_locale
800004e0 g     F .text	00000014 gpio_iof_config
80008622 g     F .text	0000023c .hidden __trunctfdf2
80006d3a g     F .text	0000000e raise
8000010c  w    F .text	0000000a _close
80005dee g     F .text	000000c0 __multadd
80005d8c g     F .text	00000062 _Bfree



Disassembly of section .init:

80000000 <_start>:
_start():
C:\Users\ming\Desktop\i2c\Debug/../hbird_sdk/SoC/hbirdv2/Common/Source/GCC/startup_hbirdv2.S:40
 * Reset Handler called on controller reset
 */
_start:
    /* ===== Startup Stage 1 ===== */
    /* Disable Global Interrupt */
    csrc CSR_MSTATUS, MSTATUS_MIE
80000000:	30047073          	csrci	mstatus,8
C:\Users\ming\Desktop\i2c\Debug/../hbird_sdk/SoC/hbirdv2/Common/Source/GCC/startup_hbirdv2.S:42
    /* Disable all interrupts controlled by CSR MIE */
    csrw CSR_MIE, 0x0
80000004:	30405073          	csrwi	mie,0
C:\Users\ming\Desktop\i2c\Debug/../hbird_sdk/SoC/hbirdv2/Common/Source/GCC/startup_hbirdv2.S:47

    /* Initialize GP and Stack Pointer SP */
    .option push
    .option norelax
    la gp, __global_pointer$
80000008:	10001197          	auipc	gp,0x10001
8000000c:	9c818193          	addi	gp,gp,-1592 # 900009d0 <__global_pointer$>
C:\Users\ming\Desktop\i2c\Debug/../hbird_sdk/SoC/hbirdv2/Common/Source/GCC/startup_hbirdv2.S:49
    .option pop
    la sp, _sp
80000010:	10010117          	auipc	sp,0x10010
80000014:	ff010113          	addi	sp,sp,-16 # 90010000 <_sp>
C:\Users\ming\Desktop\i2c\Debug/../hbird_sdk/SoC/hbirdv2/Common/Source/GCC/startup_hbirdv2.S:54

    /*
     * Set Trap Entry MTVEC to trap_entry
     */
    la t0, trap_entry
80000018:	00000297          	auipc	t0,0x0
8000001c:	45028293          	addi	t0,t0,1104 # 80000468 <trap_entry>
C:\Users\ming\Desktop\i2c\Debug/../hbird_sdk/SoC/hbirdv2/Common/Source/GCC/startup_hbirdv2.S:55
    csrw CSR_MTVEC, t0
80000020:	30529073          	csrw	mtvec,t0
C:\Users\ming\Desktop\i2c\Debug/../hbird_sdk/SoC/hbirdv2/Common/Source/GCC/startup_hbirdv2.S:58

    /* Direct Mode: All exceptions set pc to BASE. */
    csrc CSR_MTVEC, 0x3
80000024:	3051f073          	csrci	mtvec,3
C:\Users\ming\Desktop\i2c\Debug/../hbird_sdk/SoC/hbirdv2/Common/Source/GCC/startup_hbirdv2.S:74
    /* ===== Startup Stage 3 ===== */
    /*
     * Load code section frm FLASH to ILM
     * when code LMA is different with VMA
     */
    la a0, _ilm_lma
80000028:	00000517          	auipc	a0,0x0
8000002c:	09450513          	addi	a0,a0,148 # 800000bc <main>
C:\Users\ming\Desktop\i2c\Debug/../hbird_sdk/SoC/hbirdv2/Common/Source/GCC/startup_hbirdv2.S:75
    la a1, _ilm
80000030:	00000597          	auipc	a1,0x0
80000034:	08c58593          	addi	a1,a1,140 # 800000bc <main>
C:\Users\ming\Desktop\i2c\Debug/../hbird_sdk/SoC/hbirdv2/Common/Source/GCC/startup_hbirdv2.S:77
    /* If the ILM phy-address same as the logic-address, then quit */
    beq a0, a1, 2f
80000038:	02b50063          	beq	a0,a1,80000058 <_start+0x58>
C:\Users\ming\Desktop\i2c\Debug/../hbird_sdk/SoC/hbirdv2/Common/Source/GCC/startup_hbirdv2.S:78
    la a2, _eilm
8000003c:	00009617          	auipc	a2,0x9
80000040:	71860613          	addi	a2,a2,1816 # 80009754 <__fsymtab_end>
C:\Users\ming\Desktop\i2c\Debug/../hbird_sdk/SoC/hbirdv2/Common/Source/GCC/startup_hbirdv2.S:79
    bgeu a1, a2, 2f
80000044:	00c5fa63          	bgeu	a1,a2,80000058 <_start+0x58>
C:\Users\ming\Desktop\i2c\Debug/../hbird_sdk/SoC/hbirdv2/Common/Source/GCC/startup_hbirdv2.S:83

1:
    /* Load code section if necessary */
    lw t0, (a0)
80000048:	00052283          	lw	t0,0(a0)
C:\Users\ming\Desktop\i2c\Debug/../hbird_sdk/SoC/hbirdv2/Common/Source/GCC/startup_hbirdv2.S:84
    sw t0, (a1)
8000004c:	0055a023          	sw	t0,0(a1)
C:\Users\ming\Desktop\i2c\Debug/../hbird_sdk/SoC/hbirdv2/Common/Source/GCC/startup_hbirdv2.S:85
    addi a0, a0, 4
80000050:	0511                	addi	a0,a0,4
C:\Users\ming\Desktop\i2c\Debug/../hbird_sdk/SoC/hbirdv2/Common/Source/GCC/startup_hbirdv2.S:86
    addi a1, a1, 4
80000052:	0591                	addi	a1,a1,4
C:\Users\ming\Desktop\i2c\Debug/../hbird_sdk/SoC/hbirdv2/Common/Source/GCC/startup_hbirdv2.S:87
    bltu a1, a2, 1b
80000054:	fec5eae3          	bltu	a1,a2,80000048 <_start+0x48>
C:\Users\ming\Desktop\i2c\Debug/../hbird_sdk/SoC/hbirdv2/Common/Source/GCC/startup_hbirdv2.S:90
2:
    /* Load data section */
    la a0, _data_lma
80000058:	00009517          	auipc	a0,0x9
8000005c:	6fc50513          	addi	a0,a0,1788 # 80009754 <__fsymtab_end>
C:\Users\ming\Desktop\i2c\Debug/../hbird_sdk/SoC/hbirdv2/Common/Source/GCC/startup_hbirdv2.S:91
    la a1, _data
80000060:	10000597          	auipc	a1,0x10000
80000064:	fa058593          	addi	a1,a1,-96 # 90000000 <impure_data>
C:\Users\ming\Desktop\i2c\Debug/../hbird_sdk/SoC/hbirdv2/Common/Source/GCC/startup_hbirdv2.S:92
    la a2, _edata
80000068:	86418613          	addi	a2,gp,-1948 # 90000234 <gTxPacket>
C:\Users\ming\Desktop\i2c\Debug/../hbird_sdk/SoC/hbirdv2/Common/Source/GCC/startup_hbirdv2.S:93
    bgeu a1, a2, 2f
8000006c:	00c5fa63          	bgeu	a1,a2,80000080 <_start+0x80>
C:\Users\ming\Desktop\i2c\Debug/../hbird_sdk/SoC/hbirdv2/Common/Source/GCC/startup_hbirdv2.S:95
1:
    lw t0, (a0)
80000070:	00052283          	lw	t0,0(a0)
C:\Users\ming\Desktop\i2c\Debug/../hbird_sdk/SoC/hbirdv2/Common/Source/GCC/startup_hbirdv2.S:96
    sw t0, (a1)
80000074:	0055a023          	sw	t0,0(a1)
C:\Users\ming\Desktop\i2c\Debug/../hbird_sdk/SoC/hbirdv2/Common/Source/GCC/startup_hbirdv2.S:97
    addi a0, a0, 4
80000078:	0511                	addi	a0,a0,4
C:\Users\ming\Desktop\i2c\Debug/../hbird_sdk/SoC/hbirdv2/Common/Source/GCC/startup_hbirdv2.S:98
    addi a1, a1, 4
8000007a:	0591                	addi	a1,a1,4
C:\Users\ming\Desktop\i2c\Debug/../hbird_sdk/SoC/hbirdv2/Common/Source/GCC/startup_hbirdv2.S:99
    bltu a1, a2, 1b
8000007c:	fec5eae3          	bltu	a1,a2,80000070 <_start+0x70>
C:\Users\ming\Desktop\i2c\Debug/../hbird_sdk/SoC/hbirdv2/Common/Source/GCC/startup_hbirdv2.S:102
2:
    /* Clear bss section */
    la a0, __bss_start
80000080:	86418513          	addi	a0,gp,-1948 # 90000234 <gTxPacket>
C:\Users\ming\Desktop\i2c\Debug/../hbird_sdk/SoC/hbirdv2/Common/Source/GCC/startup_hbirdv2.S:103
    la a1, _end
80000084:	9a018593          	addi	a1,gp,-1632 # 90000370 <_end>
C:\Users\ming\Desktop\i2c\Debug/../hbird_sdk/SoC/hbirdv2/Common/Source/GCC/startup_hbirdv2.S:104
    bgeu a0, a1, 2f
80000088:	00b57763          	bgeu	a0,a1,80000096 <_start+0x96>
C:\Users\ming\Desktop\i2c\Debug/../hbird_sdk/SoC/hbirdv2/Common/Source/GCC/startup_hbirdv2.S:106
1:
    sw zero, (a0)
8000008c:	00052023          	sw	zero,0(a0)
C:\Users\ming\Desktop\i2c\Debug/../hbird_sdk/SoC/hbirdv2/Common/Source/GCC/startup_hbirdv2.S:107
    addi a0, a0, 4
80000090:	0511                	addi	a0,a0,4
C:\Users\ming\Desktop\i2c\Debug/../hbird_sdk/SoC/hbirdv2/Common/Source/GCC/startup_hbirdv2.S:108
    bltu a0, a1, 1b
80000092:	feb56de3          	bltu	a0,a1,8000008c <_start+0x8c>
C:\Users\ming\Desktop\i2c\Debug/../hbird_sdk/SoC/hbirdv2/Common/Source/GCC/startup_hbirdv2.S:115

    /*
     * Call vendor defined SystemInit to
     * initialize the micro-controller system
     */
    call SystemInit
80000096:	0df000ef          	jal	ra,80000974 <SystemInit>
C:\Users\ming\Desktop\i2c\Debug/../hbird_sdk/SoC/hbirdv2/Common/Source/GCC/startup_hbirdv2.S:118

    /* Call global constructors */
    la a0, __libc_fini_array
8000009a:	00004517          	auipc	a0,0x4
8000009e:	a3850513          	addi	a0,a0,-1480 # 80003ad2 <__libc_fini_array>
C:\Users\ming\Desktop\i2c\Debug/../hbird_sdk/SoC/hbirdv2/Common/Source/GCC/startup_hbirdv2.S:119
    call atexit
800000a2:	225030ef          	jal	ra,80003ac6 <atexit>
C:\Users\ming\Desktop\i2c\Debug/../hbird_sdk/SoC/hbirdv2/Common/Source/GCC/startup_hbirdv2.S:121
    /* Call C/C++ constructor start up code */
    call __libc_init_array
800000a6:	263030ef          	jal	ra,80003b08 <__libc_init_array>
C:\Users\ming\Desktop\i2c\Debug/../hbird_sdk/SoC/hbirdv2/Common/Source/GCC/startup_hbirdv2.S:124

    /* do pre-init steps before main */
    call _premain_init
800000aa:	1ab000ef          	jal	ra,80000a54 <_premain_init>
C:\Users\ming\Desktop\i2c\Debug/../hbird_sdk/SoC/hbirdv2/Common/Source/GCC/startup_hbirdv2.S:127
    /* ===== Call Main Function  ===== */
    /* argc = argv = 0 */
    li a0, 0
800000ae:	4501                	li	a0,0
C:\Users\ming\Desktop\i2c\Debug/../hbird_sdk/SoC/hbirdv2/Common/Source/GCC/startup_hbirdv2.S:128
    li a1, 0
800000b0:	4581                	li	a1,0
C:\Users\ming\Desktop\i2c\Debug/../hbird_sdk/SoC/hbirdv2/Common/Source/GCC/startup_hbirdv2.S:134

#ifdef RTOS_RTTHREAD
    // Call entry function when using RT-Thread
    call entry
#else
    call main
800000b2:	2029                	jal	800000bc <main>
C:\Users\ming\Desktop\i2c\Debug/../hbird_sdk/SoC/hbirdv2/Common/Source/GCC/startup_hbirdv2.S:137
#endif
    /* do post-main steps after main */
    call _postmain_fini
800000b4:	4b5000ef          	jal	ra,80000d68 <_postmain_fini>
C:\Users\ming\Desktop\i2c\Debug/../hbird_sdk/SoC/hbirdv2/Common/Source/GCC/startup_hbirdv2.S:140

1:
    j 1b
800000b8:	a001                	j	800000b8 <_start+0xb8>

Disassembly of section .text:

800000bc <main>:
main():
C:\Users\ming\Desktop\i2c\Debug/../application/main.c:10

void gpio_config();
//int i2c_eeprom_wr_test();

int main(void)
{
800000bc:	1141                	addi	sp,sp,-16
C:\Users\ming\Desktop\i2c\Debug/../application/main.c:11
    printf("123");
800000be:	00009517          	auipc	a0,0x9
800000c2:	8aa50513          	addi	a0,a0,-1878 # 80008968 <__clzsi2+0x10a>
C:\Users\ming\Desktop\i2c\Debug/../application/main.c:10
{
800000c6:	c606                	sw	ra,12(sp)
C:\Users\ming\Desktop\i2c\Debug/../application/main.c:11
    printf("123");
800000c8:	47e040ef          	jal	ra,80004546 <iprintf>
gpio_config():
C:\Users\ming\Desktop\i2c\Debug/../application/main.c:35
*/
void gpio_config()
{
    // GPIO Init
    // Set GPIOA[14] as I2C SCL, GPIOA[15] as I2C SDA
    gpio_iof_config(GPIOA, IOF_I2C_MASK);
800000cc:	65b1                	lui	a1,0xc
800000ce:	10012537          	lui	a0,0x10012
800000d2:	2139                	jal	800004e0 <gpio_iof_config>
main():
C:\Users\ming\Desktop\i2c\Debug/../application/main.c:14
    i2c_setup(I2C_ID, I2C_PRESCALER, I2C_CTR_EN);
800000d4:	08000613          	li	a2,128
800000d8:	45fd                	li	a1,31
800000da:	10025537          	lui	a0,0x10025
800000de:	2929                	jal	800004f8 <i2c_setup>
C:\Users\ming\Desktop\i2c\Debug/../application/main.c:15
    printf("123");
800000e0:	00009517          	auipc	a0,0x9
800000e4:	88850513          	addi	a0,a0,-1912 # 80008968 <__clzsi2+0x10a>
800000e8:	45e040ef          	jal	ra,80004546 <iprintf>
C:\Users\ming\Desktop\i2c\Debug/../application/main.c:19
    OLED_Init();
800000ec:	58c010ef          	jal	ra,80001678 <OLED_Init>
C:\Users\ming\Desktop\i2c\Debug/../application/main.c:20
    OLED_ShowString(1, 1, "hello", 8);
800000f0:	4505                	li	a0,1
800000f2:	46a1                	li	a3,8
800000f4:	00009617          	auipc	a2,0x9
800000f8:	87860613          	addi	a2,a2,-1928 # 8000896c <__clzsi2+0x10e>
800000fc:	4585                	li	a1,1
800000fe:	477000ef          	jal	ra,80000d74 <OLED_ShowString>
C:\Users\ming\Desktop\i2c\Debug/../application/main.c:23
}
80000102:	40b2                	lw	ra,12(sp)
80000104:	4501                	li	a0,0
80000106:	0141                	addi	sp,sp,16
80000108:	8082                	ret
	...

8000010c <_close>:
_close():
C:\Users\ming\Desktop\i2c\Debug/../hbird_sdk/SoC/hbirdv2/Common/Source/Stubs/close.c:10
#undef errno
extern int errno;

__WEAK int _close(int fd)
{
    errno = EBADF;
8000010c:	47a5                	li	a5,9
8000010e:	86f1a423          	sw	a5,-1944(gp) # 90000238 <errno>
C:\Users\ming\Desktop\i2c\Debug/../hbird_sdk/SoC/hbirdv2/Common/Source/Stubs/close.c:12
    return -1;
}
80000112:	557d                	li	a0,-1
80000114:	8082                	ret
	...

80000118 <_exit>:
__WFI():
C:\Users\ming\Desktop\i2c\hbird_sdk\NMSIS\Core\Include/core_feature_base.h:598 (discriminator 1)
 * the hardware platform that suitable interrupts should
 * preferentially be routed to this hart.
 */
__STATIC_FORCEINLINE void __WFI(void)
{
    __ASM volatile("wfi");
80000118:	10500073          	wfi
8000011c:	10500073          	wfi
80000120:	10500073          	wfi
80000124:	10500073          	wfi
80000128:	10500073          	wfi
8000012c:	10500073          	wfi
80000130:	10500073          	wfi
80000134:	10500073          	wfi
80000138:	b7c5                	j	80000118 <_exit>
	...

8000013c <_fstat>:
_fstat():
C:\Users\ming\Desktop\i2c\Debug/../hbird_sdk/SoC/hbirdv2/Common/Source/Stubs/fstat.c:12
#undef errno
extern int errno;

__WEAK int _fstat(int file, struct stat *st)
{
    if ((STDOUT_FILENO == file) || (STDERR_FILENO == file)) {
8000013c:	157d                	addi	a0,a0,-1
8000013e:	4785                	li	a5,1
80000140:	00a7e863          	bltu	a5,a0,80000150 <_fstat+0x14>
C:\Users\ming\Desktop\i2c\Debug/../hbird_sdk/SoC/hbirdv2/Common/Source/Stubs/fstat.c:13
        st->st_mode = S_IFCHR;
80000144:	6309                	lui	t1,0x2
C:\Users\ming\Desktop\i2c\Debug/../hbird_sdk/SoC/hbirdv2/Common/Source/Stubs/fstat.c:14
        return 0;
80000146:	4501                	li	a0,0
C:\Users\ming\Desktop\i2c\Debug/../hbird_sdk/SoC/hbirdv2/Common/Source/Stubs/fstat.c:13
        st->st_mode = S_IFCHR;
80000148:	0065a223          	sw	t1,4(a1) # c004 <__stack_size+0xb804>
C:\Users\ming\Desktop\i2c\Debug/../hbird_sdk/SoC/hbirdv2/Common/Source/Stubs/fstat.c:14
        return 0;
8000014c:	8082                	ret
8000014e:	0001                	nop
C:\Users\ming\Desktop\i2c\Debug/../hbird_sdk/SoC/hbirdv2/Common/Source/Stubs/fstat.c:16
    } else {
        errno = EBADF;
80000150:	42a5                	li	t0,9
C:\Users\ming\Desktop\i2c\Debug/../hbird_sdk/SoC/hbirdv2/Common/Source/Stubs/fstat.c:17
        return -1;
80000152:	557d                	li	a0,-1
C:\Users\ming\Desktop\i2c\Debug/../hbird_sdk/SoC/hbirdv2/Common/Source/Stubs/fstat.c:16
        errno = EBADF;
80000154:	8651a423          	sw	t0,-1944(gp) # 90000238 <errno>
C:\Users\ming\Desktop\i2c\Debug/../hbird_sdk/SoC/hbirdv2/Common/Source/Stubs/fstat.c:19
    }
}
80000158:	8082                	ret
	...

8000015c <_getpid>:
_getpid():
C:\Users\ming\Desktop\i2c\Debug/../hbird_sdk/SoC/hbirdv2/Common/Source/Stubs/getpid.c:8
#include <errno.h>

__WEAK int _getpid(void)
{
    return 1;
}
8000015c:	4505                	li	a0,1
8000015e:	8082                	ret
80000160:	0000                	unimp
	...

80000164 <_isatty>:
_isatty():
C:\Users\ming\Desktop\i2c\Debug/../hbird_sdk/SoC/hbirdv2/Common/Source/Stubs/isatty.c:8
#include <unistd.h>

__WEAK int _isatty(int fd)
{
    return 1;
}
80000164:	4505                	li	a0,1
80000166:	8082                	ret
80000168:	0000                	unimp
	...

8000016c <_kill>:
_kill():
C:\Users\ming\Desktop\i2c\Debug/../hbird_sdk/SoC/hbirdv2/Common/Source/Stubs/kill.c:9
#undef errno
extern int errno;

__WEAK int _kill(int pid, int sig)
{
    errno = EINVAL;
8000016c:	47d9                	li	a5,22
8000016e:	86f1a423          	sw	a5,-1944(gp) # 90000238 <errno>
C:\Users\ming\Desktop\i2c\Debug/../hbird_sdk/SoC/hbirdv2/Common/Source/Stubs/kill.c:11
    return -1;
}
80000172:	557d                	li	a0,-1
80000174:	8082                	ret
	...

80000178 <_lseek>:
_lseek():
C:\Users\ming\Desktop\i2c\Debug/../hbird_sdk/SoC/hbirdv2/Common/Source/Stubs/lseek.c:11
extern int errno;

__WEAK int _lseek(int file, int offset, int whence)
{
    return 0;
}
80000178:	4501                	li	a0,0
8000017a:	8082                	ret
8000017c:	0000                	unimp
	...

80000180 <_read>:
_read():
C:\Users\ming\Desktop\i2c\Debug/../hbird_sdk/SoC/hbirdv2/Common/Source/Stubs/read.c:12

// #define UART_AUTO_ECHO

__WEAK ssize_t _read(int fd, void* ptr, size_t len)
{
    if (fd != STDIN_FILENO) {
80000180:	c501                	beqz	a0,80000188 <_read+0x8>
C:\Users\ming\Desktop\i2c\Debug/../hbird_sdk/SoC/hbirdv2/Common/Source/Stubs/read.c:13
        return -1;
80000182:	557d                	li	a0,-1
C:\Users\ming\Desktop\i2c\Debug/../hbird_sdk/SoC/hbirdv2/Common/Source/Stubs/read.c:22
    readbuf[0] = uart_read(SOC_DEBUG_UART);
#ifdef UART_AUTO_ECHO
    uart_write(SOC_DEBUG_UART, readbuf[0]);
#endif
    return 1;
}
80000184:	8082                	ret
80000186:	0001                	nop
C:\Users\ming\Desktop\i2c\Debug/../hbird_sdk/SoC/hbirdv2/Common/Source/Stubs/read.c:11
{
80000188:	1141                	addi	sp,sp,-16
C:\Users\ming\Desktop\i2c\Debug/../hbird_sdk/SoC/hbirdv2/Common/Source/Stubs/read.c:17
    readbuf[0] = uart_read(SOC_DEBUG_UART);
8000018a:	10013537          	lui	a0,0x10013
C:\Users\ming\Desktop\i2c\Debug/../hbird_sdk/SoC/hbirdv2/Common/Source/Stubs/read.c:11
{
8000018e:	c422                	sw	s0,8(sp)
80000190:	c606                	sw	ra,12(sp)
80000192:	842e                	mv	s0,a1
C:\Users\ming\Desktop\i2c\Debug/../hbird_sdk/SoC/hbirdv2/Common/Source/Stubs/read.c:17
    readbuf[0] = uart_read(SOC_DEBUG_UART);
80000194:	2185                	jal	800005f4 <uart_read>
80000196:	87aa                	mv	a5,a0
80000198:	00f40023          	sb	a5,0(s0)
C:\Users\ming\Desktop\i2c\Debug/../hbird_sdk/SoC/hbirdv2/Common/Source/Stubs/read.c:22
}
8000019c:	40b2                	lw	ra,12(sp)
8000019e:	4422                	lw	s0,8(sp)
C:\Users\ming\Desktop\i2c\Debug/../hbird_sdk/SoC/hbirdv2/Common/Source/Stubs/read.c:21
    return 1;
800001a0:	4505                	li	a0,1
C:\Users\ming\Desktop\i2c\Debug/../hbird_sdk/SoC/hbirdv2/Common/Source/Stubs/read.c:22
}
800001a2:	0141                	addi	sp,sp,16
800001a4:	8082                	ret
	...

800001a8 <_sbrk>:
_sbrk():
C:\Users\ming\Desktop\i2c\Debug/../hbird_sdk/SoC/hbirdv2/Common/Source/Stubs/sbrk.c:13
{
    extern char _end[];
    extern char _heap_end[];
    static char *curbrk = _end;

    if ((curbrk + incr < _end) || (curbrk + incr > _heap_end)) {
800001a8:	10000717          	auipc	a4,0x10000
800001ac:	02870713          	addi	a4,a4,40 # 900001d0 <curbrk.0>
800001b0:	431c                	lw	a5,0(a4)
800001b2:	9a018693          	addi	a3,gp,-1632 # 90000370 <_end>
800001b6:	953e                	add	a0,a0,a5
800001b8:	00d56c63          	bltu	a0,a3,800001d0 <_sbrk+0x28>
C:\Users\ming\Desktop\i2c\Debug/../hbird_sdk/SoC/hbirdv2/Common/Source/Stubs/sbrk.c:13 (discriminator 1)
800001bc:	1000f297          	auipc	t0,0x1000f
800001c0:	64428293          	addi	t0,t0,1604 # 9000f800 <_heap_end>
800001c4:	00a2e663          	bltu	t0,a0,800001d0 <_sbrk+0x28>
C:\Users\ming\Desktop\i2c\Debug/../hbird_sdk/SoC/hbirdv2/Common/Source/Stubs/sbrk.c:17
        return (void *)(-1);
    }

    curbrk += incr;
800001c8:	c308                	sw	a0,0(a4)
C:\Users\ming\Desktop\i2c\Debug/../hbird_sdk/SoC/hbirdv2/Common/Source/Stubs/sbrk.c:19
    return (void *)(curbrk - incr);
}
800001ca:	853e                	mv	a0,a5
800001cc:	8082                	ret
800001ce:	0001                	nop
C:\Users\ming\Desktop\i2c\Debug/../hbird_sdk/SoC/hbirdv2/Common/Source/Stubs/sbrk.c:14
        return (void *)(-1);
800001d0:	57fd                	li	a5,-1
C:\Users\ming\Desktop\i2c\Debug/../hbird_sdk/SoC/hbirdv2/Common/Source/Stubs/sbrk.c:19
}
800001d2:	853e                	mv	a0,a5
800001d4:	8082                	ret
	...

800001d8 <_write>:
_write():
C:\Users\ming\Desktop\i2c\Debug/../hbird_sdk/SoC/hbirdv2/Common/Source/Stubs/write.c:9
#include <unistd.h>
#include <sys/types.h>
#include <hbird_sdk_hal.h>

__WEAK ssize_t _write(int fd, const void* ptr, size_t len)
{
800001d8:	1101                	addi	sp,sp,-32
800001da:	c84a                	sw	s2,16(sp)
800001dc:	c64e                	sw	s3,12(sp)
800001de:	ce06                	sw	ra,28(sp)
800001e0:	cc22                	sw	s0,24(sp)
800001e2:	ca26                	sw	s1,20(sp)
800001e4:	c452                	sw	s4,8(sp)
800001e6:	892e                	mv	s2,a1
800001e8:	89b2                	mv	s3,a2
C:\Users\ming\Desktop\i2c\Debug/../hbird_sdk/SoC/hbirdv2/Common/Source/Stubs/write.c:10
    if (!isatty(fd)) {
800001ea:	49a040ef          	jal	ra,80004684 <isatty>
800001ee:	26050a63          	beqz	a0,80000462 <_write+0x28a>
800001f2:	844a                	mv	s0,s2
800001f4:	01390a33          	add	s4,s2,s3
C:\Users\ming\Desktop\i2c\Debug/../hbird_sdk/SoC/hbirdv2/Common/Source/Stubs/write.c:15
        return -1;
    }

    const uint8_t *writebuf = (const uint8_t *)ptr;
    for (size_t i = 0; i < len; i++) {
800001f8:	0a098663          	beqz	s3,800002a4 <_write+0xcc>
800001fc:	412a07b3          	sub	a5,s4,s2
80000200:	0077f093          	andi	ra,a5,7
C:\Users\ming\Desktop\i2c\Debug/../hbird_sdk/SoC/hbirdv2/Common/Source/Stubs/write.c:16
        if (writebuf[i] == '\n') {
80000204:	44a9                	li	s1,10
80000206:	12008963          	beqz	ra,80000338 <_write+0x160>
8000020a:	4705                	li	a4,1
8000020c:	08e08263          	beq	ra,a4,80000290 <_write+0xb8>
80000210:	4289                	li	t0,2
80000212:	06508763          	beq	ra,t0,80000280 <_write+0xa8>
80000216:	430d                	li	t1,3
80000218:	04608c63          	beq	ra,t1,80000270 <_write+0x98>
8000021c:	4391                	li	t2,4
8000021e:	04708163          	beq	ra,t2,80000260 <_write+0x88>
80000222:	4515                	li	a0,5
80000224:	02a08663          	beq	ra,a0,80000250 <_write+0x78>
80000228:	4599                	li	a1,6
8000022a:	00b08b63          	beq	ra,a1,80000240 <_write+0x68>
8000022e:	00094583          	lbu	a1,0(s2)
80000232:	22958163          	beq	a1,s1,80000454 <_write+0x27c>
C:\Users\ming\Desktop\i2c\Debug/../hbird_sdk/SoC/hbirdv2/Common/Source/Stubs/write.c:19
            uart_write(SOC_DEBUG_UART, '\r');
        }
        uart_write(SOC_DEBUG_UART, writebuf[i]);
80000236:	10013537          	lui	a0,0x10013
8000023a:	2e99                	jal	80000590 <uart_write>
C:\Users\ming\Desktop\i2c\Debug/../hbird_sdk/SoC/hbirdv2/Common/Source/Stubs/write.c:15
    for (size_t i = 0; i < len; i++) {
8000023c:	00190413          	addi	s0,s2,1
C:\Users\ming\Desktop\i2c\Debug/../hbird_sdk/SoC/hbirdv2/Common/Source/Stubs/write.c:16
        if (writebuf[i] == '\n') {
80000240:	00044583          	lbu	a1,0(s0)
80000244:	20958163          	beq	a1,s1,80000446 <_write+0x26e>
C:\Users\ming\Desktop\i2c\Debug/../hbird_sdk/SoC/hbirdv2/Common/Source/Stubs/write.c:19
        uart_write(SOC_DEBUG_UART, writebuf[i]);
80000248:	10013537          	lui	a0,0x10013
8000024c:	2691                	jal	80000590 <uart_write>
C:\Users\ming\Desktop\i2c\Debug/../hbird_sdk/SoC/hbirdv2/Common/Source/Stubs/write.c:15
    for (size_t i = 0; i < len; i++) {
8000024e:	0405                	addi	s0,s0,1
C:\Users\ming\Desktop\i2c\Debug/../hbird_sdk/SoC/hbirdv2/Common/Source/Stubs/write.c:16
        if (writebuf[i] == '\n') {
80000250:	00044583          	lbu	a1,0(s0)
80000254:	1e958263          	beq	a1,s1,80000438 <_write+0x260>
C:\Users\ming\Desktop\i2c\Debug/../hbird_sdk/SoC/hbirdv2/Common/Source/Stubs/write.c:19
        uart_write(SOC_DEBUG_UART, writebuf[i]);
80000258:	10013537          	lui	a0,0x10013
8000025c:	2e15                	jal	80000590 <uart_write>
C:\Users\ming\Desktop\i2c\Debug/../hbird_sdk/SoC/hbirdv2/Common/Source/Stubs/write.c:15
    for (size_t i = 0; i < len; i++) {
8000025e:	0405                	addi	s0,s0,1
C:\Users\ming\Desktop\i2c\Debug/../hbird_sdk/SoC/hbirdv2/Common/Source/Stubs/write.c:16
        if (writebuf[i] == '\n') {
80000260:	00044583          	lbu	a1,0(s0)
80000264:	1c958363          	beq	a1,s1,8000042a <_write+0x252>
C:\Users\ming\Desktop\i2c\Debug/../hbird_sdk/SoC/hbirdv2/Common/Source/Stubs/write.c:19
        uart_write(SOC_DEBUG_UART, writebuf[i]);
80000268:	10013537          	lui	a0,0x10013
8000026c:	2615                	jal	80000590 <uart_write>
C:\Users\ming\Desktop\i2c\Debug/../hbird_sdk/SoC/hbirdv2/Common/Source/Stubs/write.c:15
    for (size_t i = 0; i < len; i++) {
8000026e:	0405                	addi	s0,s0,1
C:\Users\ming\Desktop\i2c\Debug/../hbird_sdk/SoC/hbirdv2/Common/Source/Stubs/write.c:16
        if (writebuf[i] == '\n') {
80000270:	00044583          	lbu	a1,0(s0)
80000274:	18958463          	beq	a1,s1,800003fc <_write+0x224>
C:\Users\ming\Desktop\i2c\Debug/../hbird_sdk/SoC/hbirdv2/Common/Source/Stubs/write.c:19
        uart_write(SOC_DEBUG_UART, writebuf[i]);
80000278:	10013537          	lui	a0,0x10013
8000027c:	2e11                	jal	80000590 <uart_write>
C:\Users\ming\Desktop\i2c\Debug/../hbird_sdk/SoC/hbirdv2/Common/Source/Stubs/write.c:15
    for (size_t i = 0; i < len; i++) {
8000027e:	0405                	addi	s0,s0,1
C:\Users\ming\Desktop\i2c\Debug/../hbird_sdk/SoC/hbirdv2/Common/Source/Stubs/write.c:16
        if (writebuf[i] == '\n') {
80000280:	00044583          	lbu	a1,0(s0)
80000284:	18958c63          	beq	a1,s1,8000041c <_write+0x244>
C:\Users\ming\Desktop\i2c\Debug/../hbird_sdk/SoC/hbirdv2/Common/Source/Stubs/write.c:19
        uart_write(SOC_DEBUG_UART, writebuf[i]);
80000288:	10013537          	lui	a0,0x10013
8000028c:	2611                	jal	80000590 <uart_write>
C:\Users\ming\Desktop\i2c\Debug/../hbird_sdk/SoC/hbirdv2/Common/Source/Stubs/write.c:15
    for (size_t i = 0; i < len; i++) {
8000028e:	0405                	addi	s0,s0,1
C:\Users\ming\Desktop\i2c\Debug/../hbird_sdk/SoC/hbirdv2/Common/Source/Stubs/write.c:16
        if (writebuf[i] == '\n') {
80000290:	00044583          	lbu	a1,0(s0)
80000294:	16958c63          	beq	a1,s1,8000040c <_write+0x234>
C:\Users\ming\Desktop\i2c\Debug/../hbird_sdk/SoC/hbirdv2/Common/Source/Stubs/write.c:15
    for (size_t i = 0; i < len; i++) {
80000298:	0405                	addi	s0,s0,1
C:\Users\ming\Desktop\i2c\Debug/../hbird_sdk/SoC/hbirdv2/Common/Source/Stubs/write.c:19
        uart_write(SOC_DEBUG_UART, writebuf[i]);
8000029a:	10013537          	lui	a0,0x10013
8000029e:	2ccd                	jal	80000590 <uart_write>
C:\Users\ming\Desktop\i2c\Debug/../hbird_sdk/SoC/hbirdv2/Common/Source/Stubs/write.c:15
    for (size_t i = 0; i < len; i++) {
800002a0:	09441c63          	bne	s0,s4,80000338 <_write+0x160>
C:\Users\ming\Desktop\i2c\Debug/../hbird_sdk/SoC/hbirdv2/Common/Source/Stubs/write.c:21
    }
    return len;
800002a4:	854e                	mv	a0,s3
C:\Users\ming\Desktop\i2c\Debug/../hbird_sdk/SoC/hbirdv2/Common/Source/Stubs/write.c:22
}
800002a6:	40f2                	lw	ra,28(sp)
800002a8:	4462                	lw	s0,24(sp)
800002aa:	44d2                	lw	s1,20(sp)
800002ac:	4942                	lw	s2,16(sp)
800002ae:	49b2                	lw	s3,12(sp)
800002b0:	4a22                	lw	s4,8(sp)
800002b2:	6105                	addi	sp,sp,32
800002b4:	8082                	ret
800002b6:	0001                	nop
C:\Users\ming\Desktop\i2c\Debug/../hbird_sdk/SoC/hbirdv2/Common/Source/Stubs/write.c:17
            uart_write(SOC_DEBUG_UART, '\r');
800002b8:	45b5                	li	a1,13
800002ba:	10013537          	lui	a0,0x10013
800002be:	2cc9                	jal	80000590 <uart_write>
C:\Users\ming\Desktop\i2c\Debug/../hbird_sdk/SoC/hbirdv2/Common/Source/Stubs/write.c:19
        uart_write(SOC_DEBUG_UART, writebuf[i]);
800002c0:	00044583          	lbu	a1,0(s0)
800002c4:	10013537          	lui	a0,0x10013
C:\Users\ming\Desktop\i2c\Debug/../hbird_sdk/SoC/hbirdv2/Common/Source/Stubs/write.c:15
    for (size_t i = 0; i < len; i++) {
800002c8:	00140913          	addi	s2,s0,1
C:\Users\ming\Desktop\i2c\Debug/../hbird_sdk/SoC/hbirdv2/Common/Source/Stubs/write.c:19
        uart_write(SOC_DEBUG_UART, writebuf[i]);
800002cc:	24d1                	jal	80000590 <uart_write>
C:\Users\ming\Desktop\i2c\Debug/../hbird_sdk/SoC/hbirdv2/Common/Source/Stubs/write.c:16
        if (writebuf[i] == '\n') {
800002ce:	00144583          	lbu	a1,1(s0)
800002d2:	08958063          	beq	a1,s1,80000352 <_write+0x17a>
C:\Users\ming\Desktop\i2c\Debug/../hbird_sdk/SoC/hbirdv2/Common/Source/Stubs/write.c:19
        uart_write(SOC_DEBUG_UART, writebuf[i]);
800002d6:	10013537          	lui	a0,0x10013
800002da:	2c5d                	jal	80000590 <uart_write>
C:\Users\ming\Desktop\i2c\Debug/../hbird_sdk/SoC/hbirdv2/Common/Source/Stubs/write.c:16
        if (writebuf[i] == '\n') {
800002dc:	00194583          	lbu	a1,1(s2)
800002e0:	08958663          	beq	a1,s1,8000036c <_write+0x194>
C:\Users\ming\Desktop\i2c\Debug/../hbird_sdk/SoC/hbirdv2/Common/Source/Stubs/write.c:19
        uart_write(SOC_DEBUG_UART, writebuf[i]);
800002e4:	10013537          	lui	a0,0x10013
800002e8:	2465                	jal	80000590 <uart_write>
C:\Users\ming\Desktop\i2c\Debug/../hbird_sdk/SoC/hbirdv2/Common/Source/Stubs/write.c:16
        if (writebuf[i] == '\n') {
800002ea:	00294583          	lbu	a1,2(s2)
800002ee:	08958c63          	beq	a1,s1,80000386 <_write+0x1ae>
C:\Users\ming\Desktop\i2c\Debug/../hbird_sdk/SoC/hbirdv2/Common/Source/Stubs/write.c:19
        uart_write(SOC_DEBUG_UART, writebuf[i]);
800002f2:	10013537          	lui	a0,0x10013
800002f6:	2c69                	jal	80000590 <uart_write>
C:\Users\ming\Desktop\i2c\Debug/../hbird_sdk/SoC/hbirdv2/Common/Source/Stubs/write.c:16
        if (writebuf[i] == '\n') {
800002f8:	00394583          	lbu	a1,3(s2)
800002fc:	0a958263          	beq	a1,s1,800003a0 <_write+0x1c8>
C:\Users\ming\Desktop\i2c\Debug/../hbird_sdk/SoC/hbirdv2/Common/Source/Stubs/write.c:19
        uart_write(SOC_DEBUG_UART, writebuf[i]);
80000300:	10013537          	lui	a0,0x10013
80000304:	2471                	jal	80000590 <uart_write>
C:\Users\ming\Desktop\i2c\Debug/../hbird_sdk/SoC/hbirdv2/Common/Source/Stubs/write.c:16
        if (writebuf[i] == '\n') {
80000306:	00494583          	lbu	a1,4(s2)
8000030a:	0a958863          	beq	a1,s1,800003ba <_write+0x1e2>
C:\Users\ming\Desktop\i2c\Debug/../hbird_sdk/SoC/hbirdv2/Common/Source/Stubs/write.c:19
        uart_write(SOC_DEBUG_UART, writebuf[i]);
8000030e:	10013537          	lui	a0,0x10013
80000312:	2cbd                	jal	80000590 <uart_write>
C:\Users\ming\Desktop\i2c\Debug/../hbird_sdk/SoC/hbirdv2/Common/Source/Stubs/write.c:16
        if (writebuf[i] == '\n') {
80000314:	00594583          	lbu	a1,5(s2)
80000318:	0a958e63          	beq	a1,s1,800003d4 <_write+0x1fc>
C:\Users\ming\Desktop\i2c\Debug/../hbird_sdk/SoC/hbirdv2/Common/Source/Stubs/write.c:19
        uart_write(SOC_DEBUG_UART, writebuf[i]);
8000031c:	10013537          	lui	a0,0x10013
80000320:	2c85                	jal	80000590 <uart_write>
C:\Users\ming\Desktop\i2c\Debug/../hbird_sdk/SoC/hbirdv2/Common/Source/Stubs/write.c:16
        if (writebuf[i] == '\n') {
80000322:	00694583          	lbu	a1,6(s2)
80000326:	0c958463          	beq	a1,s1,800003ee <_write+0x216>
C:\Users\ming\Desktop\i2c\Debug/../hbird_sdk/SoC/hbirdv2/Common/Source/Stubs/write.c:15
    for (size_t i = 0; i < len; i++) {
8000032a:	00790413          	addi	s0,s2,7
C:\Users\ming\Desktop\i2c\Debug/../hbird_sdk/SoC/hbirdv2/Common/Source/Stubs/write.c:19
        uart_write(SOC_DEBUG_UART, writebuf[i]);
8000032e:	10013537          	lui	a0,0x10013
80000332:	2cb9                	jal	80000590 <uart_write>
C:\Users\ming\Desktop\i2c\Debug/../hbird_sdk/SoC/hbirdv2/Common/Source/Stubs/write.c:15
    for (size_t i = 0; i < len; i++) {
80000334:	f74408e3          	beq	s0,s4,800002a4 <_write+0xcc>
C:\Users\ming\Desktop\i2c\Debug/../hbird_sdk/SoC/hbirdv2/Common/Source/Stubs/write.c:16
        if (writebuf[i] == '\n') {
80000338:	00044583          	lbu	a1,0(s0)
8000033c:	f6958ee3          	beq	a1,s1,800002b8 <_write+0xe0>
C:\Users\ming\Desktop\i2c\Debug/../hbird_sdk/SoC/hbirdv2/Common/Source/Stubs/write.c:19
        uart_write(SOC_DEBUG_UART, writebuf[i]);
80000340:	10013537          	lui	a0,0x10013
80000344:	24b1                	jal	80000590 <uart_write>
C:\Users\ming\Desktop\i2c\Debug/../hbird_sdk/SoC/hbirdv2/Common/Source/Stubs/write.c:16
        if (writebuf[i] == '\n') {
80000346:	00144583          	lbu	a1,1(s0)
C:\Users\ming\Desktop\i2c\Debug/../hbird_sdk/SoC/hbirdv2/Common/Source/Stubs/write.c:15
    for (size_t i = 0; i < len; i++) {
8000034a:	00140913          	addi	s2,s0,1
C:\Users\ming\Desktop\i2c\Debug/../hbird_sdk/SoC/hbirdv2/Common/Source/Stubs/write.c:16
        if (writebuf[i] == '\n') {
8000034e:	f89594e3          	bne	a1,s1,800002d6 <_write+0xfe>
C:\Users\ming\Desktop\i2c\Debug/../hbird_sdk/SoC/hbirdv2/Common/Source/Stubs/write.c:17
            uart_write(SOC_DEBUG_UART, '\r');
80000352:	45b5                	li	a1,13
80000354:	10013537          	lui	a0,0x10013
80000358:	2c25                	jal	80000590 <uart_write>
C:\Users\ming\Desktop\i2c\Debug/../hbird_sdk/SoC/hbirdv2/Common/Source/Stubs/write.c:19
        uart_write(SOC_DEBUG_UART, writebuf[i]);
8000035a:	00144583          	lbu	a1,1(s0)
8000035e:	10013537          	lui	a0,0x10013
80000362:	243d                	jal	80000590 <uart_write>
C:\Users\ming\Desktop\i2c\Debug/../hbird_sdk/SoC/hbirdv2/Common/Source/Stubs/write.c:16
        if (writebuf[i] == '\n') {
80000364:	00194583          	lbu	a1,1(s2)
80000368:	f6959ee3          	bne	a1,s1,800002e4 <_write+0x10c>
C:\Users\ming\Desktop\i2c\Debug/../hbird_sdk/SoC/hbirdv2/Common/Source/Stubs/write.c:17
            uart_write(SOC_DEBUG_UART, '\r');
8000036c:	45b5                	li	a1,13
8000036e:	10013537          	lui	a0,0x10013
80000372:	2c39                	jal	80000590 <uart_write>
C:\Users\ming\Desktop\i2c\Debug/../hbird_sdk/SoC/hbirdv2/Common/Source/Stubs/write.c:19
        uart_write(SOC_DEBUG_UART, writebuf[i]);
80000374:	00194583          	lbu	a1,1(s2)
80000378:	10013537          	lui	a0,0x10013
8000037c:	2c11                	jal	80000590 <uart_write>
C:\Users\ming\Desktop\i2c\Debug/../hbird_sdk/SoC/hbirdv2/Common/Source/Stubs/write.c:16
        if (writebuf[i] == '\n') {
8000037e:	00294583          	lbu	a1,2(s2)
80000382:	f69598e3          	bne	a1,s1,800002f2 <_write+0x11a>
C:\Users\ming\Desktop\i2c\Debug/../hbird_sdk/SoC/hbirdv2/Common/Source/Stubs/write.c:17
            uart_write(SOC_DEBUG_UART, '\r');
80000386:	45b5                	li	a1,13
80000388:	10013537          	lui	a0,0x10013
8000038c:	2411                	jal	80000590 <uart_write>
C:\Users\ming\Desktop\i2c\Debug/../hbird_sdk/SoC/hbirdv2/Common/Source/Stubs/write.c:19
        uart_write(SOC_DEBUG_UART, writebuf[i]);
8000038e:	00294583          	lbu	a1,2(s2)
80000392:	10013537          	lui	a0,0x10013
80000396:	2aed                	jal	80000590 <uart_write>
C:\Users\ming\Desktop\i2c\Debug/../hbird_sdk/SoC/hbirdv2/Common/Source/Stubs/write.c:16
        if (writebuf[i] == '\n') {
80000398:	00394583          	lbu	a1,3(s2)
8000039c:	f69592e3          	bne	a1,s1,80000300 <_write+0x128>
C:\Users\ming\Desktop\i2c\Debug/../hbird_sdk/SoC/hbirdv2/Common/Source/Stubs/write.c:17
            uart_write(SOC_DEBUG_UART, '\r');
800003a0:	45b5                	li	a1,13
800003a2:	10013537          	lui	a0,0x10013
800003a6:	22ed                	jal	80000590 <uart_write>
C:\Users\ming\Desktop\i2c\Debug/../hbird_sdk/SoC/hbirdv2/Common/Source/Stubs/write.c:19
        uart_write(SOC_DEBUG_UART, writebuf[i]);
800003a8:	00394583          	lbu	a1,3(s2)
800003ac:	10013537          	lui	a0,0x10013
800003b0:	22c5                	jal	80000590 <uart_write>
C:\Users\ming\Desktop\i2c\Debug/../hbird_sdk/SoC/hbirdv2/Common/Source/Stubs/write.c:16
        if (writebuf[i] == '\n') {
800003b2:	00494583          	lbu	a1,4(s2)
800003b6:	f4959ce3          	bne	a1,s1,8000030e <_write+0x136>
C:\Users\ming\Desktop\i2c\Debug/../hbird_sdk/SoC/hbirdv2/Common/Source/Stubs/write.c:17
            uart_write(SOC_DEBUG_UART, '\r');
800003ba:	45b5                	li	a1,13
800003bc:	10013537          	lui	a0,0x10013
800003c0:	2ac1                	jal	80000590 <uart_write>
C:\Users\ming\Desktop\i2c\Debug/../hbird_sdk/SoC/hbirdv2/Common/Source/Stubs/write.c:19
        uart_write(SOC_DEBUG_UART, writebuf[i]);
800003c2:	00494583          	lbu	a1,4(s2)
800003c6:	10013537          	lui	a0,0x10013
800003ca:	22d9                	jal	80000590 <uart_write>
C:\Users\ming\Desktop\i2c\Debug/../hbird_sdk/SoC/hbirdv2/Common/Source/Stubs/write.c:16
        if (writebuf[i] == '\n') {
800003cc:	00594583          	lbu	a1,5(s2)
800003d0:	f49596e3          	bne	a1,s1,8000031c <_write+0x144>
C:\Users\ming\Desktop\i2c\Debug/../hbird_sdk/SoC/hbirdv2/Common/Source/Stubs/write.c:17
            uart_write(SOC_DEBUG_UART, '\r');
800003d4:	45b5                	li	a1,13
800003d6:	10013537          	lui	a0,0x10013
800003da:	2a5d                	jal	80000590 <uart_write>
C:\Users\ming\Desktop\i2c\Debug/../hbird_sdk/SoC/hbirdv2/Common/Source/Stubs/write.c:19
        uart_write(SOC_DEBUG_UART, writebuf[i]);
800003dc:	00594583          	lbu	a1,5(s2)
800003e0:	10013537          	lui	a0,0x10013
800003e4:	2275                	jal	80000590 <uart_write>
C:\Users\ming\Desktop\i2c\Debug/../hbird_sdk/SoC/hbirdv2/Common/Source/Stubs/write.c:16
        if (writebuf[i] == '\n') {
800003e6:	00694583          	lbu	a1,6(s2)
800003ea:	f49590e3          	bne	a1,s1,8000032a <_write+0x152>
C:\Users\ming\Desktop\i2c\Debug/../hbird_sdk/SoC/hbirdv2/Common/Source/Stubs/write.c:17
            uart_write(SOC_DEBUG_UART, '\r');
800003ee:	45b5                	li	a1,13
800003f0:	10013537          	lui	a0,0x10013
800003f4:	2a71                	jal	80000590 <uart_write>
C:\Users\ming\Desktop\i2c\Debug/../hbird_sdk/SoC/hbirdv2/Common/Source/Stubs/write.c:19
        uart_write(SOC_DEBUG_UART, writebuf[i]);
800003f6:	00694583          	lbu	a1,6(s2)
800003fa:	bf05                	j	8000032a <_write+0x152>
C:\Users\ming\Desktop\i2c\Debug/../hbird_sdk/SoC/hbirdv2/Common/Source/Stubs/write.c:17
            uart_write(SOC_DEBUG_UART, '\r');
800003fc:	45b5                	li	a1,13
800003fe:	10013537          	lui	a0,0x10013
80000402:	2279                	jal	80000590 <uart_write>
C:\Users\ming\Desktop\i2c\Debug/../hbird_sdk/SoC/hbirdv2/Common/Source/Stubs/write.c:19
        uart_write(SOC_DEBUG_UART, writebuf[i]);
80000404:	00044583          	lbu	a1,0(s0)
80000408:	bd85                	j	80000278 <_write+0xa0>
8000040a:	0001                	nop
C:\Users\ming\Desktop\i2c\Debug/../hbird_sdk/SoC/hbirdv2/Common/Source/Stubs/write.c:17
            uart_write(SOC_DEBUG_UART, '\r');
8000040c:	45b5                	li	a1,13
8000040e:	10013537          	lui	a0,0x10013
80000412:	2abd                	jal	80000590 <uart_write>
C:\Users\ming\Desktop\i2c\Debug/../hbird_sdk/SoC/hbirdv2/Common/Source/Stubs/write.c:19
        uart_write(SOC_DEBUG_UART, writebuf[i]);
80000414:	00044583          	lbu	a1,0(s0)
80000418:	b541                	j	80000298 <_write+0xc0>
8000041a:	0001                	nop
C:\Users\ming\Desktop\i2c\Debug/../hbird_sdk/SoC/hbirdv2/Common/Source/Stubs/write.c:17
            uart_write(SOC_DEBUG_UART, '\r');
8000041c:	45b5                	li	a1,13
8000041e:	10013537          	lui	a0,0x10013
80000422:	22bd                	jal	80000590 <uart_write>
C:\Users\ming\Desktop\i2c\Debug/../hbird_sdk/SoC/hbirdv2/Common/Source/Stubs/write.c:19
        uart_write(SOC_DEBUG_UART, writebuf[i]);
80000424:	00044583          	lbu	a1,0(s0)
80000428:	b585                	j	80000288 <_write+0xb0>
C:\Users\ming\Desktop\i2c\Debug/../hbird_sdk/SoC/hbirdv2/Common/Source/Stubs/write.c:17
            uart_write(SOC_DEBUG_UART, '\r');
8000042a:	45b5                	li	a1,13
8000042c:	10013537          	lui	a0,0x10013
80000430:	2285                	jal	80000590 <uart_write>
C:\Users\ming\Desktop\i2c\Debug/../hbird_sdk/SoC/hbirdv2/Common/Source/Stubs/write.c:19
        uart_write(SOC_DEBUG_UART, writebuf[i]);
80000432:	00044583          	lbu	a1,0(s0)
80000436:	bd0d                	j	80000268 <_write+0x90>
C:\Users\ming\Desktop\i2c\Debug/../hbird_sdk/SoC/hbirdv2/Common/Source/Stubs/write.c:17
            uart_write(SOC_DEBUG_UART, '\r');
80000438:	45b5                	li	a1,13
8000043a:	10013537          	lui	a0,0x10013
8000043e:	2a89                	jal	80000590 <uart_write>
C:\Users\ming\Desktop\i2c\Debug/../hbird_sdk/SoC/hbirdv2/Common/Source/Stubs/write.c:19
        uart_write(SOC_DEBUG_UART, writebuf[i]);
80000440:	00044583          	lbu	a1,0(s0)
80000444:	bd11                	j	80000258 <_write+0x80>
C:\Users\ming\Desktop\i2c\Debug/../hbird_sdk/SoC/hbirdv2/Common/Source/Stubs/write.c:17
            uart_write(SOC_DEBUG_UART, '\r');
80000446:	45b5                	li	a1,13
80000448:	10013537          	lui	a0,0x10013
8000044c:	2291                	jal	80000590 <uart_write>
C:\Users\ming\Desktop\i2c\Debug/../hbird_sdk/SoC/hbirdv2/Common/Source/Stubs/write.c:19
        uart_write(SOC_DEBUG_UART, writebuf[i]);
8000044e:	00044583          	lbu	a1,0(s0)
80000452:	bbdd                	j	80000248 <_write+0x70>
C:\Users\ming\Desktop\i2c\Debug/../hbird_sdk/SoC/hbirdv2/Common/Source/Stubs/write.c:17
            uart_write(SOC_DEBUG_UART, '\r');
80000454:	45b5                	li	a1,13
80000456:	10013537          	lui	a0,0x10013
8000045a:	2a1d                	jal	80000590 <uart_write>
C:\Users\ming\Desktop\i2c\Debug/../hbird_sdk/SoC/hbirdv2/Common/Source/Stubs/write.c:19
        uart_write(SOC_DEBUG_UART, writebuf[i]);
8000045c:	00094583          	lbu	a1,0(s2)
80000460:	bbd9                	j	80000236 <_write+0x5e>
C:\Users\ming\Desktop\i2c\Debug/../hbird_sdk/SoC/hbirdv2/Common/Source/Stubs/write.c:11
        return -1;
80000462:	557d                	li	a0,-1
80000464:	b589                	j	800002a6 <_write+0xce>
	...

80000468 <trap_entry>:
trap_entry():
C:\Users\ming\Desktop\i2c\Debug/../hbird_sdk/SoC/hbirdv2/Common/Source/GCC/intexc_hbirdv2.S:159
.align 2
.global trap_entry
.weak trap_entry
trap_entry:
    /* Save the caller saving registers (context) */
    SAVE_CONTEXT
80000468:	715d                	addi	sp,sp,-80
8000046a:	c006                	sw	ra,0(sp)
8000046c:	c212                	sw	tp,4(sp)
8000046e:	c416                	sw	t0,8(sp)
80000470:	c61a                	sw	t1,12(sp)
80000472:	c81e                	sw	t2,16(sp)
80000474:	ca2a                	sw	a0,20(sp)
80000476:	cc2e                	sw	a1,24(sp)
80000478:	ce32                	sw	a2,28(sp)
8000047a:	d036                	sw	a3,32(sp)
8000047c:	d23a                	sw	a4,36(sp)
8000047e:	d43e                	sw	a5,40(sp)
80000480:	dc42                	sw	a6,56(sp)
80000482:	de46                	sw	a7,60(sp)
80000484:	c0f2                	sw	t3,64(sp)
80000486:	c2f6                	sw	t4,68(sp)
80000488:	c4fa                	sw	t5,72(sp)
8000048a:	c6fe                	sw	t6,76(sp)
C:\Users\ming\Desktop\i2c\Debug/../hbird_sdk/SoC/hbirdv2/Common/Source/GCC/intexc_hbirdv2.S:161
    /* Save the necessary CSR registers */
    SAVE_CSR_CONTEXT
8000048c:	341022f3          	csrr	t0,mepc
80000490:	d616                	sw	t0,44(sp)
80000492:	342022f3          	csrr	t0,mcause
80000496:	d816                	sw	t0,48(sp)
80000498:	300022f3          	csrr	t0,mstatus
8000049c:	da16                	sw	t0,52(sp)
C:\Users\ming\Desktop\i2c\Debug/../hbird_sdk/SoC/hbirdv2/Common/Source/GCC/intexc_hbirdv2.S:168
    /*
     * Set the exception handler function arguments
     * argument 1: mcause value
     * argument 2: current stack point(SP) value
     */
    csrr a0, mcause
8000049e:	34202573          	csrr	a0,mcause
C:\Users\ming\Desktop\i2c\Debug/../hbird_sdk/SoC/hbirdv2/Common/Source/GCC/intexc_hbirdv2.S:169
    mv a1, sp
800004a2:	858a                	mv	a1,sp
C:\Users\ming\Desktop\i2c\Debug/../hbird_sdk/SoC/hbirdv2/Common/Source/GCC/intexc_hbirdv2.S:175
    /*
     * TODO: Call the trap handler function
     * By default, the function template is provided in
     * system_Device.c, you can adjust it as you want
     */
    call core_trap_handler
800004a4:	21d5                	jal	80000988 <core_trap_handler>
C:\Users\ming\Desktop\i2c\Debug/../hbird_sdk/SoC/hbirdv2/Common/Source/GCC/intexc_hbirdv2.S:178

    /* Restore the necessary CSR registers */
    RESTORE_CSR_CONTEXT
800004a6:	52b2                	lw	t0,44(sp)
800004a8:	34129073          	csrw	mepc,t0
800004ac:	52c2                	lw	t0,48(sp)
800004ae:	34229073          	csrw	mcause,t0
800004b2:	52d2                	lw	t0,52(sp)
800004b4:	30029073          	csrw	mstatus,t0
C:\Users\ming\Desktop\i2c\Debug/../hbird_sdk/SoC/hbirdv2/Common/Source/GCC/intexc_hbirdv2.S:180
    /* Restore the caller saving registers (context) */
    RESTORE_CONTEXT
800004b8:	4082                	lw	ra,0(sp)
800004ba:	4212                	lw	tp,4(sp)
800004bc:	42a2                	lw	t0,8(sp)
800004be:	4332                	lw	t1,12(sp)
800004c0:	43c2                	lw	t2,16(sp)
800004c2:	4552                	lw	a0,20(sp)
800004c4:	45e2                	lw	a1,24(sp)
800004c6:	4672                	lw	a2,28(sp)
800004c8:	5682                	lw	a3,32(sp)
800004ca:	5712                	lw	a4,36(sp)
800004cc:	57a2                	lw	a5,40(sp)
800004ce:	5862                	lw	a6,56(sp)
800004d0:	58f2                	lw	a7,60(sp)
800004d2:	4e06                	lw	t3,64(sp)
800004d4:	4e96                	lw	t4,68(sp)
800004d6:	4f26                	lw	t5,72(sp)
800004d8:	4fb6                	lw	t6,76(sp)
800004da:	6161                	addi	sp,sp,80
C:\Users\ming\Desktop\i2c\Debug/../hbird_sdk/SoC/hbirdv2/Common/Source/GCC/intexc_hbirdv2.S:183

    /* Return to regular code */
    mret
800004dc:	30200073          	mret

800004e0 <gpio_iof_config>:
gpio_iof_config():
C:\Users\ming\Desktop\i2c\Debug/../hbird_sdk/SoC/hbirdv2/Common/Source/Drivers/hbirdv2_gpio.c:5
#include "hbirdv2.h"
#include "hbirdv2_gpio.h"

int32_t gpio_iof_config(GPIO_TypeDef *gpio, uint32_t mask)
{
800004e0:	87aa                	mv	a5,a0
C:\Users\ming\Desktop\i2c\Debug/../hbird_sdk/SoC/hbirdv2/Common/Source/Drivers/hbirdv2_gpio.c:6
    if (__RARELY(gpio == NULL)) {
800004e2:	c519                	beqz	a0,800004f0 <gpio_iof_config+0x10>
C:\Users\ming\Desktop\i2c\Debug/../hbird_sdk/SoC/hbirdv2/Common/Source/Drivers/hbirdv2_gpio.c:9
        return -1;
    }
    gpio->IOFCFG |= mask;
800004e4:	4d58                	lw	a4,28(a0)
C:\Users\ming\Desktop\i2c\Debug/../hbird_sdk/SoC/hbirdv2/Common/Source/Drivers/hbirdv2_gpio.c:11

    return 0;
800004e6:	4501                	li	a0,0
C:\Users\ming\Desktop\i2c\Debug/../hbird_sdk/SoC/hbirdv2/Common/Source/Drivers/hbirdv2_gpio.c:9
    gpio->IOFCFG |= mask;
800004e8:	8dd9                	or	a1,a1,a4
800004ea:	cfcc                	sw	a1,28(a5)
C:\Users\ming\Desktop\i2c\Debug/../hbird_sdk/SoC/hbirdv2/Common/Source/Drivers/hbirdv2_gpio.c:11
    return 0;
800004ec:	8082                	ret
800004ee:	0001                	nop
C:\Users\ming\Desktop\i2c\Debug/../hbird_sdk/SoC/hbirdv2/Common/Source/Drivers/hbirdv2_gpio.c:7
        return -1;
800004f0:	557d                	li	a0,-1
C:\Users\ming\Desktop\i2c\Debug/../hbird_sdk/SoC/hbirdv2/Common/Source/Drivers/hbirdv2_gpio.c:12
}
800004f2:	8082                	ret
800004f4:	0000                	unimp
	...

800004f8 <i2c_setup>:
i2c_setup():
C:\Users\ming\Desktop\i2c\Debug/../hbird_sdk/SoC/hbirdv2/Common/Source/Drivers/hbirdv2_i2c.c:4
#include "hbirdv2.h"
#include "hbirdv2_i2c.h"

int32_t i2c_setup(I2C_TypeDef *i2c, int prescaler, int enable) {
800004f8:	87aa                	mv	a5,a0
C:\Users\ming\Desktop\i2c\Debug/../hbird_sdk/SoC/hbirdv2/Common/Source/Drivers/hbirdv2_i2c.c:6

    if (__RARELY(i2c == NULL)) {
800004fa:	c509                	beqz	a0,80000504 <i2c_setup+0xc>
C:\Users\ming\Desktop\i2c\Debug/../hbird_sdk/SoC/hbirdv2/Common/Source/Drivers/hbirdv2_i2c.c:10
        return -1;
    }

    i2c->PRE = prescaler;
800004fc:	c10c                	sw	a1,0(a0)
C:\Users\ming\Desktop\i2c\Debug/../hbird_sdk/SoC/hbirdv2/Common/Source/Drivers/hbirdv2_i2c.c:11
    i2c->CTR = enable;
800004fe:	c3d0                	sw	a2,4(a5)
C:\Users\ming\Desktop\i2c\Debug/../hbird_sdk/SoC/hbirdv2/Common/Source/Drivers/hbirdv2_i2c.c:13

    return 0;
80000500:	4501                	li	a0,0
80000502:	8082                	ret
C:\Users\ming\Desktop\i2c\Debug/../hbird_sdk/SoC/hbirdv2/Common/Source/Drivers/hbirdv2_i2c.c:7
        return -1;
80000504:	557d                	li	a0,-1
C:\Users\ming\Desktop\i2c\Debug/../hbird_sdk/SoC/hbirdv2/Common/Source/Drivers/hbirdv2_i2c.c:14
}
80000506:	8082                	ret

80000508 <i2c_send_data>:
i2c_send_data():
C:\Users\ming\Desktop\i2c\Debug/../hbird_sdk/SoC/hbirdv2/Common/Source/Drivers/hbirdv2_i2c.c:27
    while ((i2c->STATUS & I2C_STATUS_TIP) == 0); // need TIP go to 1
    while ((i2c->STATUS & I2C_STATUS_TIP) != 0); // and then go back to 0
    return !(i2c->STATUS & I2C_STATUS_RXACK); // invert since signal is active low
}

int32_t i2c_send_data(I2C_TypeDef *i2c, int value) {
80000508:	87aa                	mv	a5,a0
C:\Users\ming\Desktop\i2c\Debug/../hbird_sdk/SoC/hbirdv2/Common/Source/Drivers/hbirdv2_i2c.c:29

    if (__RARELY(i2c == NULL)) {
8000050a:	c509                	beqz	a0,80000514 <i2c_send_data+0xc>
C:\Users\ming\Desktop\i2c\Debug/../hbird_sdk/SoC/hbirdv2/Common/Source/Drivers/hbirdv2_i2c.c:35
        return -1;
    }

    i2c->TX = value;

    return 0;
8000050c:	4501                	li	a0,0
C:\Users\ming\Desktop\i2c\Debug/../hbird_sdk/SoC/hbirdv2/Common/Source/Drivers/hbirdv2_i2c.c:33
    i2c->TX = value;
8000050e:	cb8c                	sw	a1,16(a5)
C:\Users\ming\Desktop\i2c\Debug/../hbird_sdk/SoC/hbirdv2/Common/Source/Drivers/hbirdv2_i2c.c:35
    return 0;
80000510:	8082                	ret
80000512:	0001                	nop
C:\Users\ming\Desktop\i2c\Debug/../hbird_sdk/SoC/hbirdv2/Common/Source/Drivers/hbirdv2_i2c.c:30
        return -1;
80000514:	557d                	li	a0,-1
C:\Users\ming\Desktop\i2c\Debug/../hbird_sdk/SoC/hbirdv2/Common/Source/Drivers/hbirdv2_i2c.c:36
}
80000516:	8082                	ret
80000518:	0000                	unimp
	...

8000051c <i2c_send_command>:
i2c_send_command():
C:\Users\ming\Desktop\i2c\Debug/../hbird_sdk/SoC/hbirdv2/Common/Source/Drivers/hbirdv2_i2c.c:38

int32_t i2c_send_command(I2C_TypeDef *i2c, int value) {
8000051c:	87aa                	mv	a5,a0
C:\Users\ming\Desktop\i2c\Debug/../hbird_sdk/SoC/hbirdv2/Common/Source/Drivers/hbirdv2_i2c.c:40

    if (__RARELY(i2c == NULL)) {
8000051e:	c509                	beqz	a0,80000528 <i2c_send_command+0xc>
C:\Users\ming\Desktop\i2c\Debug/../hbird_sdk/SoC/hbirdv2/Common/Source/Drivers/hbirdv2_i2c.c:46
        return -1;
    }

    i2c->CMD = value;

    return 0;
80000520:	4501                	li	a0,0
C:\Users\ming\Desktop\i2c\Debug/../hbird_sdk/SoC/hbirdv2/Common/Source/Drivers/hbirdv2_i2c.c:44
    i2c->CMD = value;
80000522:	cbcc                	sw	a1,20(a5)
C:\Users\ming\Desktop\i2c\Debug/../hbird_sdk/SoC/hbirdv2/Common/Source/Drivers/hbirdv2_i2c.c:46
    return 0;
80000524:	8082                	ret
80000526:	0001                	nop
C:\Users\ming\Desktop\i2c\Debug/../hbird_sdk/SoC/hbirdv2/Common/Source/Drivers/hbirdv2_i2c.c:41
        return -1;
80000528:	557d                	li	a0,-1
C:\Users\ming\Desktop\i2c\Debug/../hbird_sdk/SoC/hbirdv2/Common/Source/Drivers/hbirdv2_i2c.c:47
}
8000052a:	8082                	ret
8000052c:	0000                	unimp
	...

80000530 <i2c_busy>:
i2c_busy():
C:\Users\ming\Desktop\i2c\Debug/../hbird_sdk/SoC/hbirdv2/Common/Source/Drivers/hbirdv2_i2c.c:69
    return i2c->RX;
}

int32_t i2c_busy(I2C_TypeDef *i2c) {

    if (__RARELY(i2c == NULL)) {
80000530:	c901                	beqz	a0,80000540 <i2c_busy+0x10>
C:\Users\ming\Desktop\i2c\Debug/../hbird_sdk/SoC/hbirdv2/Common/Source/Drivers/hbirdv2_i2c.c:73
        return -1;
    }

    return ((i2c->STATUS & I2C_STATUS_BUSY) == I2C_STATUS_BUSY);
80000532:	4548                	lw	a0,12(a0)
80000534:	00655293          	srli	t0,a0,0x6
80000538:	0012f513          	andi	a0,t0,1
8000053c:	8082                	ret
8000053e:	0001                	nop
C:\Users\ming\Desktop\i2c\Debug/../hbird_sdk/SoC/hbirdv2/Common/Source/Drivers/hbirdv2_i2c.c:70
        return -1;
80000540:	557d                	li	a0,-1
C:\Users\ming\Desktop\i2c\Debug/../hbird_sdk/SoC/hbirdv2/Common/Source/Drivers/hbirdv2_i2c.c:74
}
80000542:	8082                	ret
80000544:	0000                	unimp
	...

80000548 <uart_init>:
uart_init():
C:\Users\ming\Desktop\i2c\Debug/../hbird_sdk/SoC/hbirdv2/Common/Source/Drivers/hbirdv2_uart.c:5
#include "hbirdv2.h"
#include "hbirdv2_uart.h"

int32_t uart_init(UART_TypeDef *uart, uint32_t baudrate)
{
80000548:	87aa                	mv	a5,a0
C:\Users\ming\Desktop\i2c\Debug/../hbird_sdk/SoC/hbirdv2/Common/Source/Drivers/hbirdv2_uart.c:6
    if (__RARELY(uart == NULL)) {
8000054a:	cd1d                	beqz	a0,80000588 <uart_init+0x40>
C:\Users\ming\Desktop\i2c\Debug/../hbird_sdk/SoC/hbirdv2/Common/Source/Drivers/hbirdv2_uart.c:10
        return -1;
    }

    unsigned int uart_div = SystemCoreClock / baudrate - 1;
8000054c:	10000717          	auipc	a4,0x10000
80000550:	c8872703          	lw	a4,-888(a4) # 900001d4 <SystemCoreClock>
80000554:	02b755b3          	divu	a1,a4,a1
C:\Users\ming\Desktop\i2c\Debug/../hbird_sdk/SoC/hbirdv2/Common/Source/Drivers/hbirdv2_uart.c:11
    uart->LCR = 0x80;
80000558:	08000293          	li	t0,128
8000055c:	00552623          	sw	t0,12(a0) # 1001300c <__stack_size+0x1001280c>
C:\Users\ming\Desktop\i2c\Debug/../hbird_sdk/SoC/hbirdv2/Common/Source/Drivers/hbirdv2_uart.c:14
    uart->DLM = (uart_div >> 8) & 0xFF;
    uart->DLL = uart_div        & 0xFF;
    uart->FCR = 0xC6;
80000560:	0c600813          	li	a6,198
C:\Users\ming\Desktop\i2c\Debug/../hbird_sdk/SoC/hbirdv2/Common/Source/Drivers/hbirdv2_uart.c:15
    uart->LCR = 0x03;
80000564:	488d                	li	a7,3
C:\Users\ming\Desktop\i2c\Debug/../hbird_sdk/SoC/hbirdv2/Common/Source/Drivers/hbirdv2_uart.c:17

    return 0;
80000566:	4501                	li	a0,0
C:\Users\ming\Desktop\i2c\Debug/../hbird_sdk/SoC/hbirdv2/Common/Source/Drivers/hbirdv2_uart.c:10
    unsigned int uart_div = SystemCoreClock / baudrate - 1;
80000568:	fff58313          	addi	t1,a1,-1
C:\Users\ming\Desktop\i2c\Debug/../hbird_sdk/SoC/hbirdv2/Common/Source/Drivers/hbirdv2_uart.c:12
    uart->DLM = (uart_div >> 8) & 0xFF;
8000056c:	00835393          	srli	t2,t1,0x8
80000570:	0ff3f613          	zext.b	a2,t2
80000574:	c3d0                	sw	a2,4(a5)
C:\Users\ming\Desktop\i2c\Debug/../hbird_sdk/SoC/hbirdv2/Common/Source/Drivers/hbirdv2_uart.c:13
    uart->DLL = uart_div        & 0xFF;
80000576:	0ff37693          	zext.b	a3,t1
8000057a:	c394                	sw	a3,0(a5)
C:\Users\ming\Desktop\i2c\Debug/../hbird_sdk/SoC/hbirdv2/Common/Source/Drivers/hbirdv2_uart.c:14
    uart->FCR = 0xC6;
8000057c:	0107a423          	sw	a6,8(a5)
C:\Users\ming\Desktop\i2c\Debug/../hbird_sdk/SoC/hbirdv2/Common/Source/Drivers/hbirdv2_uart.c:15
    uart->LCR = 0x03;
80000580:	0117a623          	sw	a7,12(a5)
C:\Users\ming\Desktop\i2c\Debug/../hbird_sdk/SoC/hbirdv2/Common/Source/Drivers/hbirdv2_uart.c:17
    return 0;
80000584:	8082                	ret
80000586:	0001                	nop
C:\Users\ming\Desktop\i2c\Debug/../hbird_sdk/SoC/hbirdv2/Common/Source/Drivers/hbirdv2_uart.c:7
        return -1;
80000588:	557d                	li	a0,-1
C:\Users\ming\Desktop\i2c\Debug/../hbird_sdk/SoC/hbirdv2/Common/Source/Drivers/hbirdv2_uart.c:18
}
8000058a:	8082                	ret
8000058c:	0000                	unimp
	...

80000590 <uart_write>:
uart_write():
C:\Users\ming\Desktop\i2c\Debug/../hbird_sdk/SoC/hbirdv2/Common/Source/Drivers/hbirdv2_uart.c:67

    return 0;
}

int32_t uart_write(UART_TypeDef *uart, uint8_t val)
{
80000590:	87aa                	mv	a5,a0
C:\Users\ming\Desktop\i2c\Debug/../hbird_sdk/SoC/hbirdv2/Common/Source/Drivers/hbirdv2_uart.c:68
    if (__RARELY(uart == NULL)) {
80000592:	cd39                	beqz	a0,800005f0 <uart_write+0x60>
C:\Users\ming\Desktop\i2c\Debug/../hbird_sdk/SoC/hbirdv2/Common/Source/Drivers/hbirdv2_uart.c:73 (discriminator 1)
        return -1;
    }
#ifndef SIMULATION_SPIKE
#ifndef SIMULATION_XLSPIKE
    while ((uart->LSR & 0x20) == 0);
80000594:	4bd8                	lw	a4,20(a5)
80000596:	02077293          	andi	t0,a4,32
8000059a:	04029863          	bnez	t0,800005ea <uart_write+0x5a>
C:\Users\ming\Desktop\i2c\Debug/../hbird_sdk/SoC/hbirdv2/Common/Source/Drivers/hbirdv2_uart.c:73
8000059e:	0147a303          	lw	t1,20(a5)
800005a2:	02037393          	andi	t2,t1,32
800005a6:	04039263          	bnez	t2,800005ea <uart_write+0x5a>
800005aa:	4bc8                	lw	a0,20(a5)
800005ac:	02057613          	andi	a2,a0,32
800005b0:	ee0d                	bnez	a2,800005ea <uart_write+0x5a>
800005b2:	4bd4                	lw	a3,20(a5)
800005b4:	0206f813          	andi	a6,a3,32
800005b8:	02081963          	bnez	a6,800005ea <uart_write+0x5a>
800005bc:	0147a883          	lw	a7,20(a5)
800005c0:	0208fe13          	andi	t3,a7,32
800005c4:	020e1363          	bnez	t3,800005ea <uart_write+0x5a>
800005c8:	0147ae83          	lw	t4,20(a5)
800005cc:	020eff13          	andi	t5,t4,32
800005d0:	000f1d63          	bnez	t5,800005ea <uart_write+0x5a>
800005d4:	0147af83          	lw	t6,20(a5)
800005d8:	020ff713          	andi	a4,t6,32
800005dc:	e719                	bnez	a4,800005ea <uart_write+0x5a>
800005de:	0147a283          	lw	t0,20(a5)
800005e2:	0202f313          	andi	t1,t0,32
800005e6:	fa0307e3          	beqz	t1,80000594 <uart_write+0x4>
C:\Users\ming\Desktop\i2c\Debug/../hbird_sdk/SoC/hbirdv2/Common/Source/Drivers/hbirdv2_uart.c:80
    uart->THR = val;
#else
    extern void htif_putc(char ch);
    htif_putc(val);
#endif
    return 0;
800005ea:	4501                	li	a0,0
C:\Users\ming\Desktop\i2c\Debug/../hbird_sdk/SoC/hbirdv2/Common/Source/Drivers/hbirdv2_uart.c:75
    uart->THR = val;
800005ec:	c38c                	sw	a1,0(a5)
C:\Users\ming\Desktop\i2c\Debug/../hbird_sdk/SoC/hbirdv2/Common/Source/Drivers/hbirdv2_uart.c:80
    return 0;
800005ee:	8082                	ret
C:\Users\ming\Desktop\i2c\Debug/../hbird_sdk/SoC/hbirdv2/Common/Source/Drivers/hbirdv2_uart.c:69
        return -1;
800005f0:	557d                	li	a0,-1
C:\Users\ming\Desktop\i2c\Debug/../hbird_sdk/SoC/hbirdv2/Common/Source/Drivers/hbirdv2_uart.c:81
}
800005f2:	8082                	ret

800005f4 <uart_read>:
uart_read():
C:\Users\ming\Desktop\i2c\Debug/../hbird_sdk/SoC/hbirdv2/Common/Source/Drivers/hbirdv2_uart.c:86

uint8_t uart_read(UART_TypeDef *uart)
{
    uint32_t reg;
    if (__RARELY(uart == NULL)) {
800005f4:	c125                	beqz	a0,80000654 <uart_read+0x60>
C:\Users\ming\Desktop\i2c\Debug/../hbird_sdk/SoC/hbirdv2/Common/Source/Drivers/hbirdv2_uart.c:90 (discriminator 1)
        return -1;
    }
    
    while ((uart->LSR & 0x1) == 0);
800005f6:	495c                	lw	a5,20(a0)
800005f8:	0017f293          	andi	t0,a5,1
800005fc:	04029763          	bnez	t0,8000064a <uart_read+0x56>
C:\Users\ming\Desktop\i2c\Debug/../hbird_sdk/SoC/hbirdv2/Common/Source/Drivers/hbirdv2_uart.c:90
80000600:	01452303          	lw	t1,20(a0)
80000604:	00137393          	andi	t2,t1,1
80000608:	04039163          	bnez	t2,8000064a <uart_read+0x56>
8000060c:	494c                	lw	a1,20(a0)
8000060e:	0015f613          	andi	a2,a1,1
80000612:	ee05                	bnez	a2,8000064a <uart_read+0x56>
80000614:	4954                	lw	a3,20(a0)
80000616:	0016f713          	andi	a4,a3,1
8000061a:	eb05                	bnez	a4,8000064a <uart_read+0x56>
8000061c:	01452803          	lw	a6,20(a0)
80000620:	00187893          	andi	a7,a6,1
80000624:	02089363          	bnez	a7,8000064a <uart_read+0x56>
80000628:	01452e03          	lw	t3,20(a0)
8000062c:	001e7e93          	andi	t4,t3,1
80000630:	000e9d63          	bnez	t4,8000064a <uart_read+0x56>
80000634:	01452f03          	lw	t5,20(a0)
80000638:	001f7f93          	andi	t6,t5,1
8000063c:	000f9763          	bnez	t6,8000064a <uart_read+0x56>
80000640:	495c                	lw	a5,20(a0)
80000642:	0017f293          	andi	t0,a5,1
80000646:	fa0288e3          	beqz	t0,800005f6 <uart_read+0x2>
C:\Users\ming\Desktop\i2c\Debug/../hbird_sdk/SoC/hbirdv2/Common/Source/Drivers/hbirdv2_uart.c:91
    reg = uart->RBR;
8000064a:	4108                	lw	a0,0(a0)
C:\Users\ming\Desktop\i2c\Debug/../hbird_sdk/SoC/hbirdv2/Common/Source/Drivers/hbirdv2_uart.c:93
    
    return (uint8_t)(reg & 0xFF);
8000064c:	0ff57513          	zext.b	a0,a0
80000650:	8082                	ret
80000652:	0001                	nop
C:\Users\ming\Desktop\i2c\Debug/../hbird_sdk/SoC/hbirdv2/Common/Source/Drivers/hbirdv2_uart.c:87
        return -1;
80000654:	0ff00513          	li	a0,255
C:\Users\ming\Desktop\i2c\Debug/../hbird_sdk/SoC/hbirdv2/Common/Source/Drivers/hbirdv2_uart.c:94
}
80000658:	8082                	ret
	...

8000065c <get_cpu_freq>:
SysTimer_GetLoadValue():
C:\Users\ming\Desktop\i2c\hbird_sdk\NMSIS\Core\Include/core_feature_timer.h:106
 * - Load value is 64bits wide.
 * - \ref SysTimer_SetLoadValue
 */
__STATIC_FORCEINLINE uint64_t SysTimer_GetLoadValue(void)
{
    return SysTimer->MTIME;
8000065c:	0200c7b7          	lui	a5,0x200c
80000660:	ff87a703          	lw	a4,-8(a5) # 200bff8 <__stack_size+0x200b7f8>
80000664:	ffc7a783          	lw	a5,-4(a5)
get_cpu_freq():
C:\Users\ming\Desktop\i2c\Debug/../hbird_sdk/SoC/hbirdv2/Common/Source/hbirdv2_common.c:31
    return (delta_mcycle / delta_mtime) * mtime_freq
           + ((delta_mcycle % delta_mtime) * mtime_freq) / delta_mtime;
}

uint32_t get_cpu_freq(void)
{
80000668:	1141                	addi	sp,sp,-16
8000066a:	c606                	sw	ra,12(sp)
8000066c:	c422                	sw	s0,8(sp)
8000066e:	c226                	sw	s1,4(sp)
SysTimer_GetLoadValue():
C:\Users\ming\Desktop\i2c\hbird_sdk\NMSIS\Core\Include/core_feature_timer.h:106
80000670:	0200c637          	lui	a2,0x200c
80000674:	ff862803          	lw	a6,-8(a2) # 200bff8 <__stack_size+0x200b7f8>
80000678:	ffc62883          	lw	a7,-4(a2)
measure_cpu_freq():
C:\Users\ming\Desktop\i2c\Debug/../hbird_sdk/SoC/hbirdv2/Common/Source/hbirdv2_common.c:18
        start_mcycle = __RV_CSR_READ(CSR_MCYCLE);
8000067c:	b00026f3          	csrr	a3,mcycle
C:\Users\ming\Desktop\i2c\Debug/../hbird_sdk/SoC/hbirdv2/Common/Source/hbirdv2_common.c:19
    } while (start_mtime == tmp);
80000680:	07071a63          	bne	a4,a6,800006f4 <get_cpu_freq+0x98>
SysTimer_GetLoadValue():
C:\Users\ming\Desktop\i2c\hbird_sdk\NMSIS\Core\Include/core_feature_timer.h:106
80000684:	ff862803          	lw	a6,-8(a2)
80000688:	ffc62883          	lw	a7,-4(a2)
measure_cpu_freq():
C:\Users\ming\Desktop\i2c\Debug/../hbird_sdk/SoC/hbirdv2/Common/Source/hbirdv2_common.c:18
        start_mcycle = __RV_CSR_READ(CSR_MCYCLE);
8000068c:	b00026f3          	csrr	a3,mcycle
C:\Users\ming\Desktop\i2c\Debug/../hbird_sdk/SoC/hbirdv2/Common/Source/hbirdv2_common.c:19
    } while (start_mtime == tmp);
80000690:	07071263          	bne	a4,a6,800006f4 <get_cpu_freq+0x98>
SysTimer_GetLoadValue():
C:\Users\ming\Desktop\i2c\hbird_sdk\NMSIS\Core\Include/core_feature_timer.h:106
80000694:	ff862803          	lw	a6,-8(a2)
80000698:	ffc62883          	lw	a7,-4(a2)
measure_cpu_freq():
C:\Users\ming\Desktop\i2c\Debug/../hbird_sdk/SoC/hbirdv2/Common/Source/hbirdv2_common.c:18
        start_mcycle = __RV_CSR_READ(CSR_MCYCLE);
8000069c:	b00026f3          	csrr	a3,mcycle
C:\Users\ming\Desktop\i2c\Debug/../hbird_sdk/SoC/hbirdv2/Common/Source/hbirdv2_common.c:19
    } while (start_mtime == tmp);
800006a0:	05071a63          	bne	a4,a6,800006f4 <get_cpu_freq+0x98>
SysTimer_GetLoadValue():
C:\Users\ming\Desktop\i2c\hbird_sdk\NMSIS\Core\Include/core_feature_timer.h:106
800006a4:	ff862803          	lw	a6,-8(a2)
800006a8:	ffc62883          	lw	a7,-4(a2)
measure_cpu_freq():
C:\Users\ming\Desktop\i2c\Debug/../hbird_sdk/SoC/hbirdv2/Common/Source/hbirdv2_common.c:18
        start_mcycle = __RV_CSR_READ(CSR_MCYCLE);
800006ac:	b00026f3          	csrr	a3,mcycle
C:\Users\ming\Desktop\i2c\Debug/../hbird_sdk/SoC/hbirdv2/Common/Source/hbirdv2_common.c:19
    } while (start_mtime == tmp);
800006b0:	05071263          	bne	a4,a6,800006f4 <get_cpu_freq+0x98>
SysTimer_GetLoadValue():
C:\Users\ming\Desktop\i2c\hbird_sdk\NMSIS\Core\Include/core_feature_timer.h:106
800006b4:	ff862803          	lw	a6,-8(a2)
800006b8:	ffc62883          	lw	a7,-4(a2)
measure_cpu_freq():
C:\Users\ming\Desktop\i2c\Debug/../hbird_sdk/SoC/hbirdv2/Common/Source/hbirdv2_common.c:18
        start_mcycle = __RV_CSR_READ(CSR_MCYCLE);
800006bc:	b00026f3          	csrr	a3,mcycle
C:\Users\ming\Desktop\i2c\Debug/../hbird_sdk/SoC/hbirdv2/Common/Source/hbirdv2_common.c:19
    } while (start_mtime == tmp);
800006c0:	03071a63          	bne	a4,a6,800006f4 <get_cpu_freq+0x98>
SysTimer_GetLoadValue():
C:\Users\ming\Desktop\i2c\hbird_sdk\NMSIS\Core\Include/core_feature_timer.h:106
800006c4:	ff862803          	lw	a6,-8(a2)
800006c8:	ffc62883          	lw	a7,-4(a2)
measure_cpu_freq():
C:\Users\ming\Desktop\i2c\Debug/../hbird_sdk/SoC/hbirdv2/Common/Source/hbirdv2_common.c:18
        start_mcycle = __RV_CSR_READ(CSR_MCYCLE);
800006cc:	b00026f3          	csrr	a3,mcycle
C:\Users\ming\Desktop\i2c\Debug/../hbird_sdk/SoC/hbirdv2/Common/Source/hbirdv2_common.c:19
    } while (start_mtime == tmp);
800006d0:	03071263          	bne	a4,a6,800006f4 <get_cpu_freq+0x98>
SysTimer_GetLoadValue():
C:\Users\ming\Desktop\i2c\hbird_sdk\NMSIS\Core\Include/core_feature_timer.h:106
800006d4:	ff862803          	lw	a6,-8(a2)
800006d8:	ffc62883          	lw	a7,-4(a2)
measure_cpu_freq():
C:\Users\ming\Desktop\i2c\Debug/../hbird_sdk/SoC/hbirdv2/Common/Source/hbirdv2_common.c:18
        start_mcycle = __RV_CSR_READ(CSR_MCYCLE);
800006dc:	b00026f3          	csrr	a3,mcycle
C:\Users\ming\Desktop\i2c\Debug/../hbird_sdk/SoC/hbirdv2/Common/Source/hbirdv2_common.c:19
    } while (start_mtime == tmp);
800006e0:	01071a63          	bne	a4,a6,800006f4 <get_cpu_freq+0x98>
SysTimer_GetLoadValue():
C:\Users\ming\Desktop\i2c\hbird_sdk\NMSIS\Core\Include/core_feature_timer.h:106
800006e4:	ff862803          	lw	a6,-8(a2)
800006e8:	ffc62883          	lw	a7,-4(a2)
measure_cpu_freq():
C:\Users\ming\Desktop\i2c\Debug/../hbird_sdk/SoC/hbirdv2/Common/Source/hbirdv2_common.c:18
        start_mcycle = __RV_CSR_READ(CSR_MCYCLE);
800006ec:	b00026f3          	csrr	a3,mcycle
C:\Users\ming\Desktop\i2c\Debug/../hbird_sdk/SoC/hbirdv2/Common/Source/hbirdv2_common.c:19
    } while (start_mtime == tmp);
800006f0:	f90702e3          	beq	a4,a6,80000674 <get_cpu_freq+0x18>
SysTimer_GetLoadValue():
C:\Users\ming\Desktop\i2c\hbird_sdk\NMSIS\Core\Include/core_feature_timer.h:106
800006f4:	0200c0b7          	lui	ra,0x200c
800006f8:	ff80a283          	lw	t0,-8(ra) # 200bff8 <__stack_size+0x200b7f8>
800006fc:	ffc0a683          	lw	a3,-4(ra)
measure_cpu_freq():
C:\Users\ming\Desktop\i2c\Debug/../hbird_sdk/SoC/hbirdv2/Common/Source/hbirdv2_common.c:23
        delta_mcycle = __RV_CSR_READ(CSR_MCYCLE) - start_mcycle;
80000700:	b0002773          	csrr	a4,mcycle
C:\Users\ming\Desktop\i2c\Debug/../hbird_sdk/SoC/hbirdv2/Common/Source/hbirdv2_common.c:24
    } while (delta_mtime < n);
80000704:	06581a63          	bne	a6,t0,80000778 <get_cpu_freq+0x11c>
SysTimer_GetLoadValue():
C:\Users\ming\Desktop\i2c\hbird_sdk\NMSIS\Core\Include/core_feature_timer.h:106
80000708:	ff80a503          	lw	a0,-8(ra)
8000070c:	ffc0a583          	lw	a1,-4(ra)
measure_cpu_freq():
C:\Users\ming\Desktop\i2c\Debug/../hbird_sdk/SoC/hbirdv2/Common/Source/hbirdv2_common.c:23
        delta_mcycle = __RV_CSR_READ(CSR_MCYCLE) - start_mcycle;
80000710:	b0002773          	csrr	a4,mcycle
C:\Users\ming\Desktop\i2c\Debug/../hbird_sdk/SoC/hbirdv2/Common/Source/hbirdv2_common.c:24
    } while (delta_mtime < n);
80000714:	06a81263          	bne	a6,a0,80000778 <get_cpu_freq+0x11c>
SysTimer_GetLoadValue():
C:\Users\ming\Desktop\i2c\hbird_sdk\NMSIS\Core\Include/core_feature_timer.h:106
80000718:	ff80a303          	lw	t1,-8(ra)
8000071c:	ffc0a583          	lw	a1,-4(ra)
measure_cpu_freq():
C:\Users\ming\Desktop\i2c\Debug/../hbird_sdk/SoC/hbirdv2/Common/Source/hbirdv2_common.c:23
        delta_mcycle = __RV_CSR_READ(CSR_MCYCLE) - start_mcycle;
80000720:	b0002773          	csrr	a4,mcycle
C:\Users\ming\Desktop\i2c\Debug/../hbird_sdk/SoC/hbirdv2/Common/Source/hbirdv2_common.c:24
    } while (delta_mtime < n);
80000724:	04681a63          	bne	a6,t1,80000778 <get_cpu_freq+0x11c>
SysTimer_GetLoadValue():
C:\Users\ming\Desktop\i2c\hbird_sdk\NMSIS\Core\Include/core_feature_timer.h:106
80000728:	ff80a383          	lw	t2,-8(ra)
8000072c:	ffc0a583          	lw	a1,-4(ra)
measure_cpu_freq():
C:\Users\ming\Desktop\i2c\Debug/../hbird_sdk/SoC/hbirdv2/Common/Source/hbirdv2_common.c:23
        delta_mcycle = __RV_CSR_READ(CSR_MCYCLE) - start_mcycle;
80000730:	b0002773          	csrr	a4,mcycle
C:\Users\ming\Desktop\i2c\Debug/../hbird_sdk/SoC/hbirdv2/Common/Source/hbirdv2_common.c:24
    } while (delta_mtime < n);
80000734:	04781263          	bne	a6,t2,80000778 <get_cpu_freq+0x11c>
SysTimer_GetLoadValue():
C:\Users\ming\Desktop\i2c\hbird_sdk\NMSIS\Core\Include/core_feature_timer.h:106
80000738:	ff80a403          	lw	s0,-8(ra)
8000073c:	ffc0a583          	lw	a1,-4(ra)
measure_cpu_freq():
C:\Users\ming\Desktop\i2c\Debug/../hbird_sdk/SoC/hbirdv2/Common/Source/hbirdv2_common.c:23
        delta_mcycle = __RV_CSR_READ(CSR_MCYCLE) - start_mcycle;
80000740:	b0002773          	csrr	a4,mcycle
C:\Users\ming\Desktop\i2c\Debug/../hbird_sdk/SoC/hbirdv2/Common/Source/hbirdv2_common.c:24
    } while (delta_mtime < n);
80000744:	02881a63          	bne	a6,s0,80000778 <get_cpu_freq+0x11c>
SysTimer_GetLoadValue():
C:\Users\ming\Desktop\i2c\hbird_sdk\NMSIS\Core\Include/core_feature_timer.h:106
80000748:	ff80a483          	lw	s1,-8(ra)
8000074c:	ffc0a583          	lw	a1,-4(ra)
measure_cpu_freq():
C:\Users\ming\Desktop\i2c\Debug/../hbird_sdk/SoC/hbirdv2/Common/Source/hbirdv2_common.c:23
        delta_mcycle = __RV_CSR_READ(CSR_MCYCLE) - start_mcycle;
80000750:	b0002773          	csrr	a4,mcycle
C:\Users\ming\Desktop\i2c\Debug/../hbird_sdk/SoC/hbirdv2/Common/Source/hbirdv2_common.c:24
    } while (delta_mtime < n);
80000754:	02981263          	bne	a6,s1,80000778 <get_cpu_freq+0x11c>
SysTimer_GetLoadValue():
C:\Users\ming\Desktop\i2c\hbird_sdk\NMSIS\Core\Include/core_feature_timer.h:106
80000758:	ff80a683          	lw	a3,-8(ra)
8000075c:	ffc0a583          	lw	a1,-4(ra)
measure_cpu_freq():
C:\Users\ming\Desktop\i2c\Debug/../hbird_sdk/SoC/hbirdv2/Common/Source/hbirdv2_common.c:23
        delta_mcycle = __RV_CSR_READ(CSR_MCYCLE) - start_mcycle;
80000760:	b0002773          	csrr	a4,mcycle
C:\Users\ming\Desktop\i2c\Debug/../hbird_sdk/SoC/hbirdv2/Common/Source/hbirdv2_common.c:24
    } while (delta_mtime < n);
80000764:	00d81a63          	bne	a6,a3,80000778 <get_cpu_freq+0x11c>
SysTimer_GetLoadValue():
C:\Users\ming\Desktop\i2c\hbird_sdk\NMSIS\Core\Include/core_feature_timer.h:106
80000768:	ff80a883          	lw	a7,-8(ra)
8000076c:	ffc0a583          	lw	a1,-4(ra)
measure_cpu_freq():
C:\Users\ming\Desktop\i2c\Debug/../hbird_sdk/SoC/hbirdv2/Common/Source/hbirdv2_common.c:23
        delta_mcycle = __RV_CSR_READ(CSR_MCYCLE) - start_mcycle;
80000770:	b0002773          	csrr	a4,mcycle
C:\Users\ming\Desktop\i2c\Debug/../hbird_sdk/SoC/hbirdv2/Common/Source/hbirdv2_common.c:24
    } while (delta_mtime < n);
80000774:	f91802e3          	beq	a6,a7,800006f8 <get_cpu_freq+0x9c>
SysTimer_GetLoadValue():
C:\Users\ming\Desktop\i2c\hbird_sdk\NMSIS\Core\Include/core_feature_timer.h:106
80000778:	ff80a683          	lw	a3,-8(ra)
8000077c:	ffc0a783          	lw	a5,-4(ra)
80000780:	0200c5b7          	lui	a1,0x200c
measure_cpu_freq():
C:\Users\ming\Desktop\i2c\Debug/../hbird_sdk/SoC/hbirdv2/Common/Source/hbirdv2_common.c:15
    uint32_t tmp = (uint32_t)SysTimer_GetLoadValue();
80000784:	8e36                	mv	t3,a3
SysTimer_GetLoadValue():
C:\Users\ming\Desktop\i2c\hbird_sdk\NMSIS\Core\Include/core_feature_timer.h:106
80000786:	ff85ae83          	lw	t4,-8(a1) # 200bff8 <__stack_size+0x200b7f8>
8000078a:	ffc5a783          	lw	a5,-4(a1)
measure_cpu_freq():
C:\Users\ming\Desktop\i2c\Debug/../hbird_sdk/SoC/hbirdv2/Common/Source/hbirdv2_common.c:18
        start_mcycle = __RV_CSR_READ(CSR_MCYCLE);
8000078e:	b0002f73          	csrr	t5,mcycle
C:\Users\ming\Desktop\i2c\Debug/../hbird_sdk/SoC/hbirdv2/Common/Source/hbirdv2_common.c:19
    } while (start_mtime == tmp);
80000792:	07de1b63          	bne	t3,t4,80000808 <get_cpu_freq+0x1ac>
SysTimer_GetLoadValue():
C:\Users\ming\Desktop\i2c\hbird_sdk\NMSIS\Core\Include/core_feature_timer.h:106
80000796:	ff85ae83          	lw	t4,-8(a1)
8000079a:	ffc5a783          	lw	a5,-4(a1)
measure_cpu_freq():
C:\Users\ming\Desktop\i2c\Debug/../hbird_sdk/SoC/hbirdv2/Common/Source/hbirdv2_common.c:18
        start_mcycle = __RV_CSR_READ(CSR_MCYCLE);
8000079e:	b0002f73          	csrr	t5,mcycle
C:\Users\ming\Desktop\i2c\Debug/../hbird_sdk/SoC/hbirdv2/Common/Source/hbirdv2_common.c:19
    } while (start_mtime == tmp);
800007a2:	07de1363          	bne	t3,t4,80000808 <get_cpu_freq+0x1ac>
SysTimer_GetLoadValue():
C:\Users\ming\Desktop\i2c\hbird_sdk\NMSIS\Core\Include/core_feature_timer.h:106
800007a6:	ff85ae83          	lw	t4,-8(a1)
800007aa:	ffc5a783          	lw	a5,-4(a1)
measure_cpu_freq():
C:\Users\ming\Desktop\i2c\Debug/../hbird_sdk/SoC/hbirdv2/Common/Source/hbirdv2_common.c:18
        start_mcycle = __RV_CSR_READ(CSR_MCYCLE);
800007ae:	b0002f73          	csrr	t5,mcycle
C:\Users\ming\Desktop\i2c\Debug/../hbird_sdk/SoC/hbirdv2/Common/Source/hbirdv2_common.c:19
    } while (start_mtime == tmp);
800007b2:	05de1b63          	bne	t3,t4,80000808 <get_cpu_freq+0x1ac>
SysTimer_GetLoadValue():
C:\Users\ming\Desktop\i2c\hbird_sdk\NMSIS\Core\Include/core_feature_timer.h:106
800007b6:	ff85ae83          	lw	t4,-8(a1)
800007ba:	ffc5a783          	lw	a5,-4(a1)
measure_cpu_freq():
C:\Users\ming\Desktop\i2c\Debug/../hbird_sdk/SoC/hbirdv2/Common/Source/hbirdv2_common.c:18
        start_mcycle = __RV_CSR_READ(CSR_MCYCLE);
800007be:	b0002f73          	csrr	t5,mcycle
C:\Users\ming\Desktop\i2c\Debug/../hbird_sdk/SoC/hbirdv2/Common/Source/hbirdv2_common.c:19
    } while (start_mtime == tmp);
800007c2:	05de1363          	bne	t3,t4,80000808 <get_cpu_freq+0x1ac>
SysTimer_GetLoadValue():
C:\Users\ming\Desktop\i2c\hbird_sdk\NMSIS\Core\Include/core_feature_timer.h:106
800007c6:	ff85ae83          	lw	t4,-8(a1)
800007ca:	ffc5a783          	lw	a5,-4(a1)
measure_cpu_freq():
C:\Users\ming\Desktop\i2c\Debug/../hbird_sdk/SoC/hbirdv2/Common/Source/hbirdv2_common.c:18
        start_mcycle = __RV_CSR_READ(CSR_MCYCLE);
800007ce:	b0002f73          	csrr	t5,mcycle
C:\Users\ming\Desktop\i2c\Debug/../hbird_sdk/SoC/hbirdv2/Common/Source/hbirdv2_common.c:19
    } while (start_mtime == tmp);
800007d2:	03de1b63          	bne	t3,t4,80000808 <get_cpu_freq+0x1ac>
SysTimer_GetLoadValue():
C:\Users\ming\Desktop\i2c\hbird_sdk\NMSIS\Core\Include/core_feature_timer.h:106
800007d6:	ff85ae83          	lw	t4,-8(a1)
800007da:	ffc5a783          	lw	a5,-4(a1)
measure_cpu_freq():
C:\Users\ming\Desktop\i2c\Debug/../hbird_sdk/SoC/hbirdv2/Common/Source/hbirdv2_common.c:18
        start_mcycle = __RV_CSR_READ(CSR_MCYCLE);
800007de:	b0002f73          	csrr	t5,mcycle
C:\Users\ming\Desktop\i2c\Debug/../hbird_sdk/SoC/hbirdv2/Common/Source/hbirdv2_common.c:19
    } while (start_mtime == tmp);
800007e2:	03de1363          	bne	t3,t4,80000808 <get_cpu_freq+0x1ac>
SysTimer_GetLoadValue():
C:\Users\ming\Desktop\i2c\hbird_sdk\NMSIS\Core\Include/core_feature_timer.h:106
800007e6:	ff85ae83          	lw	t4,-8(a1)
800007ea:	ffc5a783          	lw	a5,-4(a1)
measure_cpu_freq():
C:\Users\ming\Desktop\i2c\Debug/../hbird_sdk/SoC/hbirdv2/Common/Source/hbirdv2_common.c:18
        start_mcycle = __RV_CSR_READ(CSR_MCYCLE);
800007ee:	b0002f73          	csrr	t5,mcycle
C:\Users\ming\Desktop\i2c\Debug/../hbird_sdk/SoC/hbirdv2/Common/Source/hbirdv2_common.c:19
    } while (start_mtime == tmp);
800007f2:	01de1b63          	bne	t3,t4,80000808 <get_cpu_freq+0x1ac>
SysTimer_GetLoadValue():
C:\Users\ming\Desktop\i2c\hbird_sdk\NMSIS\Core\Include/core_feature_timer.h:106
800007f6:	ff85ae83          	lw	t4,-8(a1)
800007fa:	ffc5a783          	lw	a5,-4(a1)
measure_cpu_freq():
C:\Users\ming\Desktop\i2c\Debug/../hbird_sdk/SoC/hbirdv2/Common/Source/hbirdv2_common.c:18
        start_mcycle = __RV_CSR_READ(CSR_MCYCLE);
800007fe:	b0002f73          	csrr	t5,mcycle
C:\Users\ming\Desktop\i2c\Debug/../hbird_sdk/SoC/hbirdv2/Common/Source/hbirdv2_common.c:19
    } while (start_mtime == tmp);
80000802:	f9de02e3          	beq	t3,t4,80000786 <get_cpu_freq+0x12a>
80000806:	0001                	nop
SysTimer_GetLoadValue():
C:\Users\ming\Desktop\i2c\hbird_sdk\NMSIS\Core\Include/core_feature_timer.h:106
80000808:	0200cfb7          	lui	t6,0x200c
measure_cpu_freq():
C:\Users\ming\Desktop\i2c\Debug/../hbird_sdk/SoC/hbirdv2/Common/Source/hbirdv2_common.c:24
    } while (delta_mtime < n);
8000080c:	06300713          	li	a4,99
SysTimer_GetLoadValue():
C:\Users\ming\Desktop\i2c\hbird_sdk\NMSIS\Core\Include/core_feature_timer.h:106
80000810:	ff8fa783          	lw	a5,-8(t6) # 200bff8 <__stack_size+0x200b7f8>
80000814:	ffcfa683          	lw	a3,-4(t6)
measure_cpu_freq():
C:\Users\ming\Desktop\i2c\Debug/../hbird_sdk/SoC/hbirdv2/Common/Source/hbirdv2_common.c:22
        delta_mtime = (uint32_t)SysTimer_GetLoadValue() - start_mtime;
80000818:	41d78433          	sub	s0,a5,t4
C:\Users\ming\Desktop\i2c\Debug/../hbird_sdk/SoC/hbirdv2/Common/Source/hbirdv2_common.c:23
        delta_mcycle = __RV_CSR_READ(CSR_MCYCLE) - start_mcycle;
8000081c:	b00024f3          	csrr	s1,mcycle
C:\Users\ming\Desktop\i2c\Debug/../hbird_sdk/SoC/hbirdv2/Common/Source/hbirdv2_common.c:24
    } while (delta_mtime < n);
80000820:	08876863          	bltu	a4,s0,800008b0 <get_cpu_freq+0x254>
SysTimer_GetLoadValue():
C:\Users\ming\Desktop\i2c\hbird_sdk\NMSIS\Core\Include/core_feature_timer.h:106
80000824:	ff8fa603          	lw	a2,-8(t6)
80000828:	ffcfa683          	lw	a3,-4(t6)
measure_cpu_freq():
C:\Users\ming\Desktop\i2c\Debug/../hbird_sdk/SoC/hbirdv2/Common/Source/hbirdv2_common.c:22
        delta_mtime = (uint32_t)SysTimer_GetLoadValue() - start_mtime;
8000082c:	41d60433          	sub	s0,a2,t4
C:\Users\ming\Desktop\i2c\Debug/../hbird_sdk/SoC/hbirdv2/Common/Source/hbirdv2_common.c:23
        delta_mcycle = __RV_CSR_READ(CSR_MCYCLE) - start_mcycle;
80000830:	b00024f3          	csrr	s1,mcycle
C:\Users\ming\Desktop\i2c\Debug/../hbird_sdk/SoC/hbirdv2/Common/Source/hbirdv2_common.c:24
    } while (delta_mtime < n);
80000834:	06876e63          	bltu	a4,s0,800008b0 <get_cpu_freq+0x254>
SysTimer_GetLoadValue():
C:\Users\ming\Desktop\i2c\hbird_sdk\NMSIS\Core\Include/core_feature_timer.h:106
80000838:	ff8fa803          	lw	a6,-8(t6)
8000083c:	ffcfa683          	lw	a3,-4(t6)
measure_cpu_freq():
C:\Users\ming\Desktop\i2c\Debug/../hbird_sdk/SoC/hbirdv2/Common/Source/hbirdv2_common.c:22
        delta_mtime = (uint32_t)SysTimer_GetLoadValue() - start_mtime;
80000840:	41d80433          	sub	s0,a6,t4
C:\Users\ming\Desktop\i2c\Debug/../hbird_sdk/SoC/hbirdv2/Common/Source/hbirdv2_common.c:23
        delta_mcycle = __RV_CSR_READ(CSR_MCYCLE) - start_mcycle;
80000844:	b00024f3          	csrr	s1,mcycle
C:\Users\ming\Desktop\i2c\Debug/../hbird_sdk/SoC/hbirdv2/Common/Source/hbirdv2_common.c:24
    } while (delta_mtime < n);
80000848:	06876463          	bltu	a4,s0,800008b0 <get_cpu_freq+0x254>
SysTimer_GetLoadValue():
C:\Users\ming\Desktop\i2c\hbird_sdk\NMSIS\Core\Include/core_feature_timer.h:106
8000084c:	ff8fa083          	lw	ra,-8(t6)
80000850:	ffcfa683          	lw	a3,-4(t6)
measure_cpu_freq():
C:\Users\ming\Desktop\i2c\Debug/../hbird_sdk/SoC/hbirdv2/Common/Source/hbirdv2_common.c:22
        delta_mtime = (uint32_t)SysTimer_GetLoadValue() - start_mtime;
80000854:	41d08433          	sub	s0,ra,t4
C:\Users\ming\Desktop\i2c\Debug/../hbird_sdk/SoC/hbirdv2/Common/Source/hbirdv2_common.c:23
        delta_mcycle = __RV_CSR_READ(CSR_MCYCLE) - start_mcycle;
80000858:	b00024f3          	csrr	s1,mcycle
C:\Users\ming\Desktop\i2c\Debug/../hbird_sdk/SoC/hbirdv2/Common/Source/hbirdv2_common.c:24
    } while (delta_mtime < n);
8000085c:	04876a63          	bltu	a4,s0,800008b0 <get_cpu_freq+0x254>
SysTimer_GetLoadValue():
C:\Users\ming\Desktop\i2c\hbird_sdk\NMSIS\Core\Include/core_feature_timer.h:106
80000860:	ff8fa283          	lw	t0,-8(t6)
80000864:	ffcfa683          	lw	a3,-4(t6)
measure_cpu_freq():
C:\Users\ming\Desktop\i2c\Debug/../hbird_sdk/SoC/hbirdv2/Common/Source/hbirdv2_common.c:22
        delta_mtime = (uint32_t)SysTimer_GetLoadValue() - start_mtime;
80000868:	41d28433          	sub	s0,t0,t4
C:\Users\ming\Desktop\i2c\Debug/../hbird_sdk/SoC/hbirdv2/Common/Source/hbirdv2_common.c:23
        delta_mcycle = __RV_CSR_READ(CSR_MCYCLE) - start_mcycle;
8000086c:	b00024f3          	csrr	s1,mcycle
C:\Users\ming\Desktop\i2c\Debug/../hbird_sdk/SoC/hbirdv2/Common/Source/hbirdv2_common.c:24
    } while (delta_mtime < n);
80000870:	04876063          	bltu	a4,s0,800008b0 <get_cpu_freq+0x254>
SysTimer_GetLoadValue():
C:\Users\ming\Desktop\i2c\hbird_sdk\NMSIS\Core\Include/core_feature_timer.h:106
80000874:	ff8fa503          	lw	a0,-8(t6)
80000878:	ffcfa683          	lw	a3,-4(t6)
measure_cpu_freq():
C:\Users\ming\Desktop\i2c\Debug/../hbird_sdk/SoC/hbirdv2/Common/Source/hbirdv2_common.c:22
        delta_mtime = (uint32_t)SysTimer_GetLoadValue() - start_mtime;
8000087c:	41d50433          	sub	s0,a0,t4
C:\Users\ming\Desktop\i2c\Debug/../hbird_sdk/SoC/hbirdv2/Common/Source/hbirdv2_common.c:23
        delta_mcycle = __RV_CSR_READ(CSR_MCYCLE) - start_mcycle;
80000880:	b00024f3          	csrr	s1,mcycle
C:\Users\ming\Desktop\i2c\Debug/../hbird_sdk/SoC/hbirdv2/Common/Source/hbirdv2_common.c:24
    } while (delta_mtime < n);
80000884:	02876663          	bltu	a4,s0,800008b0 <get_cpu_freq+0x254>
SysTimer_GetLoadValue():
C:\Users\ming\Desktop\i2c\hbird_sdk\NMSIS\Core\Include/core_feature_timer.h:106
80000888:	ff8fa303          	lw	t1,-8(t6)
8000088c:	ffcfa683          	lw	a3,-4(t6)
measure_cpu_freq():
C:\Users\ming\Desktop\i2c\Debug/../hbird_sdk/SoC/hbirdv2/Common/Source/hbirdv2_common.c:22
        delta_mtime = (uint32_t)SysTimer_GetLoadValue() - start_mtime;
80000890:	41d30433          	sub	s0,t1,t4
C:\Users\ming\Desktop\i2c\Debug/../hbird_sdk/SoC/hbirdv2/Common/Source/hbirdv2_common.c:23
        delta_mcycle = __RV_CSR_READ(CSR_MCYCLE) - start_mcycle;
80000894:	b00024f3          	csrr	s1,mcycle
C:\Users\ming\Desktop\i2c\Debug/../hbird_sdk/SoC/hbirdv2/Common/Source/hbirdv2_common.c:24
    } while (delta_mtime < n);
80000898:	00876c63          	bltu	a4,s0,800008b0 <get_cpu_freq+0x254>
SysTimer_GetLoadValue():
C:\Users\ming\Desktop\i2c\hbird_sdk\NMSIS\Core\Include/core_feature_timer.h:106
8000089c:	ff8fa383          	lw	t2,-8(t6)
800008a0:	ffcfa683          	lw	a3,-4(t6)
measure_cpu_freq():
C:\Users\ming\Desktop\i2c\Debug/../hbird_sdk/SoC/hbirdv2/Common/Source/hbirdv2_common.c:22
        delta_mtime = (uint32_t)SysTimer_GetLoadValue() - start_mtime;
800008a4:	41d38433          	sub	s0,t2,t4
C:\Users\ming\Desktop\i2c\Debug/../hbird_sdk/SoC/hbirdv2/Common/Source/hbirdv2_common.c:23
        delta_mcycle = __RV_CSR_READ(CSR_MCYCLE) - start_mcycle;
800008a8:	b00024f3          	csrr	s1,mcycle
C:\Users\ming\Desktop\i2c\Debug/../hbird_sdk/SoC/hbirdv2/Common/Source/hbirdv2_common.c:24
    } while (delta_mtime < n);
800008ac:	f68772e3          	bgeu	a4,s0,80000810 <get_cpu_freq+0x1b4>
C:\Users\ming\Desktop\i2c\Debug/../hbird_sdk/SoC/hbirdv2/Common/Source/hbirdv2_common.c:23
        delta_mcycle = __RV_CSR_READ(CSR_MCYCLE) - start_mcycle;
800008b0:	41e484b3          	sub	s1,s1,t5
C:\Users\ming\Desktop\i2c\Debug/../hbird_sdk/SoC/hbirdv2/Common/Source/hbirdv2_common.c:27
           + ((delta_mcycle % delta_mtime) * mtime_freq) / delta_mtime;
800008b4:	0284f8b3          	remu	a7,s1,s0
800008b8:	8622                	mv	a2,s0
800008ba:	4681                	li	a3,0
800008bc:	00f89513          	slli	a0,a7,0xf
800008c0:	0118d593          	srli	a1,a7,0x11
800008c4:	6a3020ef          	jal	ra,80003766 <__udivdi3>
C:\Users\ming\Desktop\i2c\Debug/../hbird_sdk/SoC/hbirdv2/Common/Source/hbirdv2_common.c:26
    return (delta_mcycle / delta_mtime) * mtime_freq
800008c8:	0284d6b3          	divu	a3,s1,s0
get_cpu_freq():
C:\Users\ming\Desktop\i2c\Debug/../hbird_sdk/SoC/hbirdv2/Common/Source/hbirdv2_common.c:40
    measure_cpu_freq(1);
    // measure for real
    cpu_freq = measure_cpu_freq(100);

    return cpu_freq;
}
800008cc:	40b2                	lw	ra,12(sp)
800008ce:	4422                	lw	s0,8(sp)
800008d0:	4492                	lw	s1,4(sp)
800008d2:	0141                	addi	sp,sp,16
measure_cpu_freq():
C:\Users\ming\Desktop\i2c\Debug/../hbird_sdk/SoC/hbirdv2/Common/Source/hbirdv2_common.c:27
           + ((delta_mcycle % delta_mtime) * mtime_freq) / delta_mtime;
800008d4:	00f69593          	slli	a1,a3,0xf
get_cpu_freq():
C:\Users\ming\Desktop\i2c\Debug/../hbird_sdk/SoC/hbirdv2/Common/Source/hbirdv2_common.c:40
}
800008d8:	952e                	add	a0,a0,a1
800008da:	8082                	ret
800008dc:	0000                	unimp
	...

800008e0 <system_default_exception_handler>:
system_default_exception_handler():
C:\Users\ming\Desktop\i2c\Debug/../hbird_sdk/SoC/hbirdv2/Common/Source/system_hbirdv2.c:168
 * \details
 * This function provided a default exception handling code for all exception ids.
 * By default, It will just print some information for debug, Vendor can customize it according to its requirements.
 */
static void system_default_exception_handler(unsigned long mcause, unsigned long sp)
{
800008e0:	1141                	addi	sp,sp,-16
800008e2:	c422                	sw	s0,8(sp)
800008e4:	842a                	mv	s0,a0
C:\Users\ming\Desktop\i2c\Debug/../hbird_sdk/SoC/hbirdv2/Common/Source/system_hbirdv2.c:170
    /* TODO: Uncomment this if you have implement printf function */
    printf("Trap in Exception\r\n");
800008e6:	00008517          	auipc	a0,0x8
800008ea:	fba50513          	addi	a0,a0,-70 # 800088a0 <__clzsi2+0x42>
C:\Users\ming\Desktop\i2c\Debug/../hbird_sdk/SoC/hbirdv2/Common/Source/system_hbirdv2.c:168
{
800008ee:	c606                	sw	ra,12(sp)
C:\Users\ming\Desktop\i2c\Debug/../hbird_sdk/SoC/hbirdv2/Common/Source/system_hbirdv2.c:170
    printf("Trap in Exception\r\n");
800008f0:	575030ef          	jal	ra,80004664 <puts>
C:\Users\ming\Desktop\i2c\Debug/../hbird_sdk/SoC/hbirdv2/Common/Source/system_hbirdv2.c:171
    printf("MCAUSE: 0x%lx\r\n", mcause);
800008f4:	85a2                	mv	a1,s0
800008f6:	00008517          	auipc	a0,0x8
800008fa:	fbe50513          	addi	a0,a0,-66 # 800088b4 <__clzsi2+0x56>
800008fe:	449030ef          	jal	ra,80004546 <iprintf>
C:\Users\ming\Desktop\i2c\Debug/../hbird_sdk/SoC/hbirdv2/Common/Source/system_hbirdv2.c:172
    printf("MEPC  : 0x%lx\r\n", __RV_CSR_READ(CSR_MEPC));
80000902:	341025f3          	csrr	a1,mepc
80000906:	00008517          	auipc	a0,0x8
8000090a:	fbe50513          	addi	a0,a0,-66 # 800088c4 <__clzsi2+0x66>
8000090e:	439030ef          	jal	ra,80004546 <iprintf>
C:\Users\ming\Desktop\i2c\Debug/../hbird_sdk/SoC/hbirdv2/Common/Source/system_hbirdv2.c:173
    printf("MTVAL : 0x%lx\r\n", __RV_CSR_READ(CSR_MBADADDR));
80000912:	343025f3          	csrr	a1,mtval
80000916:	00008517          	auipc	a0,0x8
8000091a:	fbe50513          	addi	a0,a0,-66 # 800088d4 <__clzsi2+0x76>
8000091e:	429030ef          	jal	ra,80004546 <iprintf>
80000922:	a001                	j	80000922 <system_default_exception_handler+0x42>
80000924:	0000                	unimp
	...

80000928 <system_default_interrupt_handler>:
system_default_interrupt_handler():
C:\Users\ming\Desktop\i2c\Debug/../hbird_sdk/SoC/hbirdv2/Common/Source/system_hbirdv2.c:183
 * \brief      System Default Interrupt Handler
 * \details
 * This function provided a default interrupt handling code for all interrupt ids.
 */
static void system_default_interrupt_handler(unsigned long mcause, unsigned long sp)
{
80000928:	1141                	addi	sp,sp,-16
8000092a:	c422                	sw	s0,8(sp)
8000092c:	842a                	mv	s0,a0
C:\Users\ming\Desktop\i2c\Debug/../hbird_sdk/SoC/hbirdv2/Common/Source/system_hbirdv2.c:185
    /* TODO: Uncomment this if you have implement printf function */
    printf("Trap in Interrupt\r\n");
8000092e:	00008517          	auipc	a0,0x8
80000932:	fb650513          	addi	a0,a0,-74 # 800088e4 <__clzsi2+0x86>
C:\Users\ming\Desktop\i2c\Debug/../hbird_sdk/SoC/hbirdv2/Common/Source/system_hbirdv2.c:183
{
80000936:	c606                	sw	ra,12(sp)
C:\Users\ming\Desktop\i2c\Debug/../hbird_sdk/SoC/hbirdv2/Common/Source/system_hbirdv2.c:185
    printf("Trap in Interrupt\r\n");
80000938:	52d030ef          	jal	ra,80004664 <puts>
C:\Users\ming\Desktop\i2c\Debug/../hbird_sdk/SoC/hbirdv2/Common/Source/system_hbirdv2.c:186
    printf("MCAUSE: 0x%lx\r\n", mcause);
8000093c:	85a2                	mv	a1,s0
8000093e:	00008517          	auipc	a0,0x8
80000942:	f7650513          	addi	a0,a0,-138 # 800088b4 <__clzsi2+0x56>
80000946:	401030ef          	jal	ra,80004546 <iprintf>
C:\Users\ming\Desktop\i2c\Debug/../hbird_sdk/SoC/hbirdv2/Common/Source/system_hbirdv2.c:187
    printf("MEPC  : 0x%lx\r\n", __RV_CSR_READ(CSR_MEPC));
8000094a:	341025f3          	csrr	a1,mepc
8000094e:	00008517          	auipc	a0,0x8
80000952:	f7650513          	addi	a0,a0,-138 # 800088c4 <__clzsi2+0x66>
80000956:	3f1030ef          	jal	ra,80004546 <iprintf>
C:\Users\ming\Desktop\i2c\Debug/../hbird_sdk/SoC/hbirdv2/Common/Source/system_hbirdv2.c:188
    printf("MTVAL : 0x%lx\r\n", __RV_CSR_READ(CSR_MBADADDR));
8000095a:	343025f3          	csrr	a1,mtval
C:\Users\ming\Desktop\i2c\Debug/../hbird_sdk/SoC/hbirdv2/Common/Source/system_hbirdv2.c:189
}
8000095e:	4422                	lw	s0,8(sp)
80000960:	40b2                	lw	ra,12(sp)
C:\Users\ming\Desktop\i2c\Debug/../hbird_sdk/SoC/hbirdv2/Common/Source/system_hbirdv2.c:188
    printf("MTVAL : 0x%lx\r\n", __RV_CSR_READ(CSR_MBADADDR));
80000962:	00008517          	auipc	a0,0x8
80000966:	f7250513          	addi	a0,a0,-142 # 800088d4 <__clzsi2+0x76>
C:\Users\ming\Desktop\i2c\Debug/../hbird_sdk/SoC/hbirdv2/Common/Source/system_hbirdv2.c:189
}
8000096a:	0141                	addi	sp,sp,16
C:\Users\ming\Desktop\i2c\Debug/../hbird_sdk/SoC/hbirdv2/Common/Source/system_hbirdv2.c:188
    printf("MTVAL : 0x%lx\r\n", __RV_CSR_READ(CSR_MBADADDR));
8000096c:	3db0306f          	j	80004546 <iprintf>
80000970:	0000                	unimp
	...

80000974 <SystemInit>:
SystemInit():
C:\Users\ming\Desktop\i2c\Debug/../hbird_sdk/SoC/hbirdv2/Common/Source/system_hbirdv2.c:125
    SystemCoreClock = SYSTEM_CLOCK;
80000974:	04c4b7b7          	lui	a5,0x4c4b
80000978:	40078293          	addi	t0,a5,1024 # 4c4b400 <__stack_size+0x4c4ac00>
8000097c:	10000717          	auipc	a4,0x10000
80000980:	84572c23          	sw	t0,-1960(a4) # 900001d4 <SystemCoreClock>
C:\Users\ming\Desktop\i2c\Debug/../hbird_sdk/SoC/hbirdv2/Common/Source/system_hbirdv2.c:126
}
80000984:	8082                	ret
	...

80000988 <core_trap_handler>:
core_trap_handler():
C:\Users\ming\Desktop\i2c\Debug/../hbird_sdk/SoC/hbirdv2/Common/Source/system_hbirdv2.c:322
 * - If you want to register core exception handler, please use \ref Exception_Register_EXC
 * - If you want to register core interrupt handler, please use \ref Interrupt_Register_CoreIRQ
 * - If you want to register external interrupt handler, please use \ref Interrupt_Register_ExtIRQ
 */
uint32_t core_trap_handler(unsigned long mcause, unsigned long sp)
{
80000988:	1141                	addi	sp,sp,-16
8000098a:	c606                	sw	ra,12(sp)
8000098c:	c422                	sw	s0,8(sp)
8000098e:	87aa                	mv	a5,a0
C:\Users\ming\Desktop\i2c\Debug/../hbird_sdk/SoC/hbirdv2/Common/Source/system_hbirdv2.c:323
    if (mcause & MCAUSE_INTERRUPT) {
80000990:	02055863          	bgez	a0,800009c0 <core_trap_handler+0x38>
C:\Users\ming\Desktop\i2c\Debug/../hbird_sdk/SoC/hbirdv2/Common/Source/system_hbirdv2.c:325
        INT_HANDLER int_handler = NULL;
        uint32_t irqn = (uint32_t)(mcause & 0X00000fff);
80000994:	01451813          	slli	a6,a0,0x14
80000998:	01485893          	srli	a7,a6,0x14
C:\Users\ming\Desktop\i2c\Debug/../hbird_sdk/SoC/hbirdv2/Common/Source/system_hbirdv2.c:326
        if (irqn == IRQ_M_EXT) {
8000099c:	4e2d                	li	t3,11
8000099e:	07c88363          	beq	a7,t3,80000a04 <core_trap_handler+0x7c>
C:\Users\ming\Desktop\i2c\Debug/../hbird_sdk/SoC/hbirdv2/Common/Source/system_hbirdv2.c:338
                }
                PLIC_CompleteInterrupt(irqn);
            }
#endif
        } else {
            int_handler = (INT_HANDLER)(SystemCoreInterruptHandlers[irqn]);
800009a2:	00289e93          	slli	t4,a7,0x2
800009a6:	87818f13          	addi	t5,gp,-1928 # 90000248 <SystemCoreInterruptHandlers>
800009aa:	01df0fb3          	add	t6,t5,t4
800009ae:	000fa783          	lw	a5,0(t6)
C:\Users\ming\Desktop\i2c\Debug/../hbird_sdk/SoC/hbirdv2/Common/Source/system_hbirdv2.c:339
            if (int_handler != NULL) {
800009b2:	c391                	beqz	a5,800009b6 <core_trap_handler+0x2e>
C:\Users\ming\Desktop\i2c\Debug/../hbird_sdk/SoC/hbirdv2/Common/Source/system_hbirdv2.c:340
                int_handler(mcause, sp);
800009b4:	9782                	jalr	a5
C:\Users\ming\Desktop\i2c\Debug/../hbird_sdk/SoC/hbirdv2/Common/Source/system_hbirdv2.c:347
        }
        return 0;
    } else {
        return core_exception_handler(mcause, sp);
    }
}
800009b6:	40b2                	lw	ra,12(sp)
800009b8:	4422                	lw	s0,8(sp)
800009ba:	4501                	li	a0,0
800009bc:	0141                	addi	sp,sp,16
800009be:	8082                	ret
core_exception_handler():
C:\Users\ming\Desktop\i2c\Debug/../hbird_sdk/SoC/hbirdv2/Common/Source/system_hbirdv2.c:362
 * - For the core_exception_handler template, we provided exception register function \ref Exception_Register_EXC
 *   which can help developer to register your exception handler for specific exception number.
 */
static uint32_t core_exception_handler(unsigned long mcause, unsigned long sp)
{
    uint32_t EXCn = (uint32_t)(mcause & 0X00000fff);
800009c0:	01451693          	slli	a3,a0,0x14
800009c4:	0146d093          	srli	ra,a3,0x14
C:\Users\ming\Desktop\i2c\Debug/../hbird_sdk/SoC/hbirdv2/Common/Source/system_hbirdv2.c:365
    EXC_HANDLER exc_handler;

    if ((EXCn < MAX_SYSTEM_EXCEPTION_NUM) && (EXCn >= 0)) {
800009c8:	4629                	li	a2,10
800009ca:	872e                	mv	a4,a1
800009cc:	02166463          	bltu	a2,ra,800009f4 <core_trap_handler+0x6c>
C:\Users\ming\Desktop\i2c\Debug/../hbird_sdk/SoC/hbirdv2/Common/Source/system_hbirdv2.c:366
        exc_handler = (EXC_HANDLER)SystemExceptionHandlers[EXCn];
800009d0:	00209293          	slli	t0,ra,0x2
800009d4:	8a018393          	addi	t2,gp,-1888 # 90000270 <SystemExceptionHandlers>
800009d8:	00538433          	add	s0,t2,t0
800009dc:	00042303          	lw	t1,0(s0)
C:\Users\ming\Desktop\i2c\Debug/../hbird_sdk/SoC/hbirdv2/Common/Source/system_hbirdv2.c:370
    } else {
        exc_handler = (EXC_HANDLER)system_default_exception_handler;
    }
    if (exc_handler != NULL) {
800009e0:	fc030be3          	beqz	t1,800009b6 <core_trap_handler+0x2e>
C:\Users\ming\Desktop\i2c\Debug/../hbird_sdk/SoC/hbirdv2/Common/Source/system_hbirdv2.c:371
        exc_handler(mcause, sp);
800009e4:	85ba                	mv	a1,a4
800009e6:	853e                	mv	a0,a5
800009e8:	9302                	jalr	t1
core_trap_handler():
C:\Users\ming\Desktop\i2c\Debug/../hbird_sdk/SoC/hbirdv2/Common/Source/system_hbirdv2.c:347
}
800009ea:	40b2                	lw	ra,12(sp)
800009ec:	4422                	lw	s0,8(sp)
800009ee:	4501                	li	a0,0
800009f0:	0141                	addi	sp,sp,16
800009f2:	8082                	ret
core_exception_handler():
C:\Users\ming\Desktop\i2c\Debug/../hbird_sdk/SoC/hbirdv2/Common/Source/system_hbirdv2.c:368
        exc_handler = (EXC_HANDLER)system_default_exception_handler;
800009f4:	00000317          	auipc	t1,0x0
800009f8:	eec30313          	addi	t1,t1,-276 # 800008e0 <system_default_exception_handler>
C:\Users\ming\Desktop\i2c\Debug/../hbird_sdk/SoC/hbirdv2/Common/Source/system_hbirdv2.c:371
        exc_handler(mcause, sp);
800009fc:	85ba                	mv	a1,a4
800009fe:	853e                	mv	a0,a5
80000a00:	9302                	jalr	t1
80000a02:	b7e5                	j	800009ea <core_trap_handler+0x62>
PLIC_ClaimInterrupt():
C:\Users\ming\Desktop\i2c\hbird_sdk\NMSIS\Core\Include/core_feature_plic.h:273
 * \sa
 * - \ref PLIC_CompleteInterrupt
 */
__STATIC_FORCEINLINE uint32_t PLIC_ClaimInterrupt(void)
{
    uint32_t hartid = __RV_CSR_READ(CSR_MHARTID);
80000a04:	f1402773          	csrr	a4,mhartid
C:\Users\ming\Desktop\i2c\hbird_sdk\NMSIS\Core\Include/core_feature_plic.h:274
    volatile uint32_t *claim_reg = (uint32_t *)((PLIC_BASE) + PLIC_CLAIM_OFFSET + \
80000a08:	0c2000b7          	lui	ra,0xc200
C:\Users\ming\Desktop\i2c\hbird_sdk\NMSIS\Core\Include/core_feature_plic.h:275
                    + (hartid << PLIC_CLAIM_SHIFT_PER_TARGET));
80000a0c:	00c71693          	slli	a3,a4,0xc
C:\Users\ming\Desktop\i2c\hbird_sdk\NMSIS\Core\Include/core_feature_plic.h:274
    volatile uint32_t *claim_reg = (uint32_t *)((PLIC_BASE) + PLIC_CLAIM_OFFSET + \
80000a10:	00408613          	addi	a2,ra,4 # c200004 <__stack_size+0xc1ff804>
80000a14:	00c68333          	add	t1,a3,a2
C:\Users\ming\Desktop\i2c\hbird_sdk\NMSIS\Core\Include/core_feature_plic.h:277

    return (*claim_reg);
80000a18:	00032403          	lw	s0,0(t1)
core_trap_handler():
C:\Users\ming\Desktop\i2c\Debug/../hbird_sdk/SoC/hbirdv2/Common/Source/system_hbirdv2.c:329
            if (irqn < __PLIC_INTNUM) {
80000a1c:	42c1                	li	t0,16
80000a1e:	f882ece3          	bltu	t0,s0,800009b6 <core_trap_handler+0x2e>
C:\Users\ming\Desktop\i2c\Debug/../hbird_sdk/SoC/hbirdv2/Common/Source/system_hbirdv2.c:330
                int_handler = (INT_HANDLER)(SystemExtInterruptHandlers[irqn]);
80000a22:	00241393          	slli	t2,s0,0x2
80000a26:	8cc18813          	addi	a6,gp,-1844 # 9000029c <SystemExtInterruptHandlers>
80000a2a:	007808b3          	add	a7,a6,t2
80000a2e:	0008ae03          	lw	t3,0(a7)
C:\Users\ming\Desktop\i2c\Debug/../hbird_sdk/SoC/hbirdv2/Common/Source/system_hbirdv2.c:331
                if (int_handler != NULL) {
80000a32:	000e0363          	beqz	t3,80000a38 <core_trap_handler+0xb0>
C:\Users\ming\Desktop\i2c\Debug/../hbird_sdk/SoC/hbirdv2/Common/Source/system_hbirdv2.c:332
                    int_handler(mcause, sp);
80000a36:	9e02                	jalr	t3
PLIC_CompleteInterrupt():
C:\Users\ming\Desktop\i2c\hbird_sdk\NMSIS\Core\Include/core_feature_plic.h:298
 * \sa
 * - \ref PLIC_ClaimInterrupt
 */
__STATIC_FORCEINLINE void PLIC_CompleteInterrupt(uint32_t source)
{
    uint32_t hartid = __RV_CSR_READ(CSR_MHARTID);
80000a38:	f1402573          	csrr	a0,mhartid
C:\Users\ming\Desktop\i2c\hbird_sdk\NMSIS\Core\Include/core_feature_plic.h:299
    volatile uint32_t *complete_reg = (uint32_t *)((PLIC_BASE) + PLIC_CLAIM_OFFSET + \
80000a3c:	0c200eb7          	lui	t4,0xc200
C:\Users\ming\Desktop\i2c\hbird_sdk\NMSIS\Core\Include/core_feature_plic.h:300
                    + (hartid << PLIC_CLAIM_SHIFT_PER_TARGET));
80000a40:	00c51593          	slli	a1,a0,0xc
C:\Users\ming\Desktop\i2c\hbird_sdk\NMSIS\Core\Include/core_feature_plic.h:299
    volatile uint32_t *complete_reg = (uint32_t *)((PLIC_BASE) + PLIC_CLAIM_OFFSET + \
80000a44:	004e8f13          	addi	t5,t4,4 # c200004 <__stack_size+0xc1ff804>
80000a48:	01e58fb3          	add	t6,a1,t5
C:\Users\ming\Desktop\i2c\hbird_sdk\NMSIS\Core\Include/core_feature_plic.h:302

    *complete_reg = source;
80000a4c:	008fa023          	sw	s0,0(t6)
C:\Users\ming\Desktop\i2c\hbird_sdk\NMSIS\Core\Include/core_feature_plic.h:303
}
80000a50:	b79d                	j	800009b6 <core_trap_handler+0x2e>
	...

80000a54 <_premain_init>:
_premain_init():
C:\Users\ming\Desktop\i2c\Debug/../hbird_sdk/SoC/hbirdv2/Common/Source/system_hbirdv2.c:464
 * For RISC-V gnu toolchain, _init function might not be called
 * by __libc_init_array function, so we defined a new function
 * to do initialization
 */
void _premain_init(void)
{
80000a54:	1141                	addi	sp,sp,-16
80000a56:	c606                	sw	ra,12(sp)
80000a58:	c422                	sw	s0,8(sp)
C:\Users\ming\Desktop\i2c\Debug/../hbird_sdk/SoC/hbirdv2/Common/Source/system_hbirdv2.c:466
    /* TODO: Add your own initialization code here, called before main */
    SystemCoreClock = get_cpu_freq();
80000a5a:	3109                	jal	8000065c <get_cpu_freq>
80000a5c:	87aa                	mv	a5,a0
80000a5e:	0ffff417          	auipc	s0,0xffff
80000a62:	77640413          	addi	s0,s0,1910 # 900001d4 <SystemCoreClock>
C:\Users\ming\Desktop\i2c\Debug/../hbird_sdk/SoC/hbirdv2/Common/Source/system_hbirdv2.c:468
#if ! defined(SIMULATION_SPIKE) && ! defined(SIMULATION_XLSPIKE)
    gpio_iof_config(GPIOA, IOF_UART_MASK);
80000a66:	000305b7          	lui	a1,0x30
80000a6a:	10012537          	lui	a0,0x10012
C:\Users\ming\Desktop\i2c\Debug/../hbird_sdk/SoC/hbirdv2/Common/Source/system_hbirdv2.c:466
    SystemCoreClock = get_cpu_freq();
80000a6e:	c01c                	sw	a5,0(s0)
C:\Users\ming\Desktop\i2c\Debug/../hbird_sdk/SoC/hbirdv2/Common/Source/system_hbirdv2.c:468
    gpio_iof_config(GPIOA, IOF_UART_MASK);
80000a70:	3c85                	jal	800004e0 <gpio_iof_config>
C:\Users\ming\Desktop\i2c\Debug/../hbird_sdk/SoC/hbirdv2/Common/Source/system_hbirdv2.c:469
    uart_init(SOC_DEBUG_UART, 115200);
80000a72:	65f1                	lui	a1,0x1c
80000a74:	20058593          	addi	a1,a1,512 # 1c200 <__stack_size+0x1ba00>
80000a78:	10013537          	lui	a0,0x10013
80000a7c:	34f1                	jal	80000548 <uart_init>
SystemBannerPrint():
C:\Users\ming\Desktop\i2c\Debug/../hbird_sdk/SoC/hbirdv2/Common/Source/system_hbirdv2.c:381
    printf("HummingBird SDK Build Time: %s, %s\r\n", __DATE__, __TIME__);
80000a7e:	00008617          	auipc	a2,0x8
80000a82:	e7a60613          	addi	a2,a2,-390 # 800088f8 <__clzsi2+0x9a>
80000a86:	00008597          	auipc	a1,0x8
80000a8a:	e7e58593          	addi	a1,a1,-386 # 80008904 <__clzsi2+0xa6>
80000a8e:	00008517          	auipc	a0,0x8
80000a92:	e8250513          	addi	a0,a0,-382 # 80008910 <__clzsi2+0xb2>
80000a96:	2b1030ef          	jal	ra,80004546 <iprintf>
C:\Users\ming\Desktop\i2c\Debug/../hbird_sdk/SoC/hbirdv2/Common/Source/system_hbirdv2.c:383
    printf("Download Mode: %s\r\n", DOWNLOAD_MODE_STRING);
80000a9a:	00008597          	auipc	a1,0x8
80000a9e:	e9e58593          	addi	a1,a1,-354 # 80008938 <__clzsi2+0xda>
80000aa2:	00008517          	auipc	a0,0x8
80000aa6:	e9a50513          	addi	a0,a0,-358 # 8000893c <__clzsi2+0xde>
80000aaa:	29d030ef          	jal	ra,80004546 <iprintf>
C:\Users\ming\Desktop\i2c\Debug/../hbird_sdk/SoC/hbirdv2/Common/Source/system_hbirdv2.c:385
    printf("CPU Frequency %lu Hz\r\n", SystemCoreClock);
80000aae:	400c                	lw	a1,0(s0)
80000ab0:	00008517          	auipc	a0,0x8
80000ab4:	ea050513          	addi	a0,a0,-352 # 80008950 <__clzsi2+0xf2>
80000ab8:	28f030ef          	jal	ra,80004546 <iprintf>
Interrupt_Init():
C:\Users\ming\Desktop\i2c\Debug/../hbird_sdk/SoC/hbirdv2/Common/Source/system_hbirdv2.c:216
        SystemExtInterruptHandlers[i] = (unsigned long)system_default_interrupt_handler;
80000abc:	00000297          	auipc	t0,0x0
80000ac0:	e6c28293          	addi	t0,t0,-404 # 80000928 <system_default_interrupt_handler>
80000ac4:	8cc18713          	addi	a4,gp,-1844 # 9000029c <SystemExtInterruptHandlers>
Exception_Init():
C:\Users\ming\Desktop\i2c\Debug/../hbird_sdk/SoC/hbirdv2/Common/Source/system_hbirdv2.c:201
        SystemExceptionHandlers[i] = (unsigned long)system_default_exception_handler;
80000ac8:	00000617          	auipc	a2,0x0
80000acc:	e1860613          	addi	a2,a2,-488 # 800008e0 <system_default_exception_handler>
80000ad0:	8a018693          	addi	a3,gp,-1888 # 90000270 <SystemExceptionHandlers>
Interrupt_Init():
C:\Users\ming\Desktop\i2c\Debug/../hbird_sdk/SoC/hbirdv2/Common/Source/system_hbirdv2.c:219
        SystemCoreInterruptHandlers[i] = (unsigned long)system_default_interrupt_handler;
80000ad4:	87818313          	addi	t1,gp,-1928 # 90000248 <SystemCoreInterruptHandlers>
Exception_Init():
C:\Users\ming\Desktop\i2c\Debug/../hbird_sdk/SoC/hbirdv2/Common/Source/system_hbirdv2.c:201
        SystemExceptionHandlers[i] = (unsigned long)system_default_exception_handler;
80000ad8:	c290                	sw	a2,0(a3)
80000ada:	c2d0                	sw	a2,4(a3)
80000adc:	c690                	sw	a2,8(a3)
80000ade:	c6d0                	sw	a2,12(a3)
80000ae0:	ca90                	sw	a2,16(a3)
80000ae2:	cad0                	sw	a2,20(a3)
80000ae4:	ce90                	sw	a2,24(a3)
80000ae6:	ced0                	sw	a2,28(a3)
80000ae8:	d290                	sw	a2,32(a3)
80000aea:	d2d0                	sw	a2,36(a3)
80000aec:	d690                	sw	a2,40(a3)
Interrupt_Init():
C:\Users\ming\Desktop\i2c\Debug/../hbird_sdk/SoC/hbirdv2/Common/Source/system_hbirdv2.c:216
        SystemExtInterruptHandlers[i] = (unsigned long)system_default_interrupt_handler;
80000aee:	00572023          	sw	t0,0(a4)
80000af2:	00572223          	sw	t0,4(a4)
80000af6:	00572423          	sw	t0,8(a4)
80000afa:	00572623          	sw	t0,12(a4)
80000afe:	00572823          	sw	t0,16(a4)
80000b02:	00572a23          	sw	t0,20(a4)
80000b06:	00572c23          	sw	t0,24(a4)
80000b0a:	00572e23          	sw	t0,28(a4)
80000b0e:	02572023          	sw	t0,32(a4)
80000b12:	02572223          	sw	t0,36(a4)
80000b16:	02572423          	sw	t0,40(a4)
80000b1a:	02572623          	sw	t0,44(a4)
80000b1e:	02572823          	sw	t0,48(a4)
80000b22:	02572a23          	sw	t0,52(a4)
80000b26:	02572c23          	sw	t0,56(a4)
80000b2a:	02572e23          	sw	t0,60(a4)
80000b2e:	04572023          	sw	t0,64(a4)
C:\Users\ming\Desktop\i2c\Debug/../hbird_sdk/SoC/hbirdv2/Common/Source/system_hbirdv2.c:219
        SystemCoreInterruptHandlers[i] = (unsigned long)system_default_interrupt_handler;
80000b32:	00532023          	sw	t0,0(t1)
80000b36:	00532223          	sw	t0,4(t1)
80000b3a:	00532423          	sw	t0,8(t1)
80000b3e:	00532623          	sw	t0,12(t1)
80000b42:	00532823          	sw	t0,16(t1)
80000b46:	00532a23          	sw	t0,20(t1)
80000b4a:	00532c23          	sw	t0,24(t1)
80000b4e:	00532e23          	sw	t0,28(t1)
80000b52:	02532023          	sw	t0,32(t1)
80000b56:	02532223          	sw	t0,36(t1)
PLIC_DisableInterrupt():
C:\Users\ming\Desktop\i2c\hbird_sdk\NMSIS\Core\Include/core_feature_plic.h:191
    uint32_t hartid = __RV_CSR_READ(CSR_MHARTID);
80000b5a:	f14023f3          	csrr	t2,mhartid
C:\Users\ming\Desktop\i2c\hbird_sdk\NMSIS\Core\Include/core_feature_plic.h:193
                    (hartid << PLIC_ENABLE_SHIFT_PER_TARGET) + (source >> 5) * 4);
80000b5e:	0c002837          	lui	a6,0xc002
80000b62:	00739513          	slli	a0,t2,0x7
80000b66:	010508b3          	add	a7,a0,a6
C:\Users\ming\Desktop\i2c\hbird_sdk\NMSIS\Core\Include/core_feature_plic.h:195
    uint32_t current = *enable_reg;
80000b6a:	0008ae03          	lw	t3,0(a7)
PLIC_SetPriority():
C:\Users\ming\Desktop\i2c\hbird_sdk\NMSIS\Core\Include/core_feature_plic.h:237
    *priority_reg = priority;
80000b6e:	0c000eb7          	lui	t4,0xc000
PLIC_DisableInterrupt():
C:\Users\ming\Desktop\i2c\hbird_sdk\NMSIS\Core\Include/core_feature_plic.h:196
    current = current & (~(1<<(source&0x1F)));
80000b72:	ffee7f13          	andi	t5,t3,-2
C:\Users\ming\Desktop\i2c\hbird_sdk\NMSIS\Core\Include/core_feature_plic.h:197
    *enable_reg = current;
80000b76:	01e8a023          	sw	t5,0(a7)
PLIC_SetPriority():
C:\Users\ming\Desktop\i2c\hbird_sdk\NMSIS\Core\Include/core_feature_plic.h:237
    *priority_reg = priority;
80000b7a:	000ea023          	sw	zero,0(t4) # c000000 <__stack_size+0xbfff800>
PLIC_DisableInterrupt():
C:\Users\ming\Desktop\i2c\hbird_sdk\NMSIS\Core\Include/core_feature_plic.h:191
    uint32_t hartid = __RV_CSR_READ(CSR_MHARTID);
80000b7e:	f1402ff3          	csrr	t6,mhartid
C:\Users\ming\Desktop\i2c\hbird_sdk\NMSIS\Core\Include/core_feature_plic.h:193
                    (hartid << PLIC_ENABLE_SHIFT_PER_TARGET) + (source >> 5) * 4);
80000b82:	007f9793          	slli	a5,t6,0x7
80000b86:	01078433          	add	s0,a5,a6
C:\Users\ming\Desktop\i2c\hbird_sdk\NMSIS\Core\Include/core_feature_plic.h:195
    uint32_t current = *enable_reg;
80000b8a:	400c                	lw	a1,0(s0)
C:\Users\ming\Desktop\i2c\hbird_sdk\NMSIS\Core\Include/core_feature_plic.h:196
    current = current & (~(1<<(source&0x1F)));
80000b8c:	ffd5f613          	andi	a2,a1,-3
C:\Users\ming\Desktop\i2c\hbird_sdk\NMSIS\Core\Include/core_feature_plic.h:197
    *enable_reg = current;
80000b90:	c010                	sw	a2,0(s0)
PLIC_SetPriority():
C:\Users\ming\Desktop\i2c\hbird_sdk\NMSIS\Core\Include/core_feature_plic.h:237
    *priority_reg = priority;
80000b92:	000ea223          	sw	zero,4(t4)
PLIC_DisableInterrupt():
C:\Users\ming\Desktop\i2c\hbird_sdk\NMSIS\Core\Include/core_feature_plic.h:191
    uint32_t hartid = __RV_CSR_READ(CSR_MHARTID);
80000b96:	f14026f3          	csrr	a3,mhartid
C:\Users\ming\Desktop\i2c\hbird_sdk\NMSIS\Core\Include/core_feature_plic.h:193
                    (hartid << PLIC_ENABLE_SHIFT_PER_TARGET) + (source >> 5) * 4);
80000b9a:	00769293          	slli	t0,a3,0x7
80000b9e:	01028733          	add	a4,t0,a6
C:\Users\ming\Desktop\i2c\hbird_sdk\NMSIS\Core\Include/core_feature_plic.h:195
    uint32_t current = *enable_reg;
80000ba2:	00072303          	lw	t1,0(a4)
C:\Users\ming\Desktop\i2c\hbird_sdk\NMSIS\Core\Include/core_feature_plic.h:196
    current = current & (~(1<<(source&0x1F)));
80000ba6:	ffb37393          	andi	t2,t1,-5
C:\Users\ming\Desktop\i2c\hbird_sdk\NMSIS\Core\Include/core_feature_plic.h:197
    *enable_reg = current;
80000baa:	00772023          	sw	t2,0(a4)
PLIC_SetPriority():
C:\Users\ming\Desktop\i2c\hbird_sdk\NMSIS\Core\Include/core_feature_plic.h:237
    *priority_reg = priority;
80000bae:	000ea423          	sw	zero,8(t4)
PLIC_DisableInterrupt():
C:\Users\ming\Desktop\i2c\hbird_sdk\NMSIS\Core\Include/core_feature_plic.h:191
    uint32_t hartid = __RV_CSR_READ(CSR_MHARTID);
80000bb2:	f1402573          	csrr	a0,mhartid
C:\Users\ming\Desktop\i2c\hbird_sdk\NMSIS\Core\Include/core_feature_plic.h:193
                    (hartid << PLIC_ENABLE_SHIFT_PER_TARGET) + (source >> 5) * 4);
80000bb6:	00751893          	slli	a7,a0,0x7
80000bba:	01088e33          	add	t3,a7,a6
C:\Users\ming\Desktop\i2c\hbird_sdk\NMSIS\Core\Include/core_feature_plic.h:195
    uint32_t current = *enable_reg;
80000bbe:	000e2f03          	lw	t5,0(t3)
C:\Users\ming\Desktop\i2c\hbird_sdk\NMSIS\Core\Include/core_feature_plic.h:196
    current = current & (~(1<<(source&0x1F)));
80000bc2:	ff7f7f93          	andi	t6,t5,-9
C:\Users\ming\Desktop\i2c\hbird_sdk\NMSIS\Core\Include/core_feature_plic.h:197
    *enable_reg = current;
80000bc6:	01fe2023          	sw	t6,0(t3)
PLIC_SetPriority():
C:\Users\ming\Desktop\i2c\hbird_sdk\NMSIS\Core\Include/core_feature_plic.h:237
    *priority_reg = priority;
80000bca:	000ea623          	sw	zero,12(t4)
PLIC_DisableInterrupt():
C:\Users\ming\Desktop\i2c\hbird_sdk\NMSIS\Core\Include/core_feature_plic.h:191
    uint32_t hartid = __RV_CSR_READ(CSR_MHARTID);
80000bce:	f14027f3          	csrr	a5,mhartid
C:\Users\ming\Desktop\i2c\hbird_sdk\NMSIS\Core\Include/core_feature_plic.h:193
                    (hartid << PLIC_ENABLE_SHIFT_PER_TARGET) + (source >> 5) * 4);
80000bd2:	00779413          	slli	s0,a5,0x7
80000bd6:	010405b3          	add	a1,s0,a6
C:\Users\ming\Desktop\i2c\hbird_sdk\NMSIS\Core\Include/core_feature_plic.h:195
    uint32_t current = *enable_reg;
80000bda:	4190                	lw	a2,0(a1)
C:\Users\ming\Desktop\i2c\hbird_sdk\NMSIS\Core\Include/core_feature_plic.h:196
    current = current & (~(1<<(source&0x1F)));
80000bdc:	fef67693          	andi	a3,a2,-17
C:\Users\ming\Desktop\i2c\hbird_sdk\NMSIS\Core\Include/core_feature_plic.h:197
    *enable_reg = current;
80000be0:	c194                	sw	a3,0(a1)
PLIC_SetPriority():
C:\Users\ming\Desktop\i2c\hbird_sdk\NMSIS\Core\Include/core_feature_plic.h:237
    *priority_reg = priority;
80000be2:	000ea823          	sw	zero,16(t4)
PLIC_DisableInterrupt():
C:\Users\ming\Desktop\i2c\hbird_sdk\NMSIS\Core\Include/core_feature_plic.h:191
    uint32_t hartid = __RV_CSR_READ(CSR_MHARTID);
80000be6:	f14022f3          	csrr	t0,mhartid
C:\Users\ming\Desktop\i2c\hbird_sdk\NMSIS\Core\Include/core_feature_plic.h:193
                    (hartid << PLIC_ENABLE_SHIFT_PER_TARGET) + (source >> 5) * 4);
80000bea:	00729713          	slli	a4,t0,0x7
80000bee:	01070333          	add	t1,a4,a6
C:\Users\ming\Desktop\i2c\hbird_sdk\NMSIS\Core\Include/core_feature_plic.h:195
    uint32_t current = *enable_reg;
80000bf2:	00032383          	lw	t2,0(t1)
C:\Users\ming\Desktop\i2c\hbird_sdk\NMSIS\Core\Include/core_feature_plic.h:196
    current = current & (~(1<<(source&0x1F)));
80000bf6:	fdf3f513          	andi	a0,t2,-33
C:\Users\ming\Desktop\i2c\hbird_sdk\NMSIS\Core\Include/core_feature_plic.h:197
    *enable_reg = current;
80000bfa:	00a32023          	sw	a0,0(t1)
PLIC_SetPriority():
C:\Users\ming\Desktop\i2c\hbird_sdk\NMSIS\Core\Include/core_feature_plic.h:237
    *priority_reg = priority;
80000bfe:	000eaa23          	sw	zero,20(t4)
PLIC_DisableInterrupt():
C:\Users\ming\Desktop\i2c\hbird_sdk\NMSIS\Core\Include/core_feature_plic.h:191
    uint32_t hartid = __RV_CSR_READ(CSR_MHARTID);
80000c02:	f14028f3          	csrr	a7,mhartid
C:\Users\ming\Desktop\i2c\hbird_sdk\NMSIS\Core\Include/core_feature_plic.h:193
                    (hartid << PLIC_ENABLE_SHIFT_PER_TARGET) + (source >> 5) * 4);
80000c06:	00789e13          	slli	t3,a7,0x7
80000c0a:	010e0f33          	add	t5,t3,a6
C:\Users\ming\Desktop\i2c\hbird_sdk\NMSIS\Core\Include/core_feature_plic.h:195
    uint32_t current = *enable_reg;
80000c0e:	000f2f83          	lw	t6,0(t5)
C:\Users\ming\Desktop\i2c\hbird_sdk\NMSIS\Core\Include/core_feature_plic.h:196
    current = current & (~(1<<(source&0x1F)));
80000c12:	fbfff793          	andi	a5,t6,-65
C:\Users\ming\Desktop\i2c\hbird_sdk\NMSIS\Core\Include/core_feature_plic.h:197
    *enable_reg = current;
80000c16:	00ff2023          	sw	a5,0(t5)
PLIC_SetPriority():
C:\Users\ming\Desktop\i2c\hbird_sdk\NMSIS\Core\Include/core_feature_plic.h:237
    *priority_reg = priority;
80000c1a:	000eac23          	sw	zero,24(t4)
PLIC_DisableInterrupt():
C:\Users\ming\Desktop\i2c\hbird_sdk\NMSIS\Core\Include/core_feature_plic.h:191
    uint32_t hartid = __RV_CSR_READ(CSR_MHARTID);
80000c1e:	f1402473          	csrr	s0,mhartid
C:\Users\ming\Desktop\i2c\hbird_sdk\NMSIS\Core\Include/core_feature_plic.h:193
                    (hartid << PLIC_ENABLE_SHIFT_PER_TARGET) + (source >> 5) * 4);
80000c22:	00741593          	slli	a1,s0,0x7
80000c26:	010586b3          	add	a3,a1,a6
C:\Users\ming\Desktop\i2c\hbird_sdk\NMSIS\Core\Include/core_feature_plic.h:195
    uint32_t current = *enable_reg;
80000c2a:	4290                	lw	a2,0(a3)
C:\Users\ming\Desktop\i2c\hbird_sdk\NMSIS\Core\Include/core_feature_plic.h:196
    current = current & (~(1<<(source&0x1F)));
80000c2c:	f7f67293          	andi	t0,a2,-129
C:\Users\ming\Desktop\i2c\hbird_sdk\NMSIS\Core\Include/core_feature_plic.h:197
    *enable_reg = current;
80000c30:	0056a023          	sw	t0,0(a3)
PLIC_SetPriority():
C:\Users\ming\Desktop\i2c\hbird_sdk\NMSIS\Core\Include/core_feature_plic.h:237
    *priority_reg = priority;
80000c34:	000eae23          	sw	zero,28(t4)
PLIC_DisableInterrupt():
C:\Users\ming\Desktop\i2c\hbird_sdk\NMSIS\Core\Include/core_feature_plic.h:191
    uint32_t hartid = __RV_CSR_READ(CSR_MHARTID);
80000c38:	f1402773          	csrr	a4,mhartid
C:\Users\ming\Desktop\i2c\hbird_sdk\NMSIS\Core\Include/core_feature_plic.h:193
                    (hartid << PLIC_ENABLE_SHIFT_PER_TARGET) + (source >> 5) * 4);
80000c3c:	00771313          	slli	t1,a4,0x7
80000c40:	010303b3          	add	t2,t1,a6
C:\Users\ming\Desktop\i2c\hbird_sdk\NMSIS\Core\Include/core_feature_plic.h:195
    uint32_t current = *enable_reg;
80000c44:	0003a503          	lw	a0,0(t2)
C:\Users\ming\Desktop\i2c\hbird_sdk\NMSIS\Core\Include/core_feature_plic.h:196
    current = current & (~(1<<(source&0x1F)));
80000c48:	eff57893          	andi	a7,a0,-257
C:\Users\ming\Desktop\i2c\hbird_sdk\NMSIS\Core\Include/core_feature_plic.h:197
    *enable_reg = current;
80000c4c:	0113a023          	sw	a7,0(t2)
PLIC_SetPriority():
C:\Users\ming\Desktop\i2c\hbird_sdk\NMSIS\Core\Include/core_feature_plic.h:237
    *priority_reg = priority;
80000c50:	020ea023          	sw	zero,32(t4)
PLIC_DisableInterrupt():
C:\Users\ming\Desktop\i2c\hbird_sdk\NMSIS\Core\Include/core_feature_plic.h:191
    uint32_t hartid = __RV_CSR_READ(CSR_MHARTID);
80000c54:	f1402e73          	csrr	t3,mhartid
C:\Users\ming\Desktop\i2c\hbird_sdk\NMSIS\Core\Include/core_feature_plic.h:193
                    (hartid << PLIC_ENABLE_SHIFT_PER_TARGET) + (source >> 5) * 4);
80000c58:	007e1f13          	slli	t5,t3,0x7
80000c5c:	010f0fb3          	add	t6,t5,a6
C:\Users\ming\Desktop\i2c\hbird_sdk\NMSIS\Core\Include/core_feature_plic.h:195
    uint32_t current = *enable_reg;
80000c60:	000fa783          	lw	a5,0(t6)
C:\Users\ming\Desktop\i2c\hbird_sdk\NMSIS\Core\Include/core_feature_plic.h:196
    current = current & (~(1<<(source&0x1F)));
80000c64:	dff7f413          	andi	s0,a5,-513
C:\Users\ming\Desktop\i2c\hbird_sdk\NMSIS\Core\Include/core_feature_plic.h:197
    *enable_reg = current;
80000c68:	008fa023          	sw	s0,0(t6)
PLIC_SetPriority():
C:\Users\ming\Desktop\i2c\hbird_sdk\NMSIS\Core\Include/core_feature_plic.h:237
    *priority_reg = priority;
80000c6c:	020ea223          	sw	zero,36(t4)
PLIC_DisableInterrupt():
C:\Users\ming\Desktop\i2c\hbird_sdk\NMSIS\Core\Include/core_feature_plic.h:191
    uint32_t hartid = __RV_CSR_READ(CSR_MHARTID);
80000c70:	f14025f3          	csrr	a1,mhartid
C:\Users\ming\Desktop\i2c\hbird_sdk\NMSIS\Core\Include/core_feature_plic.h:193
                    (hartid << PLIC_ENABLE_SHIFT_PER_TARGET) + (source >> 5) * 4);
80000c74:	00759693          	slli	a3,a1,0x7
80000c78:	010682b3          	add	t0,a3,a6
C:\Users\ming\Desktop\i2c\hbird_sdk\NMSIS\Core\Include/core_feature_plic.h:195
    uint32_t current = *enable_reg;
80000c7c:	0002a603          	lw	a2,0(t0)
C:\Users\ming\Desktop\i2c\hbird_sdk\NMSIS\Core\Include/core_feature_plic.h:196
    current = current & (~(1<<(source&0x1F)));
80000c80:	bff67713          	andi	a4,a2,-1025
C:\Users\ming\Desktop\i2c\hbird_sdk\NMSIS\Core\Include/core_feature_plic.h:197
    *enable_reg = current;
80000c84:	00e2a023          	sw	a4,0(t0)
PLIC_SetPriority():
C:\Users\ming\Desktop\i2c\hbird_sdk\NMSIS\Core\Include/core_feature_plic.h:237
    *priority_reg = priority;
80000c88:	020ea423          	sw	zero,40(t4)
PLIC_DisableInterrupt():
C:\Users\ming\Desktop\i2c\hbird_sdk\NMSIS\Core\Include/core_feature_plic.h:191
    uint32_t hartid = __RV_CSR_READ(CSR_MHARTID);
80000c8c:	f1402373          	csrr	t1,mhartid
C:\Users\ming\Desktop\i2c\hbird_sdk\NMSIS\Core\Include/core_feature_plic.h:193
                    (hartid << PLIC_ENABLE_SHIFT_PER_TARGET) + (source >> 5) * 4);
80000c90:	00731393          	slli	t2,t1,0x7
80000c94:	010388b3          	add	a7,t2,a6
C:\Users\ming\Desktop\i2c\hbird_sdk\NMSIS\Core\Include/core_feature_plic.h:195
    uint32_t current = *enable_reg;
80000c98:	0008ae03          	lw	t3,0(a7)
C:\Users\ming\Desktop\i2c\hbird_sdk\NMSIS\Core\Include/core_feature_plic.h:196
    current = current & (~(1<<(source&0x1F)));
80000c9c:	7f7d                	lui	t5,0xfffff
80000c9e:	7fff0513          	addi	a0,t5,2047 # fffff7ff <_sp+0x6ffef7ff>
80000ca2:	00ae7fb3          	and	t6,t3,a0
C:\Users\ming\Desktop\i2c\hbird_sdk\NMSIS\Core\Include/core_feature_plic.h:197
    *enable_reg = current;
80000ca6:	01f8a023          	sw	t6,0(a7)
PLIC_SetPriority():
C:\Users\ming\Desktop\i2c\hbird_sdk\NMSIS\Core\Include/core_feature_plic.h:237
    *priority_reg = priority;
80000caa:	020ea623          	sw	zero,44(t4)
PLIC_DisableInterrupt():
C:\Users\ming\Desktop\i2c\hbird_sdk\NMSIS\Core\Include/core_feature_plic.h:191
    uint32_t hartid = __RV_CSR_READ(CSR_MHARTID);
80000cae:	f14027f3          	csrr	a5,mhartid
C:\Users\ming\Desktop\i2c\hbird_sdk\NMSIS\Core\Include/core_feature_plic.h:193
                    (hartid << PLIC_ENABLE_SHIFT_PER_TARGET) + (source >> 5) * 4);
80000cb2:	00779413          	slli	s0,a5,0x7
80000cb6:	010406b3          	add	a3,s0,a6
C:\Users\ming\Desktop\i2c\hbird_sdk\NMSIS\Core\Include/core_feature_plic.h:195
    uint32_t current = *enable_reg;
80000cba:	428c                	lw	a1,0(a3)
C:\Users\ming\Desktop\i2c\hbird_sdk\NMSIS\Core\Include/core_feature_plic.h:196
    current = current & (~(1<<(source&0x1F)));
80000cbc:	ffff0293          	addi	t0,t5,-1
80000cc0:	0055f633          	and	a2,a1,t0
C:\Users\ming\Desktop\i2c\hbird_sdk\NMSIS\Core\Include/core_feature_plic.h:197
    *enable_reg = current;
80000cc4:	c290                	sw	a2,0(a3)
PLIC_SetPriority():
C:\Users\ming\Desktop\i2c\hbird_sdk\NMSIS\Core\Include/core_feature_plic.h:237
    *priority_reg = priority;
80000cc6:	020ea823          	sw	zero,48(t4)
PLIC_DisableInterrupt():
C:\Users\ming\Desktop\i2c\hbird_sdk\NMSIS\Core\Include/core_feature_plic.h:191
    uint32_t hartid = __RV_CSR_READ(CSR_MHARTID);
80000cca:	f1402773          	csrr	a4,mhartid
C:\Users\ming\Desktop\i2c\hbird_sdk\NMSIS\Core\Include/core_feature_plic.h:193
                    (hartid << PLIC_ENABLE_SHIFT_PER_TARGET) + (source >> 5) * 4);
80000cce:	00771313          	slli	t1,a4,0x7
80000cd2:	010303b3          	add	t2,t1,a6
C:\Users\ming\Desktop\i2c\hbird_sdk\NMSIS\Core\Include/core_feature_plic.h:195
    uint32_t current = *enable_reg;
80000cd6:	0003a883          	lw	a7,0(t2)
C:\Users\ming\Desktop\i2c\hbird_sdk\NMSIS\Core\Include/core_feature_plic.h:196
    current = current & (~(1<<(source&0x1F)));
80000cda:	7e79                	lui	t3,0xffffe
80000cdc:	fffe0f13          	addi	t5,t3,-1 # ffffdfff <_sp+0x6ffedfff>
80000ce0:	01e8f533          	and	a0,a7,t5
C:\Users\ming\Desktop\i2c\hbird_sdk\NMSIS\Core\Include/core_feature_plic.h:197
    *enable_reg = current;
80000ce4:	00a3a023          	sw	a0,0(t2)
PLIC_SetPriority():
C:\Users\ming\Desktop\i2c\hbird_sdk\NMSIS\Core\Include/core_feature_plic.h:237
    *priority_reg = priority;
80000ce8:	020eaa23          	sw	zero,52(t4)
PLIC_DisableInterrupt():
C:\Users\ming\Desktop\i2c\hbird_sdk\NMSIS\Core\Include/core_feature_plic.h:191
    uint32_t hartid = __RV_CSR_READ(CSR_MHARTID);
80000cec:	f1402ff3          	csrr	t6,mhartid
C:\Users\ming\Desktop\i2c\hbird_sdk\NMSIS\Core\Include/core_feature_plic.h:193
                    (hartid << PLIC_ENABLE_SHIFT_PER_TARGET) + (source >> 5) * 4);
80000cf0:	007f9793          	slli	a5,t6,0x7
80000cf4:	01078433          	add	s0,a5,a6
C:\Users\ming\Desktop\i2c\hbird_sdk\NMSIS\Core\Include/core_feature_plic.h:195
    uint32_t current = *enable_reg;
80000cf8:	4014                	lw	a3,0(s0)
C:\Users\ming\Desktop\i2c\hbird_sdk\NMSIS\Core\Include/core_feature_plic.h:196
    current = current & (~(1<<(source&0x1F)));
80000cfa:	75f1                	lui	a1,0xffffc
80000cfc:	fff58293          	addi	t0,a1,-1 # ffffbfff <_sp+0x6ffebfff>
80000d00:	0056f633          	and	a2,a3,t0
C:\Users\ming\Desktop\i2c\hbird_sdk\NMSIS\Core\Include/core_feature_plic.h:197
    *enable_reg = current;
80000d04:	c010                	sw	a2,0(s0)
PLIC_SetPriority():
C:\Users\ming\Desktop\i2c\hbird_sdk\NMSIS\Core\Include/core_feature_plic.h:237
    *priority_reg = priority;
80000d06:	020eac23          	sw	zero,56(t4)
PLIC_DisableInterrupt():
C:\Users\ming\Desktop\i2c\hbird_sdk\NMSIS\Core\Include/core_feature_plic.h:191
    uint32_t hartid = __RV_CSR_READ(CSR_MHARTID);
80000d0a:	f1402773          	csrr	a4,mhartid
C:\Users\ming\Desktop\i2c\hbird_sdk\NMSIS\Core\Include/core_feature_plic.h:193
                    (hartid << PLIC_ENABLE_SHIFT_PER_TARGET) + (source >> 5) * 4);
80000d0e:	00771313          	slli	t1,a4,0x7
80000d12:	010303b3          	add	t2,t1,a6
C:\Users\ming\Desktop\i2c\hbird_sdk\NMSIS\Core\Include/core_feature_plic.h:195
    uint32_t current = *enable_reg;
80000d16:	0003a883          	lw	a7,0(t2)
C:\Users\ming\Desktop\i2c\hbird_sdk\NMSIS\Core\Include/core_feature_plic.h:196
    current = current & (~(1<<(source&0x1F)));
80000d1a:	7e61                	lui	t3,0xffff8
80000d1c:	fffe0f13          	addi	t5,t3,-1 # ffff7fff <_sp+0x6ffe7fff>
80000d20:	01e8f533          	and	a0,a7,t5
C:\Users\ming\Desktop\i2c\hbird_sdk\NMSIS\Core\Include/core_feature_plic.h:197
    *enable_reg = current;
80000d24:	00a3a023          	sw	a0,0(t2)
PLIC_SetPriority():
C:\Users\ming\Desktop\i2c\hbird_sdk\NMSIS\Core\Include/core_feature_plic.h:237
    *priority_reg = priority;
80000d28:	020eae23          	sw	zero,60(t4)
PLIC_DisableInterrupt():
C:\Users\ming\Desktop\i2c\hbird_sdk\NMSIS\Core\Include/core_feature_plic.h:191
    uint32_t hartid = __RV_CSR_READ(CSR_MHARTID);
80000d2c:	f1402ff3          	csrr	t6,mhartid
C:\Users\ming\Desktop\i2c\hbird_sdk\NMSIS\Core\Include/core_feature_plic.h:193
                    (hartid << PLIC_ENABLE_SHIFT_PER_TARGET) + (source >> 5) * 4);
80000d30:	007f9793          	slli	a5,t6,0x7
80000d34:	983e                	add	a6,a6,a5
C:\Users\ming\Desktop\i2c\hbird_sdk\NMSIS\Core\Include/core_feature_plic.h:195
    uint32_t current = *enable_reg;
80000d36:	00082403          	lw	s0,0(a6) # c002000 <__stack_size+0xc001800>
C:\Users\ming\Desktop\i2c\hbird_sdk\NMSIS\Core\Include/core_feature_plic.h:196
    current = current & (~(1<<(source&0x1F)));
80000d3a:	76c1                	lui	a3,0xffff0
80000d3c:	fff68593          	addi	a1,a3,-1 # fffeffff <_sp+0x6ffdffff>
80000d40:	00b472b3          	and	t0,s0,a1
C:\Users\ming\Desktop\i2c\hbird_sdk\NMSIS\Core\Include/core_feature_plic.h:197
    *enable_reg = current;
80000d44:	00582023          	sw	t0,0(a6)
PLIC_SetPriority():
C:\Users\ming\Desktop\i2c\hbird_sdk\NMSIS\Core\Include/core_feature_plic.h:237
    *priority_reg = priority;
80000d48:	040ea023          	sw	zero,64(t4)
PLIC_SetThreshold():
C:\Users\ming\Desktop\i2c\hbird_sdk\NMSIS\Core\Include/core_feature_plic.h:135
    uint32_t hartid = __RV_CSR_READ(CSR_MHARTID);
80000d4c:	f1402ef3          	csrr	t4,mhartid
C:\Users\ming\Desktop\i2c\hbird_sdk\NMSIS\Core\Include/core_feature_plic.h:137
                    PLIC_THRESHOLD_OFFSET + (hartid << PLIC_THRESHOLD_SHIFT_PER_TARGET));
80000d50:	0c200737          	lui	a4,0xc200
_premain_init():
C:\Users\ming\Desktop\i2c\Debug/../hbird_sdk/SoC/hbirdv2/Common/Source/system_hbirdv2.c:481
    Interrupt_Init();
#if defined(__PLIC_PRESENT) && __PLIC_PRESENT == 1
    /* PLIC initilization */
    PLIC_Init(__PLIC_INTNUM);
#endif
}
80000d54:	40b2                	lw	ra,12(sp)
80000d56:	4422                	lw	s0,8(sp)
PLIC_SetThreshold():
C:\Users\ming\Desktop\i2c\hbird_sdk\NMSIS\Core\Include/core_feature_plic.h:137
80000d58:	00ce9613          	slli	a2,t4,0xc
80000d5c:	00e60333          	add	t1,a2,a4
C:\Users\ming\Desktop\i2c\hbird_sdk\NMSIS\Core\Include/core_feature_plic.h:139
    *thresh_reg = thresh;
80000d60:	00032023          	sw	zero,0(t1)
_premain_init():
C:\Users\ming\Desktop\i2c\Debug/../hbird_sdk/SoC/hbirdv2/Common/Source/system_hbirdv2.c:481
80000d64:	0141                	addi	sp,sp,16
80000d66:	8082                	ret

80000d68 <_postmain_fini>:
_postmain_fini():
C:\Users\ming\Desktop\i2c\Debug/../hbird_sdk/SoC/hbirdv2/Common/Source/system_hbirdv2.c:507
#ifdef SIMULATION_RTL
extern void rtlsim_exit(int status);
    rtlsim_exit(status);
#endif

}
80000d68:	8082                	ret
	...

80000d6c <_init>:
_init():
C:\Users\ming\Desktop\i2c\Debug/../hbird_sdk/SoC/hbirdv2/Common/Source/system_hbirdv2.c:521
 * Please use \ref _premain_init function now
 */
void _init(void)
{
    /* Don't put any code here, please use _premain_init now */
}
80000d6c:	8082                	ret
	...

80000d70 <_fini>:
_fini():
80000d70:	8082                	ret
	...

80000d74 <OLED_ShowString>:
OLED_ShowString():
C:\Users\ming\Desktop\i2c\Debug/../application/oled.c:192
    OLED_ShowChar(x + (sizey / 2 + m) * t, y, temp + '0', sizey);
  }
}
//
void OLED_ShowString(unsigned char x, unsigned char y, unsigned char *chr, unsigned char sizey)
{
80000d74:	711d                	addi	sp,sp,-96
80000d76:	ce86                	sw	ra,92(sp)
80000d78:	cca2                	sw	s0,88(sp)
80000d7a:	caa6                	sw	s1,84(sp)
80000d7c:	c8ca                	sw	s2,80(sp)
80000d7e:	c6ce                	sw	s3,76(sp)
80000d80:	c4d2                	sw	s4,72(sp)
80000d82:	c2d6                	sw	s5,68(sp)
80000d84:	c0da                	sw	s6,64(sp)
80000d86:	de5e                	sw	s7,60(sp)
80000d88:	dc62                	sw	s8,56(sp)
80000d8a:	da66                	sw	s9,52(sp)
80000d8c:	d86a                	sw	s10,48(sp)
80000d8e:	d66e                	sw	s11,44(sp)
C:\Users\ming\Desktop\i2c\Debug/../application/oled.c:194
  uint8_t j = 0;
  while (chr[j] != '\0')
80000d90:	00064783          	lbu	a5,0(a2)
C:\Users\ming\Desktop\i2c\Debug/../application/oled.c:192
{
80000d94:	ce32                	sw	a2,28(sp)
80000d96:	c22a                	sw	a0,4(sp)
80000d98:	cc2e                	sw	a1,24(sp)
C:\Users\ming\Desktop\i2c\Debug/../application/oled.c:194
  while (chr[j] != '\0')
80000d9a:	48078e63          	beqz	a5,80001236 <OLED_ShowString+0x4c2>
OLED_ShowChar():
C:\Users\ming\Desktop\i2c\Debug/../application/oled.c:143
    size1 = (sizey / 8 + ((sizey % 8) ? 1 : 0)) * (sizey / 2);
80000d9e:	0076f713          	andi	a4,a3,7
OLED_Set_Pos():
C:\Users\ming\Desktop\i2c\Debug/../application/oled.c:103
  OLED_WR_Byte(0xb0 + y, OLED_CMD);
80000da2:	fb058393          	addi	t2,a1,-80
80000da6:	8936                	mv	s2,a3
OLED_ShowChar():
C:\Users\ming\Desktop\i2c\Debug/../application/oled.c:143
    size1 = (sizey / 8 + ((sizey % 8) ? 1 : 0)) * (sizey / 2);
80000da8:	00e030b3          	snez	ra,a4
80000dac:	828d                	srli	a3,a3,0x3
OLED_Set_Pos():
C:\Users\ming\Desktop\i2c\Debug/../application/oled.c:103
  OLED_WR_Byte(0xb0 + y, OLED_CMD);
80000dae:	0ff3f413          	zext.b	s0,t2
OLED_ShowChar():
C:\Users\ming\Desktop\i2c\Debug/../application/oled.c:138
  uint8_t c = 0, sizex = sizey / 2;
80000db2:	00195b13          	srli	s6,s2,0x1
C:\Users\ming\Desktop\i2c\Debug/../application/oled.c:143
    size1 = (sizey / 8 + ((sizey % 8) ? 1 : 0)) * (sizey / 2);
80000db6:	00d082b3          	add	t0,ra,a3
80000dba:	4621                	li	a2,8
OLED_Set_Pos():
C:\Users\ming\Desktop\i2c\Debug/../application/oled.c:103
  OLED_WR_Byte(0xb0 + y, OLED_CMD);
80000dbc:	ca22                	sw	s0,20(sp)
OLED_ShowChar():
C:\Users\ming\Desktop\i2c\Debug/../application/oled.c:143
    size1 = (sizey / 8 + ((sizey % 8) ? 1 : 0)) * (sizey / 2);
80000dbe:	03628333          	mul	t1,t0,s6
80000dc2:	4719                	li	a4,6
80000dc4:	00c90363          	beq	s2,a2,80000dca <OLED_ShowString+0x56>
80000dc8:	871a                	mv	a4,t1
80000dca:	01071a93          	slli	s5,a4,0x10
OLED_ShowString():
C:\Users\ming\Desktop\i2c\Debug/../application/oled.c:193
  uint8_t j = 0;
80000dce:	c602                	sw	zero,12(sp)
80000dd0:	010ada93          	srli	s5,s5,0x10
OLED_ShowChar():
C:\Users\ming\Desktop\i2c\Debug/../application/oled.c:150
    if (sizey == 8)
80000dd4:	4a21                	li	s4,8
C:\Users\ming\Desktop\i2c\Debug/../application/oled.c:153
      OLED_WR_Byte(asc2_1608[c][i], OLED_DATA);
80000dd6:	00008d17          	auipc	s10,0x8
80000dda:	ddad0d13          	addi	s10,s10,-550 # 80008bb0 <asc2_1608>
OLED_WR_Byte():
C:\Users\ming\Desktop\i2c\Debug/../application/oled.c:41
	      {*(gTxPacket)=0x40;}
80000dde:	04000b93          	li	s7,64
80000de2:	86418413          	addi	s0,gp,-1948 # 90000234 <gTxPacket>
80000de6:	0001                	nop
OLED_ShowString():
C:\Users\ming\Desktop\i2c\Debug/../application/oled.c:196
  {
    OLED_ShowChar(x, y, chr[j++], sizey);
80000de8:	44b2                	lw	s1,12(sp)
OLED_WR_Byte():
C:\Users\ming\Desktop\i2c\Debug/../application/oled.c:46
	  *(gTxPacket+1)=dat;
80000dea:	48d2                	lw	a7,20(sp)
OLED_ShowChar():
C:\Users\ming\Desktop\i2c\Debug/../application/oled.c:144
  c = chr - ' ';
80000dec:	fe078c93          	addi	s9,a5,-32
OLED_ShowString():
C:\Users\ming\Desktop\i2c\Debug/../application/oled.c:196
    OLED_ShowChar(x, y, chr[j++], sizey);
80000df0:	00148813          	addi	a6,s1,1
80000df4:	0ff87793          	zext.b	a5,a6
OLED_WR_Byte():
C:\Users\ming\Desktop\i2c\Debug/../application/oled.c:46
	  *(gTxPacket+1)=dat;
80000df8:	011400a3          	sb	a7,1(s0)
C:\Users\ming\Desktop\i2c\Debug/../application/oled.c:47
	  i2c_send_data(I2C_ID, 0x3c);
80000dfc:	03c00593          	li	a1,60
80000e00:	10025537          	lui	a0,0x10025
OLED_ShowString():
C:\Users\ming\Desktop\i2c\Debug/../application/oled.c:196
    OLED_ShowChar(x, y, chr[j++], sizey);
80000e04:	c63e                	sw	a5,12(sp)
OLED_WR_Byte():
C:\Users\ming\Desktop\i2c\Debug/../application/oled.c:44
	  {*(gTxPacket)=0x00;}
80000e06:	86018223          	sb	zero,-1948(gp) # 90000234 <gTxPacket>
C:\Users\ming\Desktop\i2c\Debug/../application/oled.c:47
	  i2c_send_data(I2C_ID, 0x3c);
80000e0a:	efeff0ef          	jal	ra,80000508 <i2c_send_data>
C:\Users\ming\Desktop\i2c\Debug/../application/oled.c:48
	  i2c_send_command(I2C_ID, I2C_WRITE);
80000e0e:	45c1                	li	a1,16
80000e10:	10025537          	lui	a0,0x10025
80000e14:	f08ff0ef          	jal	ra,8000051c <i2c_send_command>
C:\Users\ming\Desktop\i2c\Debug/../application/oled.c:50
	      i2c_send_data(I2C_ID, *(gTxPacket+i));            //write i-th byte into fifo
80000e18:	00044583          	lbu	a1,0(s0)
80000e1c:	10025537          	lui	a0,0x10025
OLED_ShowChar():
C:\Users\ming\Desktop\i2c\Debug/../application/oled.c:144
  c = chr - ' ';
80000e20:	0ffcfc13          	zext.b	s8,s9
OLED_WR_Byte():
C:\Users\ming\Desktop\i2c\Debug/../application/oled.c:50
	      i2c_send_data(I2C_ID, *(gTxPacket+i));            //write i-th byte into fifo
80000e24:	ee4ff0ef          	jal	ra,80000508 <i2c_send_data>
C:\Users\ming\Desktop\i2c\Debug/../application/oled.c:51
	      i2c_send_command(I2C_ID, I2C_START_WRITE); //send data on the i2c bus                 //wait for ack
80000e28:	09000593          	li	a1,144
80000e2c:	10025537          	lui	a0,0x10025
80000e30:	eecff0ef          	jal	ra,8000051c <i2c_send_command>
C:\Users\ming\Desktop\i2c\Debug/../application/oled.c:50
	      i2c_send_data(I2C_ID, *(gTxPacket+i));            //write i-th byte into fifo
80000e34:	00144583          	lbu	a1,1(s0)
80000e38:	10025537          	lui	a0,0x10025
80000e3c:	eccff0ef          	jal	ra,80000508 <i2c_send_data>
C:\Users\ming\Desktop\i2c\Debug/../application/oled.c:51
	      i2c_send_command(I2C_ID, I2C_START_WRITE); //send data on the i2c bus                 //wait for ack
80000e40:	09000593          	li	a1,144
80000e44:	10025537          	lui	a0,0x10025
80000e48:	ed4ff0ef          	jal	ra,8000051c <i2c_send_command>
C:\Users\ming\Desktop\i2c\Debug/../application/oled.c:53
	  while(i2c_busy(I2C_ID));
80000e4c:	10025537          	lui	a0,0x10025
80000e50:	ee0ff0ef          	jal	ra,80000530 <i2c_busy>
80000e54:	c521                	beqz	a0,80000e9c <OLED_ShowString+0x128>
80000e56:	10025537          	lui	a0,0x10025
80000e5a:	ed6ff0ef          	jal	ra,80000530 <i2c_busy>
80000e5e:	cd1d                	beqz	a0,80000e9c <OLED_ShowString+0x128>
80000e60:	10025537          	lui	a0,0x10025
80000e64:	eccff0ef          	jal	ra,80000530 <i2c_busy>
80000e68:	c915                	beqz	a0,80000e9c <OLED_ShowString+0x128>
80000e6a:	10025537          	lui	a0,0x10025
80000e6e:	ec2ff0ef          	jal	ra,80000530 <i2c_busy>
80000e72:	c50d                	beqz	a0,80000e9c <OLED_ShowString+0x128>
80000e74:	10025537          	lui	a0,0x10025
80000e78:	eb8ff0ef          	jal	ra,80000530 <i2c_busy>
80000e7c:	c105                	beqz	a0,80000e9c <OLED_ShowString+0x128>
80000e7e:	10025537          	lui	a0,0x10025
80000e82:	eaeff0ef          	jal	ra,80000530 <i2c_busy>
80000e86:	c919                	beqz	a0,80000e9c <OLED_ShowString+0x128>
80000e88:	10025537          	lui	a0,0x10025
80000e8c:	ea4ff0ef          	jal	ra,80000530 <i2c_busy>
80000e90:	c511                	beqz	a0,80000e9c <OLED_ShowString+0x128>
80000e92:	10025537          	lui	a0,0x10025
80000e96:	e9aff0ef          	jal	ra,80000530 <i2c_busy>
80000e9a:	f94d                	bnez	a0,80000e4c <OLED_ShowString+0xd8>
C:\Users\ming\Desktop\i2c\Debug/../application/oled.c:65
  while(i2c_busy(I2C_ID));
80000e9c:	10025537          	lui	a0,0x10025
80000ea0:	e90ff0ef          	jal	ra,80000530 <i2c_busy>
80000ea4:	c521                	beqz	a0,80000eec <OLED_ShowString+0x178>
80000ea6:	10025537          	lui	a0,0x10025
80000eaa:	e86ff0ef          	jal	ra,80000530 <i2c_busy>
80000eae:	cd1d                	beqz	a0,80000eec <OLED_ShowString+0x178>
80000eb0:	10025537          	lui	a0,0x10025
80000eb4:	e7cff0ef          	jal	ra,80000530 <i2c_busy>
80000eb8:	c915                	beqz	a0,80000eec <OLED_ShowString+0x178>
80000eba:	10025537          	lui	a0,0x10025
80000ebe:	e72ff0ef          	jal	ra,80000530 <i2c_busy>
80000ec2:	c50d                	beqz	a0,80000eec <OLED_ShowString+0x178>
80000ec4:	10025537          	lui	a0,0x10025
80000ec8:	e68ff0ef          	jal	ra,80000530 <i2c_busy>
80000ecc:	c105                	beqz	a0,80000eec <OLED_ShowString+0x178>
80000ece:	10025537          	lui	a0,0x10025
80000ed2:	e5eff0ef          	jal	ra,80000530 <i2c_busy>
80000ed6:	c919                	beqz	a0,80000eec <OLED_ShowString+0x178>
80000ed8:	10025537          	lui	a0,0x10025
80000edc:	e54ff0ef          	jal	ra,80000530 <i2c_busy>
80000ee0:	c511                	beqz	a0,80000eec <OLED_ShowString+0x178>
80000ee2:	10025537          	lui	a0,0x10025
80000ee6:	e4aff0ef          	jal	ra,80000530 <i2c_busy>
80000eea:	f94d                	bnez	a0,80000e9c <OLED_ShowString+0x128>
OLED_Set_Pos():
C:\Users\ming\Desktop\i2c\Debug/../application/oled.c:104
  OLED_WR_Byte(((x & 0xf0) >> 4) | 0x10, OLED_CMD);
80000eec:	4512                	lw	a0,4(sp)
OLED_WR_Byte():
C:\Users\ming\Desktop\i2c\Debug/../application/oled.c:44
	  {*(gTxPacket)=0x00;}
80000eee:	86018223          	sb	zero,-1948(gp) # 90000234 <gTxPacket>
OLED_Set_Pos():
C:\Users\ming\Desktop\i2c\Debug/../application/oled.c:104
  OLED_WR_Byte(((x & 0xf0) >> 4) | 0x10, OLED_CMD);
80000ef2:	00455593          	srli	a1,a0,0x4
80000ef6:	0105e993          	ori	s3,a1,16
OLED_WR_Byte():
C:\Users\ming\Desktop\i2c\Debug/../application/oled.c:47
	  i2c_send_data(I2C_ID, 0x3c);
80000efa:	10025537          	lui	a0,0x10025
80000efe:	03c00593          	li	a1,60
C:\Users\ming\Desktop\i2c\Debug/../application/oled.c:46
	  *(gTxPacket+1)=dat;
80000f02:	013400a3          	sb	s3,1(s0)
OLED_Set_Pos():
C:\Users\ming\Desktop\i2c\Debug/../application/oled.c:104
  OLED_WR_Byte(((x & 0xf0) >> 4) | 0x10, OLED_CMD);
80000f06:	c44e                	sw	s3,8(sp)
OLED_WR_Byte():
C:\Users\ming\Desktop\i2c\Debug/../application/oled.c:47
	  i2c_send_data(I2C_ID, 0x3c);
80000f08:	e00ff0ef          	jal	ra,80000508 <i2c_send_data>
C:\Users\ming\Desktop\i2c\Debug/../application/oled.c:48
	  i2c_send_command(I2C_ID, I2C_WRITE);
80000f0c:	45c1                	li	a1,16
80000f0e:	10025537          	lui	a0,0x10025
80000f12:	e0aff0ef          	jal	ra,8000051c <i2c_send_command>
C:\Users\ming\Desktop\i2c\Debug/../application/oled.c:50
	      i2c_send_data(I2C_ID, *(gTxPacket+i));            //write i-th byte into fifo
80000f16:	00044583          	lbu	a1,0(s0)
80000f1a:	10025537          	lui	a0,0x10025
80000f1e:	deaff0ef          	jal	ra,80000508 <i2c_send_data>
C:\Users\ming\Desktop\i2c\Debug/../application/oled.c:51
	      i2c_send_command(I2C_ID, I2C_START_WRITE); //send data on the i2c bus                 //wait for ack
80000f22:	09000593          	li	a1,144
80000f26:	10025537          	lui	a0,0x10025
80000f2a:	df2ff0ef          	jal	ra,8000051c <i2c_send_command>
C:\Users\ming\Desktop\i2c\Debug/../application/oled.c:50
	      i2c_send_data(I2C_ID, *(gTxPacket+i));            //write i-th byte into fifo
80000f2e:	00144583          	lbu	a1,1(s0)
80000f32:	10025537          	lui	a0,0x10025
80000f36:	dd2ff0ef          	jal	ra,80000508 <i2c_send_data>
C:\Users\ming\Desktop\i2c\Debug/../application/oled.c:51
	      i2c_send_command(I2C_ID, I2C_START_WRITE); //send data on the i2c bus                 //wait for ack
80000f3a:	09000593          	li	a1,144
80000f3e:	10025537          	lui	a0,0x10025
80000f42:	ddaff0ef          	jal	ra,8000051c <i2c_send_command>
C:\Users\ming\Desktop\i2c\Debug/../application/oled.c:53
	  while(i2c_busy(I2C_ID));
80000f46:	10025537          	lui	a0,0x10025
80000f4a:	de6ff0ef          	jal	ra,80000530 <i2c_busy>
80000f4e:	c529                	beqz	a0,80000f98 <OLED_ShowString+0x224>
80000f50:	10025537          	lui	a0,0x10025
80000f54:	ddcff0ef          	jal	ra,80000530 <i2c_busy>
80000f58:	c121                	beqz	a0,80000f98 <OLED_ShowString+0x224>
80000f5a:	10025537          	lui	a0,0x10025
80000f5e:	dd2ff0ef          	jal	ra,80000530 <i2c_busy>
80000f62:	c91d                	beqz	a0,80000f98 <OLED_ShowString+0x224>
80000f64:	10025537          	lui	a0,0x10025
80000f68:	dc8ff0ef          	jal	ra,80000530 <i2c_busy>
80000f6c:	c515                	beqz	a0,80000f98 <OLED_ShowString+0x224>
80000f6e:	10025537          	lui	a0,0x10025
80000f72:	dbeff0ef          	jal	ra,80000530 <i2c_busy>
80000f76:	c10d                	beqz	a0,80000f98 <OLED_ShowString+0x224>
80000f78:	10025537          	lui	a0,0x10025
80000f7c:	db4ff0ef          	jal	ra,80000530 <i2c_busy>
80000f80:	cd01                	beqz	a0,80000f98 <OLED_ShowString+0x224>
80000f82:	10025537          	lui	a0,0x10025
80000f86:	daaff0ef          	jal	ra,80000530 <i2c_busy>
80000f8a:	c519                	beqz	a0,80000f98 <OLED_ShowString+0x224>
80000f8c:	10025537          	lui	a0,0x10025
80000f90:	da0ff0ef          	jal	ra,80000530 <i2c_busy>
80000f94:	f94d                	bnez	a0,80000f46 <OLED_ShowString+0x1d2>
80000f96:	0001                	nop
C:\Users\ming\Desktop\i2c\Debug/../application/oled.c:65
  while(i2c_busy(I2C_ID));
80000f98:	10025537          	lui	a0,0x10025
80000f9c:	d94ff0ef          	jal	ra,80000530 <i2c_busy>
80000fa0:	c521                	beqz	a0,80000fe8 <OLED_ShowString+0x274>
80000fa2:	10025537          	lui	a0,0x10025
80000fa6:	d8aff0ef          	jal	ra,80000530 <i2c_busy>
80000faa:	cd1d                	beqz	a0,80000fe8 <OLED_ShowString+0x274>
80000fac:	10025537          	lui	a0,0x10025
80000fb0:	d80ff0ef          	jal	ra,80000530 <i2c_busy>
80000fb4:	c915                	beqz	a0,80000fe8 <OLED_ShowString+0x274>
80000fb6:	10025537          	lui	a0,0x10025
80000fba:	d76ff0ef          	jal	ra,80000530 <i2c_busy>
80000fbe:	c50d                	beqz	a0,80000fe8 <OLED_ShowString+0x274>
80000fc0:	10025537          	lui	a0,0x10025
80000fc4:	d6cff0ef          	jal	ra,80000530 <i2c_busy>
80000fc8:	c105                	beqz	a0,80000fe8 <OLED_ShowString+0x274>
80000fca:	10025537          	lui	a0,0x10025
80000fce:	d62ff0ef          	jal	ra,80000530 <i2c_busy>
80000fd2:	c919                	beqz	a0,80000fe8 <OLED_ShowString+0x274>
80000fd4:	10025537          	lui	a0,0x10025
80000fd8:	d58ff0ef          	jal	ra,80000530 <i2c_busy>
80000fdc:	c511                	beqz	a0,80000fe8 <OLED_ShowString+0x274>
80000fde:	10025537          	lui	a0,0x10025
80000fe2:	d4eff0ef          	jal	ra,80000530 <i2c_busy>
80000fe6:	f94d                	bnez	a0,80000f98 <OLED_ShowString+0x224>
OLED_Set_Pos():
C:\Users\ming\Desktop\i2c\Debug/../application/oled.c:105
  OLED_WR_Byte((x & 0x0f), OLED_CMD);
80000fe8:	4d92                	lw	s11,4(sp)
OLED_WR_Byte():
C:\Users\ming\Desktop\i2c\Debug/../application/oled.c:47
	  i2c_send_data(I2C_ID, 0x3c);
80000fea:	03c00593          	li	a1,60
80000fee:	10025537          	lui	a0,0x10025
OLED_Set_Pos():
C:\Users\ming\Desktop\i2c\Debug/../application/oled.c:105
  OLED_WR_Byte((x & 0x0f), OLED_CMD);
80000ff2:	00fdfd93          	andi	s11,s11,15
OLED_WR_Byte():
C:\Users\ming\Desktop\i2c\Debug/../application/oled.c:46
	  *(gTxPacket+1)=dat;
80000ff6:	01b400a3          	sb	s11,1(s0)
C:\Users\ming\Desktop\i2c\Debug/../application/oled.c:44
	  {*(gTxPacket)=0x00;}
80000ffa:	86018223          	sb	zero,-1948(gp) # 90000234 <gTxPacket>
C:\Users\ming\Desktop\i2c\Debug/../application/oled.c:47
	  i2c_send_data(I2C_ID, 0x3c);
80000ffe:	d0aff0ef          	jal	ra,80000508 <i2c_send_data>
C:\Users\ming\Desktop\i2c\Debug/../application/oled.c:48
	  i2c_send_command(I2C_ID, I2C_WRITE);
80001002:	45c1                	li	a1,16
80001004:	10025537          	lui	a0,0x10025
80001008:	d14ff0ef          	jal	ra,8000051c <i2c_send_command>
C:\Users\ming\Desktop\i2c\Debug/../application/oled.c:50
	      i2c_send_data(I2C_ID, *(gTxPacket+i));            //write i-th byte into fifo
8000100c:	00044583          	lbu	a1,0(s0)
80001010:	10025537          	lui	a0,0x10025
80001014:	cf4ff0ef          	jal	ra,80000508 <i2c_send_data>
C:\Users\ming\Desktop\i2c\Debug/../application/oled.c:51
	      i2c_send_command(I2C_ID, I2C_START_WRITE); //send data on the i2c bus                 //wait for ack
80001018:	09000593          	li	a1,144
8000101c:	10025537          	lui	a0,0x10025
80001020:	cfcff0ef          	jal	ra,8000051c <i2c_send_command>
C:\Users\ming\Desktop\i2c\Debug/../application/oled.c:50
	      i2c_send_data(I2C_ID, *(gTxPacket+i));            //write i-th byte into fifo
80001024:	00144583          	lbu	a1,1(s0)
80001028:	10025537          	lui	a0,0x10025
8000102c:	cdcff0ef          	jal	ra,80000508 <i2c_send_data>
C:\Users\ming\Desktop\i2c\Debug/../application/oled.c:51
	      i2c_send_command(I2C_ID, I2C_START_WRITE); //send data on the i2c bus                 //wait for ack
80001030:	09000593          	li	a1,144
80001034:	10025537          	lui	a0,0x10025
80001038:	ce4ff0ef          	jal	ra,8000051c <i2c_send_command>
C:\Users\ming\Desktop\i2c\Debug/../application/oled.c:53
	  while(i2c_busy(I2C_ID));
8000103c:	10025537          	lui	a0,0x10025
80001040:	cf0ff0ef          	jal	ra,80000530 <i2c_busy>
80001044:	c521                	beqz	a0,8000108c <OLED_ShowString+0x318>
80001046:	10025537          	lui	a0,0x10025
8000104a:	ce6ff0ef          	jal	ra,80000530 <i2c_busy>
8000104e:	cd1d                	beqz	a0,8000108c <OLED_ShowString+0x318>
80001050:	10025537          	lui	a0,0x10025
80001054:	cdcff0ef          	jal	ra,80000530 <i2c_busy>
80001058:	c915                	beqz	a0,8000108c <OLED_ShowString+0x318>
8000105a:	10025537          	lui	a0,0x10025
8000105e:	cd2ff0ef          	jal	ra,80000530 <i2c_busy>
80001062:	c50d                	beqz	a0,8000108c <OLED_ShowString+0x318>
80001064:	10025537          	lui	a0,0x10025
80001068:	cc8ff0ef          	jal	ra,80000530 <i2c_busy>
8000106c:	c105                	beqz	a0,8000108c <OLED_ShowString+0x318>
8000106e:	10025537          	lui	a0,0x10025
80001072:	cbeff0ef          	jal	ra,80000530 <i2c_busy>
80001076:	c919                	beqz	a0,8000108c <OLED_ShowString+0x318>
80001078:	10025537          	lui	a0,0x10025
8000107c:	cb4ff0ef          	jal	ra,80000530 <i2c_busy>
80001080:	c511                	beqz	a0,8000108c <OLED_ShowString+0x318>
80001082:	10025537          	lui	a0,0x10025
80001086:	caaff0ef          	jal	ra,80000530 <i2c_busy>
8000108a:	f94d                	bnez	a0,8000103c <OLED_ShowString+0x2c8>
C:\Users\ming\Desktop\i2c\Debug/../application/oled.c:65
  while(i2c_busy(I2C_ID));
8000108c:	10025537          	lui	a0,0x10025
80001090:	ca0ff0ef          	jal	ra,80000530 <i2c_busy>
80001094:	c521                	beqz	a0,800010dc <OLED_ShowString+0x368>
80001096:	10025537          	lui	a0,0x10025
8000109a:	c96ff0ef          	jal	ra,80000530 <i2c_busy>
8000109e:	cd1d                	beqz	a0,800010dc <OLED_ShowString+0x368>
800010a0:	10025537          	lui	a0,0x10025
800010a4:	c8cff0ef          	jal	ra,80000530 <i2c_busy>
800010a8:	c915                	beqz	a0,800010dc <OLED_ShowString+0x368>
800010aa:	10025537          	lui	a0,0x10025
800010ae:	c82ff0ef          	jal	ra,80000530 <i2c_busy>
800010b2:	c50d                	beqz	a0,800010dc <OLED_ShowString+0x368>
800010b4:	10025537          	lui	a0,0x10025
800010b8:	c78ff0ef          	jal	ra,80000530 <i2c_busy>
800010bc:	c105                	beqz	a0,800010dc <OLED_ShowString+0x368>
800010be:	10025537          	lui	a0,0x10025
800010c2:	c6eff0ef          	jal	ra,80000530 <i2c_busy>
800010c6:	c919                	beqz	a0,800010dc <OLED_ShowString+0x368>
800010c8:	10025537          	lui	a0,0x10025
800010cc:	c64ff0ef          	jal	ra,80000530 <i2c_busy>
800010d0:	c511                	beqz	a0,800010dc <OLED_ShowString+0x368>
800010d2:	10025537          	lui	a0,0x10025
800010d6:	c5aff0ef          	jal	ra,80000530 <i2c_busy>
800010da:	f94d                	bnez	a0,8000108c <OLED_ShowString+0x318>
OLED_ShowChar():
C:\Users\ming\Desktop\i2c\Debug/../application/oled.c:146
  for (i = 0; i < size1; i++)
800010dc:	120a8d63          	beqz	s5,80001216 <OLED_ShowString+0x4a2>
800010e0:	001c1e13          	slli	t3,s8,0x1
800010e4:	018e0eb3          	add	t4,t3,s8
C:\Users\ming\Desktop\i2c\Debug/../application/oled.c:148
    if (i % sizex == 0 && sizey != 8)
800010e8:	49e2                	lw	s3,24(sp)
800010ea:	001e9f13          	slli	t5,t4,0x1
800010ee:	004c1c93          	slli	s9,s8,0x4
800010f2:	4481                	li	s1,0
800010f4:	c87a                	sw	t5,16(sp)
C:\Users\ming\Desktop\i2c\Debug/../application/oled.c:152
    else if (sizey == 16)
800010f6:	4c41                	li	s8,16
C:\Users\ming\Desktop\i2c\Debug/../application/oled.c:148
    if (i % sizex == 0 && sizey != 8)
800010f8:	0364efb3          	rem	t6,s1,s6
800010fc:	140f9c63          	bnez	t6,80001254 <OLED_ShowString+0x4e0>
80001100:	27491c63          	bne	s2,s4,80001378 <OLED_ShowString+0x604>
C:\Users\ming\Desktop\i2c\Debug/../application/oled.c:151
       OLED_WR_Byte(asc2_0806[c][i], OLED_DATA);
80001104:	40c2                	lw	ra,16(sp)
80001106:	00008297          	auipc	t0,0x8
8000110a:	86e28293          	addi	t0,t0,-1938 # 80008974 <asc2_0806>
OLED_WR_Byte():
C:\Users\ming\Desktop\i2c\Debug/../application/oled.c:47
	  i2c_send_data(I2C_ID, 0x3c);
8000110e:	03c00593          	li	a1,60
OLED_ShowChar():
C:\Users\ming\Desktop\i2c\Debug/../application/oled.c:151
       OLED_WR_Byte(asc2_0806[c][i], OLED_DATA);
80001112:	001486b3          	add	a3,s1,ra
80001116:	00d28333          	add	t1,t0,a3
8000111a:	00034383          	lbu	t2,0(t1)
OLED_WR_Byte():
C:\Users\ming\Desktop\i2c\Debug/../application/oled.c:47
	  i2c_send_data(I2C_ID, 0x3c);
8000111e:	10025537          	lui	a0,0x10025
C:\Users\ming\Desktop\i2c\Debug/../application/oled.c:41
	      {*(gTxPacket)=0x40;}
80001122:	01740023          	sb	s7,0(s0)
C:\Users\ming\Desktop\i2c\Debug/../application/oled.c:46
	  *(gTxPacket+1)=dat;
80001126:	007400a3          	sb	t2,1(s0)
C:\Users\ming\Desktop\i2c\Debug/../application/oled.c:47
	  i2c_send_data(I2C_ID, 0x3c);
8000112a:	bdeff0ef          	jal	ra,80000508 <i2c_send_data>
C:\Users\ming\Desktop\i2c\Debug/../application/oled.c:48
	  i2c_send_command(I2C_ID, I2C_WRITE);
8000112e:	45c1                	li	a1,16
80001130:	10025537          	lui	a0,0x10025
80001134:	be8ff0ef          	jal	ra,8000051c <i2c_send_command>
C:\Users\ming\Desktop\i2c\Debug/../application/oled.c:50
	      i2c_send_data(I2C_ID, *(gTxPacket+i));            //write i-th byte into fifo
80001138:	00044583          	lbu	a1,0(s0)
8000113c:	10025537          	lui	a0,0x10025
80001140:	bc8ff0ef          	jal	ra,80000508 <i2c_send_data>
C:\Users\ming\Desktop\i2c\Debug/../application/oled.c:51
	      i2c_send_command(I2C_ID, I2C_START_WRITE); //send data on the i2c bus                 //wait for ack
80001144:	09000593          	li	a1,144
80001148:	10025537          	lui	a0,0x10025
8000114c:	bd0ff0ef          	jal	ra,8000051c <i2c_send_command>
C:\Users\ming\Desktop\i2c\Debug/../application/oled.c:50
	      i2c_send_data(I2C_ID, *(gTxPacket+i));            //write i-th byte into fifo
80001150:	00144583          	lbu	a1,1(s0)
80001154:	10025537          	lui	a0,0x10025
80001158:	bb0ff0ef          	jal	ra,80000508 <i2c_send_data>
C:\Users\ming\Desktop\i2c\Debug/../application/oled.c:51
	      i2c_send_command(I2C_ID, I2C_START_WRITE); //send data on the i2c bus                 //wait for ack
8000115c:	09000593          	li	a1,144
80001160:	10025537          	lui	a0,0x10025
80001164:	bb8ff0ef          	jal	ra,8000051c <i2c_send_command>
C:\Users\ming\Desktop\i2c\Debug/../application/oled.c:53
	  while(i2c_busy(I2C_ID));
80001168:	10025537          	lui	a0,0x10025
8000116c:	bc4ff0ef          	jal	ra,80000530 <i2c_busy>
80001170:	c521                	beqz	a0,800011b8 <OLED_ShowString+0x444>
80001172:	10025537          	lui	a0,0x10025
80001176:	bbaff0ef          	jal	ra,80000530 <i2c_busy>
8000117a:	cd1d                	beqz	a0,800011b8 <OLED_ShowString+0x444>
8000117c:	10025537          	lui	a0,0x10025
80001180:	bb0ff0ef          	jal	ra,80000530 <i2c_busy>
80001184:	c915                	beqz	a0,800011b8 <OLED_ShowString+0x444>
80001186:	10025537          	lui	a0,0x10025
8000118a:	ba6ff0ef          	jal	ra,80000530 <i2c_busy>
8000118e:	c50d                	beqz	a0,800011b8 <OLED_ShowString+0x444>
80001190:	10025537          	lui	a0,0x10025
80001194:	b9cff0ef          	jal	ra,80000530 <i2c_busy>
80001198:	c105                	beqz	a0,800011b8 <OLED_ShowString+0x444>
8000119a:	10025537          	lui	a0,0x10025
8000119e:	b92ff0ef          	jal	ra,80000530 <i2c_busy>
800011a2:	c919                	beqz	a0,800011b8 <OLED_ShowString+0x444>
800011a4:	10025537          	lui	a0,0x10025
800011a8:	b88ff0ef          	jal	ra,80000530 <i2c_busy>
800011ac:	c511                	beqz	a0,800011b8 <OLED_ShowString+0x444>
800011ae:	10025537          	lui	a0,0x10025
800011b2:	b7eff0ef          	jal	ra,80000530 <i2c_busy>
800011b6:	f94d                	bnez	a0,80001168 <OLED_ShowString+0x3f4>
C:\Users\ming\Desktop\i2c\Debug/../application/oled.c:65
  while(i2c_busy(I2C_ID));
800011b8:	10025537          	lui	a0,0x10025
800011bc:	b74ff0ef          	jal	ra,80000530 <i2c_busy>
800011c0:	c521                	beqz	a0,80001208 <OLED_ShowString+0x494>
800011c2:	10025537          	lui	a0,0x10025
800011c6:	b6aff0ef          	jal	ra,80000530 <i2c_busy>
800011ca:	cd1d                	beqz	a0,80001208 <OLED_ShowString+0x494>
800011cc:	10025537          	lui	a0,0x10025
800011d0:	b60ff0ef          	jal	ra,80000530 <i2c_busy>
800011d4:	c915                	beqz	a0,80001208 <OLED_ShowString+0x494>
800011d6:	10025537          	lui	a0,0x10025
800011da:	b56ff0ef          	jal	ra,80000530 <i2c_busy>
800011de:	c50d                	beqz	a0,80001208 <OLED_ShowString+0x494>
800011e0:	10025537          	lui	a0,0x10025
800011e4:	b4cff0ef          	jal	ra,80000530 <i2c_busy>
800011e8:	c105                	beqz	a0,80001208 <OLED_ShowString+0x494>
800011ea:	10025537          	lui	a0,0x10025
800011ee:	b42ff0ef          	jal	ra,80000530 <i2c_busy>
800011f2:	c919                	beqz	a0,80001208 <OLED_ShowString+0x494>
800011f4:	10025537          	lui	a0,0x10025
800011f8:	b38ff0ef          	jal	ra,80000530 <i2c_busy>
800011fc:	c511                	beqz	a0,80001208 <OLED_ShowString+0x494>
800011fe:	10025537          	lui	a0,0x10025
80001202:	b2eff0ef          	jal	ra,80000530 <i2c_busy>
80001206:	f94d                	bnez	a0,800011b8 <OLED_ShowString+0x444>
OLED_ShowChar():
C:\Users\ming\Desktop\i2c\Debug/../application/oled.c:146
  for (i = 0; i < size1; i++)
80001208:	0485                	addi	s1,s1,1
8000120a:	01049513          	slli	a0,s1,0x10
8000120e:	01055593          	srli	a1,a0,0x10
80001212:	ef55e3e3          	bltu	a1,s5,800010f8 <OLED_ShowString+0x384>
OLED_ShowString():
C:\Users\ming\Desktop\i2c\Debug/../application/oled.c:197
    if (sizey == 8)
80001216:	45491863          	bne	s2,s4,80001666 <OLED_ShowString+0x8f2>
C:\Users\ming\Desktop\i2c\Debug/../application/oled.c:198
      x += 6;
8000121a:	4f12                	lw	t5,4(sp)
8000121c:	006f0c93          	addi	s9,t5,6
80001220:	0ffcfc13          	zext.b	s8,s9
80001224:	c262                	sw	s8,4(sp)
C:\Users\ming\Desktop\i2c\Debug/../application/oled.c:194
  while (chr[j] != '\0')
80001226:	4ff2                	lw	t6,28(sp)
80001228:	40b2                	lw	ra,12(sp)
8000122a:	001f86b3          	add	a3,t6,ra
8000122e:	0006c783          	lbu	a5,0(a3)
80001232:	ba079be3          	bnez	a5,80000de8 <OLED_ShowString+0x74>
C:\Users\ming\Desktop\i2c\Debug/../application/oled.c:202
    else
      x += sizey / 2;
  }
}
80001236:	40f6                	lw	ra,92(sp)
80001238:	4466                	lw	s0,88(sp)
8000123a:	44d6                	lw	s1,84(sp)
8000123c:	4946                	lw	s2,80(sp)
8000123e:	49b6                	lw	s3,76(sp)
80001240:	4a26                	lw	s4,72(sp)
80001242:	4a96                	lw	s5,68(sp)
80001244:	4b06                	lw	s6,64(sp)
80001246:	5bf2                	lw	s7,60(sp)
80001248:	5c62                	lw	s8,56(sp)
8000124a:	5cd2                	lw	s9,52(sp)
8000124c:	5d42                	lw	s10,48(sp)
8000124e:	5db2                	lw	s11,44(sp)
80001250:	6125                	addi	sp,sp,96
80001252:	8082                	ret
OLED_ShowChar():
C:\Users\ming\Desktop\i2c\Debug/../application/oled.c:150
    if (sizey == 8)
80001254:	eb4908e3          	beq	s2,s4,80001104 <OLED_ShowString+0x390>
C:\Users\ming\Desktop\i2c\Debug/../application/oled.c:152
    else if (sizey == 16)
80001258:	41891763          	bne	s2,s8,80001666 <OLED_ShowString+0x8f2>
C:\Users\ming\Desktop\i2c\Debug/../application/oled.c:153
      OLED_WR_Byte(asc2_1608[c][i], OLED_DATA);
8000125c:	019487b3          	add	a5,s1,s9
80001260:	00fd08b3          	add	a7,s10,a5
80001264:	0008ce03          	lbu	t3,0(a7)
OLED_WR_Byte():
C:\Users\ming\Desktop\i2c\Debug/../application/oled.c:47
	  i2c_send_data(I2C_ID, 0x3c);
80001268:	03c00593          	li	a1,60
8000126c:	10025537          	lui	a0,0x10025
C:\Users\ming\Desktop\i2c\Debug/../application/oled.c:46
	  *(gTxPacket+1)=dat;
80001270:	01c400a3          	sb	t3,1(s0)
C:\Users\ming\Desktop\i2c\Debug/../application/oled.c:41
	      {*(gTxPacket)=0x40;}
80001274:	01740023          	sb	s7,0(s0)
C:\Users\ming\Desktop\i2c\Debug/../application/oled.c:47
	  i2c_send_data(I2C_ID, 0x3c);
80001278:	a90ff0ef          	jal	ra,80000508 <i2c_send_data>
C:\Users\ming\Desktop\i2c\Debug/../application/oled.c:48
	  i2c_send_command(I2C_ID, I2C_WRITE);
8000127c:	45c1                	li	a1,16
8000127e:	10025537          	lui	a0,0x10025
80001282:	a9aff0ef          	jal	ra,8000051c <i2c_send_command>
C:\Users\ming\Desktop\i2c\Debug/../application/oled.c:50
	      i2c_send_data(I2C_ID, *(gTxPacket+i));            //write i-th byte into fifo
80001286:	00044583          	lbu	a1,0(s0)
8000128a:	10025537          	lui	a0,0x10025
8000128e:	a7aff0ef          	jal	ra,80000508 <i2c_send_data>
C:\Users\ming\Desktop\i2c\Debug/../application/oled.c:51
	      i2c_send_command(I2C_ID, I2C_START_WRITE); //send data on the i2c bus                 //wait for ack
80001292:	09000593          	li	a1,144
80001296:	10025537          	lui	a0,0x10025
8000129a:	a82ff0ef          	jal	ra,8000051c <i2c_send_command>
C:\Users\ming\Desktop\i2c\Debug/../application/oled.c:50
	      i2c_send_data(I2C_ID, *(gTxPacket+i));            //write i-th byte into fifo
8000129e:	00144583          	lbu	a1,1(s0)
800012a2:	10025537          	lui	a0,0x10025
800012a6:	a62ff0ef          	jal	ra,80000508 <i2c_send_data>
C:\Users\ming\Desktop\i2c\Debug/../application/oled.c:51
	      i2c_send_command(I2C_ID, I2C_START_WRITE); //send data on the i2c bus                 //wait for ack
800012aa:	09000593          	li	a1,144
800012ae:	10025537          	lui	a0,0x10025
800012b2:	a6aff0ef          	jal	ra,8000051c <i2c_send_command>
C:\Users\ming\Desktop\i2c\Debug/../application/oled.c:53
	  while(i2c_busy(I2C_ID));
800012b6:	10025537          	lui	a0,0x10025
800012ba:	a76ff0ef          	jal	ra,80000530 <i2c_busy>
800012be:	c529                	beqz	a0,80001308 <OLED_ShowString+0x594>
800012c0:	10025537          	lui	a0,0x10025
800012c4:	a6cff0ef          	jal	ra,80000530 <i2c_busy>
800012c8:	c121                	beqz	a0,80001308 <OLED_ShowString+0x594>
800012ca:	10025537          	lui	a0,0x10025
800012ce:	a62ff0ef          	jal	ra,80000530 <i2c_busy>
800012d2:	c91d                	beqz	a0,80001308 <OLED_ShowString+0x594>
800012d4:	10025537          	lui	a0,0x10025
800012d8:	a58ff0ef          	jal	ra,80000530 <i2c_busy>
800012dc:	c515                	beqz	a0,80001308 <OLED_ShowString+0x594>
800012de:	10025537          	lui	a0,0x10025
800012e2:	a4eff0ef          	jal	ra,80000530 <i2c_busy>
800012e6:	c10d                	beqz	a0,80001308 <OLED_ShowString+0x594>
800012e8:	10025537          	lui	a0,0x10025
800012ec:	a44ff0ef          	jal	ra,80000530 <i2c_busy>
800012f0:	cd01                	beqz	a0,80001308 <OLED_ShowString+0x594>
800012f2:	10025537          	lui	a0,0x10025
800012f6:	a3aff0ef          	jal	ra,80000530 <i2c_busy>
800012fa:	c519                	beqz	a0,80001308 <OLED_ShowString+0x594>
800012fc:	10025537          	lui	a0,0x10025
80001300:	a30ff0ef          	jal	ra,80000530 <i2c_busy>
80001304:	f94d                	bnez	a0,800012b6 <OLED_ShowString+0x542>
80001306:	0001                	nop
C:\Users\ming\Desktop\i2c\Debug/../application/oled.c:65
  while(i2c_busy(I2C_ID));
80001308:	10025537          	lui	a0,0x10025
8000130c:	a24ff0ef          	jal	ra,80000530 <i2c_busy>
80001310:	ee050ce3          	beqz	a0,80001208 <OLED_ShowString+0x494>
80001314:	10025537          	lui	a0,0x10025
80001318:	a18ff0ef          	jal	ra,80000530 <i2c_busy>
8000131c:	ee0506e3          	beqz	a0,80001208 <OLED_ShowString+0x494>
80001320:	10025537          	lui	a0,0x10025
80001324:	a0cff0ef          	jal	ra,80000530 <i2c_busy>
80001328:	ee0500e3          	beqz	a0,80001208 <OLED_ShowString+0x494>
8000132c:	10025537          	lui	a0,0x10025
80001330:	a00ff0ef          	jal	ra,80000530 <i2c_busy>
80001334:	ec050ae3          	beqz	a0,80001208 <OLED_ShowString+0x494>
80001338:	10025537          	lui	a0,0x10025
8000133c:	9f4ff0ef          	jal	ra,80000530 <i2c_busy>
80001340:	ec0504e3          	beqz	a0,80001208 <OLED_ShowString+0x494>
80001344:	10025537          	lui	a0,0x10025
80001348:	9e8ff0ef          	jal	ra,80000530 <i2c_busy>
8000134c:	ea050ee3          	beqz	a0,80001208 <OLED_ShowString+0x494>
80001350:	10025537          	lui	a0,0x10025
80001354:	9dcff0ef          	jal	ra,80000530 <i2c_busy>
80001358:	ea0508e3          	beqz	a0,80001208 <OLED_ShowString+0x494>
8000135c:	10025537          	lui	a0,0x10025
80001360:	9d0ff0ef          	jal	ra,80000530 <i2c_busy>
80001364:	f155                	bnez	a0,80001308 <OLED_ShowString+0x594>
OLED_ShowChar():
C:\Users\ming\Desktop\i2c\Debug/../application/oled.c:146
  for (i = 0; i < size1; i++)
80001366:	0485                	addi	s1,s1,1
80001368:	01049513          	slli	a0,s1,0x10
8000136c:	01055593          	srli	a1,a0,0x10
80001370:	d955e4e3          	bltu	a1,s5,800010f8 <OLED_ShowString+0x384>
80001374:	b54d                	j	80001216 <OLED_ShowString+0x4a2>
80001376:	0001                	nop
OLED_Set_Pos():
C:\Users\ming\Desktop\i2c\Debug/../application/oled.c:103
  OLED_WR_Byte(0xb0 + y, OLED_CMD);
80001378:	fb098813          	addi	a6,s3,-80
OLED_ShowChar():
C:\Users\ming\Desktop\i2c\Debug/../application/oled.c:149
      OLED_Set_Pos(x, y++);
8000137c:	00198613          	addi	a2,s3,1
OLED_WR_Byte():
C:\Users\ming\Desktop\i2c\Debug/../application/oled.c:46
	  *(gTxPacket+1)=dat;
80001380:	010400a3          	sb	a6,1(s0)
C:\Users\ming\Desktop\i2c\Debug/../application/oled.c:47
	  i2c_send_data(I2C_ID, 0x3c);
80001384:	03c00593          	li	a1,60
80001388:	10025537          	lui	a0,0x10025
OLED_ShowChar():
C:\Users\ming\Desktop\i2c\Debug/../application/oled.c:149
      OLED_Set_Pos(x, y++);
8000138c:	0ff67993          	zext.b	s3,a2
OLED_WR_Byte():
C:\Users\ming\Desktop\i2c\Debug/../application/oled.c:44
	  {*(gTxPacket)=0x00;}
80001390:	86018223          	sb	zero,-1948(gp) # 90000234 <gTxPacket>
C:\Users\ming\Desktop\i2c\Debug/../application/oled.c:47
	  i2c_send_data(I2C_ID, 0x3c);
80001394:	974ff0ef          	jal	ra,80000508 <i2c_send_data>
C:\Users\ming\Desktop\i2c\Debug/../application/oled.c:48
	  i2c_send_command(I2C_ID, I2C_WRITE);
80001398:	45c1                	li	a1,16
8000139a:	10025537          	lui	a0,0x10025
8000139e:	97eff0ef          	jal	ra,8000051c <i2c_send_command>
C:\Users\ming\Desktop\i2c\Debug/../application/oled.c:50
	      i2c_send_data(I2C_ID, *(gTxPacket+i));            //write i-th byte into fifo
800013a2:	00044583          	lbu	a1,0(s0)
800013a6:	10025537          	lui	a0,0x10025
800013aa:	95eff0ef          	jal	ra,80000508 <i2c_send_data>
C:\Users\ming\Desktop\i2c\Debug/../application/oled.c:51
	      i2c_send_command(I2C_ID, I2C_START_WRITE); //send data on the i2c bus                 //wait for ack
800013ae:	09000593          	li	a1,144
800013b2:	10025537          	lui	a0,0x10025
800013b6:	966ff0ef          	jal	ra,8000051c <i2c_send_command>
C:\Users\ming\Desktop\i2c\Debug/../application/oled.c:50
	      i2c_send_data(I2C_ID, *(gTxPacket+i));            //write i-th byte into fifo
800013ba:	00144583          	lbu	a1,1(s0)
800013be:	10025537          	lui	a0,0x10025
800013c2:	946ff0ef          	jal	ra,80000508 <i2c_send_data>
C:\Users\ming\Desktop\i2c\Debug/../application/oled.c:51
	      i2c_send_command(I2C_ID, I2C_START_WRITE); //send data on the i2c bus                 //wait for ack
800013c6:	09000593          	li	a1,144
800013ca:	10025537          	lui	a0,0x10025
800013ce:	94eff0ef          	jal	ra,8000051c <i2c_send_command>
C:\Users\ming\Desktop\i2c\Debug/../application/oled.c:53
	  while(i2c_busy(I2C_ID));
800013d2:	10025537          	lui	a0,0x10025
800013d6:	95aff0ef          	jal	ra,80000530 <i2c_busy>
800013da:	c529                	beqz	a0,80001424 <OLED_ShowString+0x6b0>
800013dc:	10025537          	lui	a0,0x10025
800013e0:	950ff0ef          	jal	ra,80000530 <i2c_busy>
800013e4:	c121                	beqz	a0,80001424 <OLED_ShowString+0x6b0>
800013e6:	10025537          	lui	a0,0x10025
800013ea:	946ff0ef          	jal	ra,80000530 <i2c_busy>
800013ee:	c91d                	beqz	a0,80001424 <OLED_ShowString+0x6b0>
800013f0:	10025537          	lui	a0,0x10025
800013f4:	93cff0ef          	jal	ra,80000530 <i2c_busy>
800013f8:	c515                	beqz	a0,80001424 <OLED_ShowString+0x6b0>
800013fa:	10025537          	lui	a0,0x10025
800013fe:	932ff0ef          	jal	ra,80000530 <i2c_busy>
80001402:	c10d                	beqz	a0,80001424 <OLED_ShowString+0x6b0>
80001404:	10025537          	lui	a0,0x10025
80001408:	928ff0ef          	jal	ra,80000530 <i2c_busy>
8000140c:	cd01                	beqz	a0,80001424 <OLED_ShowString+0x6b0>
8000140e:	10025537          	lui	a0,0x10025
80001412:	91eff0ef          	jal	ra,80000530 <i2c_busy>
80001416:	c519                	beqz	a0,80001424 <OLED_ShowString+0x6b0>
80001418:	10025537          	lui	a0,0x10025
8000141c:	914ff0ef          	jal	ra,80000530 <i2c_busy>
80001420:	f94d                	bnez	a0,800013d2 <OLED_ShowString+0x65e>
80001422:	0001                	nop
C:\Users\ming\Desktop\i2c\Debug/../application/oled.c:65
  while(i2c_busy(I2C_ID));
80001424:	10025537          	lui	a0,0x10025
80001428:	908ff0ef          	jal	ra,80000530 <i2c_busy>
8000142c:	c521                	beqz	a0,80001474 <OLED_ShowString+0x700>
8000142e:	10025537          	lui	a0,0x10025
80001432:	8feff0ef          	jal	ra,80000530 <i2c_busy>
80001436:	cd1d                	beqz	a0,80001474 <OLED_ShowString+0x700>
80001438:	10025537          	lui	a0,0x10025
8000143c:	8f4ff0ef          	jal	ra,80000530 <i2c_busy>
80001440:	c915                	beqz	a0,80001474 <OLED_ShowString+0x700>
80001442:	10025537          	lui	a0,0x10025
80001446:	8eaff0ef          	jal	ra,80000530 <i2c_busy>
8000144a:	c50d                	beqz	a0,80001474 <OLED_ShowString+0x700>
8000144c:	10025537          	lui	a0,0x10025
80001450:	8e0ff0ef          	jal	ra,80000530 <i2c_busy>
80001454:	c105                	beqz	a0,80001474 <OLED_ShowString+0x700>
80001456:	10025537          	lui	a0,0x10025
8000145a:	8d6ff0ef          	jal	ra,80000530 <i2c_busy>
8000145e:	c919                	beqz	a0,80001474 <OLED_ShowString+0x700>
80001460:	10025537          	lui	a0,0x10025
80001464:	8ccff0ef          	jal	ra,80000530 <i2c_busy>
80001468:	c511                	beqz	a0,80001474 <OLED_ShowString+0x700>
8000146a:	10025537          	lui	a0,0x10025
8000146e:	8c2ff0ef          	jal	ra,80000530 <i2c_busy>
80001472:	f94d                	bnez	a0,80001424 <OLED_ShowString+0x6b0>
C:\Users\ming\Desktop\i2c\Debug/../application/oled.c:46
	  *(gTxPacket+1)=dat;
80001474:	4722                	lw	a4,8(sp)
C:\Users\ming\Desktop\i2c\Debug/../application/oled.c:47
	  i2c_send_data(I2C_ID, 0x3c);
80001476:	03c00593          	li	a1,60
8000147a:	10025537          	lui	a0,0x10025
C:\Users\ming\Desktop\i2c\Debug/../application/oled.c:46
	  *(gTxPacket+1)=dat;
8000147e:	00e400a3          	sb	a4,1(s0)
C:\Users\ming\Desktop\i2c\Debug/../application/oled.c:44
	  {*(gTxPacket)=0x00;}
80001482:	86018223          	sb	zero,-1948(gp) # 90000234 <gTxPacket>
C:\Users\ming\Desktop\i2c\Debug/../application/oled.c:47
	  i2c_send_data(I2C_ID, 0x3c);
80001486:	882ff0ef          	jal	ra,80000508 <i2c_send_data>
C:\Users\ming\Desktop\i2c\Debug/../application/oled.c:48
	  i2c_send_command(I2C_ID, I2C_WRITE);
8000148a:	45c1                	li	a1,16
8000148c:	10025537          	lui	a0,0x10025
80001490:	88cff0ef          	jal	ra,8000051c <i2c_send_command>
C:\Users\ming\Desktop\i2c\Debug/../application/oled.c:50
	      i2c_send_data(I2C_ID, *(gTxPacket+i));            //write i-th byte into fifo
80001494:	00044583          	lbu	a1,0(s0)
80001498:	10025537          	lui	a0,0x10025
8000149c:	86cff0ef          	jal	ra,80000508 <i2c_send_data>
C:\Users\ming\Desktop\i2c\Debug/../application/oled.c:51
	      i2c_send_command(I2C_ID, I2C_START_WRITE); //send data on the i2c bus                 //wait for ack
800014a0:	09000593          	li	a1,144
800014a4:	10025537          	lui	a0,0x10025
800014a8:	874ff0ef          	jal	ra,8000051c <i2c_send_command>
C:\Users\ming\Desktop\i2c\Debug/../application/oled.c:50
	      i2c_send_data(I2C_ID, *(gTxPacket+i));            //write i-th byte into fifo
800014ac:	00144583          	lbu	a1,1(s0)
800014b0:	10025537          	lui	a0,0x10025
800014b4:	854ff0ef          	jal	ra,80000508 <i2c_send_data>
C:\Users\ming\Desktop\i2c\Debug/../application/oled.c:51
	      i2c_send_command(I2C_ID, I2C_START_WRITE); //send data on the i2c bus                 //wait for ack
800014b8:	09000593          	li	a1,144
800014bc:	10025537          	lui	a0,0x10025
800014c0:	85cff0ef          	jal	ra,8000051c <i2c_send_command>
C:\Users\ming\Desktop\i2c\Debug/../application/oled.c:53
	  while(i2c_busy(I2C_ID));
800014c4:	10025537          	lui	a0,0x10025
800014c8:	868ff0ef          	jal	ra,80000530 <i2c_busy>
800014cc:	c521                	beqz	a0,80001514 <OLED_ShowString+0x7a0>
800014ce:	10025537          	lui	a0,0x10025
800014d2:	85eff0ef          	jal	ra,80000530 <i2c_busy>
800014d6:	cd1d                	beqz	a0,80001514 <OLED_ShowString+0x7a0>
800014d8:	10025537          	lui	a0,0x10025
800014dc:	854ff0ef          	jal	ra,80000530 <i2c_busy>
800014e0:	c915                	beqz	a0,80001514 <OLED_ShowString+0x7a0>
800014e2:	10025537          	lui	a0,0x10025
800014e6:	84aff0ef          	jal	ra,80000530 <i2c_busy>
800014ea:	c50d                	beqz	a0,80001514 <OLED_ShowString+0x7a0>
800014ec:	10025537          	lui	a0,0x10025
800014f0:	840ff0ef          	jal	ra,80000530 <i2c_busy>
800014f4:	c105                	beqz	a0,80001514 <OLED_ShowString+0x7a0>
800014f6:	10025537          	lui	a0,0x10025
800014fa:	836ff0ef          	jal	ra,80000530 <i2c_busy>
800014fe:	c919                	beqz	a0,80001514 <OLED_ShowString+0x7a0>
80001500:	10025537          	lui	a0,0x10025
80001504:	82cff0ef          	jal	ra,80000530 <i2c_busy>
80001508:	c511                	beqz	a0,80001514 <OLED_ShowString+0x7a0>
8000150a:	10025537          	lui	a0,0x10025
8000150e:	822ff0ef          	jal	ra,80000530 <i2c_busy>
80001512:	f94d                	bnez	a0,800014c4 <OLED_ShowString+0x750>
C:\Users\ming\Desktop\i2c\Debug/../application/oled.c:65
  while(i2c_busy(I2C_ID));
80001514:	10025537          	lui	a0,0x10025
80001518:	818ff0ef          	jal	ra,80000530 <i2c_busy>
8000151c:	c521                	beqz	a0,80001564 <OLED_ShowString+0x7f0>
8000151e:	10025537          	lui	a0,0x10025
80001522:	80eff0ef          	jal	ra,80000530 <i2c_busy>
80001526:	cd1d                	beqz	a0,80001564 <OLED_ShowString+0x7f0>
80001528:	10025537          	lui	a0,0x10025
8000152c:	804ff0ef          	jal	ra,80000530 <i2c_busy>
80001530:	c915                	beqz	a0,80001564 <OLED_ShowString+0x7f0>
80001532:	10025537          	lui	a0,0x10025
80001536:	ffbfe0ef          	jal	ra,80000530 <i2c_busy>
8000153a:	c50d                	beqz	a0,80001564 <OLED_ShowString+0x7f0>
8000153c:	10025537          	lui	a0,0x10025
80001540:	ff1fe0ef          	jal	ra,80000530 <i2c_busy>
80001544:	c105                	beqz	a0,80001564 <OLED_ShowString+0x7f0>
80001546:	10025537          	lui	a0,0x10025
8000154a:	fe7fe0ef          	jal	ra,80000530 <i2c_busy>
8000154e:	c919                	beqz	a0,80001564 <OLED_ShowString+0x7f0>
80001550:	10025537          	lui	a0,0x10025
80001554:	fddfe0ef          	jal	ra,80000530 <i2c_busy>
80001558:	c511                	beqz	a0,80001564 <OLED_ShowString+0x7f0>
8000155a:	10025537          	lui	a0,0x10025
8000155e:	fd3fe0ef          	jal	ra,80000530 <i2c_busy>
80001562:	f94d                	bnez	a0,80001514 <OLED_ShowString+0x7a0>
C:\Users\ming\Desktop\i2c\Debug/../application/oled.c:47
	  i2c_send_data(I2C_ID, 0x3c);
80001564:	03c00593          	li	a1,60
80001568:	10025537          	lui	a0,0x10025
C:\Users\ming\Desktop\i2c\Debug/../application/oled.c:46
	  *(gTxPacket+1)=dat;
8000156c:	01b400a3          	sb	s11,1(s0)
C:\Users\ming\Desktop\i2c\Debug/../application/oled.c:44
	  {*(gTxPacket)=0x00;}
80001570:	86018223          	sb	zero,-1948(gp) # 90000234 <gTxPacket>
C:\Users\ming\Desktop\i2c\Debug/../application/oled.c:47
	  i2c_send_data(I2C_ID, 0x3c);
80001574:	f95fe0ef          	jal	ra,80000508 <i2c_send_data>
C:\Users\ming\Desktop\i2c\Debug/../application/oled.c:48
	  i2c_send_command(I2C_ID, I2C_WRITE);
80001578:	45c1                	li	a1,16
8000157a:	10025537          	lui	a0,0x10025
8000157e:	f9ffe0ef          	jal	ra,8000051c <i2c_send_command>
C:\Users\ming\Desktop\i2c\Debug/../application/oled.c:50
	      i2c_send_data(I2C_ID, *(gTxPacket+i));            //write i-th byte into fifo
80001582:	00044583          	lbu	a1,0(s0)
80001586:	10025537          	lui	a0,0x10025
8000158a:	f7ffe0ef          	jal	ra,80000508 <i2c_send_data>
C:\Users\ming\Desktop\i2c\Debug/../application/oled.c:51
	      i2c_send_command(I2C_ID, I2C_START_WRITE); //send data on the i2c bus                 //wait for ack
8000158e:	09000593          	li	a1,144
80001592:	10025537          	lui	a0,0x10025
80001596:	f87fe0ef          	jal	ra,8000051c <i2c_send_command>
C:\Users\ming\Desktop\i2c\Debug/../application/oled.c:50
	      i2c_send_data(I2C_ID, *(gTxPacket+i));            //write i-th byte into fifo
8000159a:	00144583          	lbu	a1,1(s0)
8000159e:	10025537          	lui	a0,0x10025
800015a2:	f67fe0ef          	jal	ra,80000508 <i2c_send_data>
C:\Users\ming\Desktop\i2c\Debug/../application/oled.c:51
	      i2c_send_command(I2C_ID, I2C_START_WRITE); //send data on the i2c bus                 //wait for ack
800015a6:	09000593          	li	a1,144
800015aa:	10025537          	lui	a0,0x10025
800015ae:	f6ffe0ef          	jal	ra,8000051c <i2c_send_command>
C:\Users\ming\Desktop\i2c\Debug/../application/oled.c:53
	  while(i2c_busy(I2C_ID));
800015b2:	10025537          	lui	a0,0x10025
800015b6:	f7bfe0ef          	jal	ra,80000530 <i2c_busy>
800015ba:	c529                	beqz	a0,80001604 <OLED_ShowString+0x890>
800015bc:	10025537          	lui	a0,0x10025
800015c0:	f71fe0ef          	jal	ra,80000530 <i2c_busy>
800015c4:	c121                	beqz	a0,80001604 <OLED_ShowString+0x890>
800015c6:	10025537          	lui	a0,0x10025
800015ca:	f67fe0ef          	jal	ra,80000530 <i2c_busy>
800015ce:	c91d                	beqz	a0,80001604 <OLED_ShowString+0x890>
800015d0:	10025537          	lui	a0,0x10025
800015d4:	f5dfe0ef          	jal	ra,80000530 <i2c_busy>
800015d8:	c515                	beqz	a0,80001604 <OLED_ShowString+0x890>
800015da:	10025537          	lui	a0,0x10025
800015de:	f53fe0ef          	jal	ra,80000530 <i2c_busy>
800015e2:	c10d                	beqz	a0,80001604 <OLED_ShowString+0x890>
800015e4:	10025537          	lui	a0,0x10025
800015e8:	f49fe0ef          	jal	ra,80000530 <i2c_busy>
800015ec:	cd01                	beqz	a0,80001604 <OLED_ShowString+0x890>
800015ee:	10025537          	lui	a0,0x10025
800015f2:	f3ffe0ef          	jal	ra,80000530 <i2c_busy>
800015f6:	c519                	beqz	a0,80001604 <OLED_ShowString+0x890>
800015f8:	10025537          	lui	a0,0x10025
800015fc:	f35fe0ef          	jal	ra,80000530 <i2c_busy>
80001600:	f94d                	bnez	a0,800015b2 <OLED_ShowString+0x83e>
80001602:	0001                	nop
C:\Users\ming\Desktop\i2c\Debug/../application/oled.c:65
  while(i2c_busy(I2C_ID));
80001604:	10025537          	lui	a0,0x10025
80001608:	f29fe0ef          	jal	ra,80000530 <i2c_busy>
8000160c:	c40506e3          	beqz	a0,80001258 <OLED_ShowString+0x4e4>
80001610:	10025537          	lui	a0,0x10025
80001614:	f1dfe0ef          	jal	ra,80000530 <i2c_busy>
80001618:	c40500e3          	beqz	a0,80001258 <OLED_ShowString+0x4e4>
8000161c:	10025537          	lui	a0,0x10025
80001620:	f11fe0ef          	jal	ra,80000530 <i2c_busy>
80001624:	c2050ae3          	beqz	a0,80001258 <OLED_ShowString+0x4e4>
80001628:	10025537          	lui	a0,0x10025
8000162c:	f05fe0ef          	jal	ra,80000530 <i2c_busy>
80001630:	c20504e3          	beqz	a0,80001258 <OLED_ShowString+0x4e4>
80001634:	10025537          	lui	a0,0x10025
80001638:	ef9fe0ef          	jal	ra,80000530 <i2c_busy>
8000163c:	c0050ee3          	beqz	a0,80001258 <OLED_ShowString+0x4e4>
80001640:	10025537          	lui	a0,0x10025
80001644:	eedfe0ef          	jal	ra,80000530 <i2c_busy>
80001648:	c00508e3          	beqz	a0,80001258 <OLED_ShowString+0x4e4>
8000164c:	10025537          	lui	a0,0x10025
80001650:	ee1fe0ef          	jal	ra,80000530 <i2c_busy>
80001654:	c00502e3          	beqz	a0,80001258 <OLED_ShowString+0x4e4>
80001658:	10025537          	lui	a0,0x10025
8000165c:	ed5fe0ef          	jal	ra,80000530 <i2c_busy>
80001660:	f155                	bnez	a0,80001604 <OLED_ShowString+0x890>
OLED_ShowChar():
C:\Users\ming\Desktop\i2c\Debug/../application/oled.c:152
    else if (sizey == 16)
80001662:	bf890de3          	beq	s2,s8,8000125c <OLED_ShowString+0x4e8>
OLED_ShowString():
C:\Users\ming\Desktop\i2c\Debug/../application/oled.c:200
      x += sizey / 2;
80001666:	4d92                	lw	s11,4(sp)
80001668:	01bb0eb3          	add	t4,s6,s11
8000166c:	0ffef993          	zext.b	s3,t4
80001670:	c24e                	sw	s3,4(sp)
80001672:	be55                	j	80001226 <OLED_ShowString+0x4b2>
80001674:	0000                	unimp
	...

80001678 <OLED_Init>:
OLED_Init():
C:\Users\ming\Desktop\i2c\Debug/../application/oled.c:237
  }
}


void OLED_Init(void)
{
80001678:	1101                	addi	sp,sp,-32
OLED_WR_Byte():
C:\Users\ming\Desktop\i2c\Debug/../application/oled.c:44
	  {*(gTxPacket)=0x00;}
8000167a:	77ed                	lui	a5,0xffffb
OLED_Init():
C:\Users\ming\Desktop\i2c\Debug/../application/oled.c:237
{
8000167c:	ce06                	sw	ra,28(sp)
8000167e:	cc22                	sw	s0,24(sp)
OLED_WR_Byte():
C:\Users\ming\Desktop\i2c\Debug/../application/oled.c:44
	  {*(gTxPacket)=0x00;}
80001680:	e0078093          	addi	ra,a5,-512 # ffffae00 <_sp+0x6ffeae00>
80001684:	86418413          	addi	s0,gp,-1948 # 90000234 <gTxPacket>
C:\Users\ming\Desktop\i2c\Debug/../application/oled.c:47
	  i2c_send_data(I2C_ID, 0x3c);
80001688:	03c00593          	li	a1,60
8000168c:	10025537          	lui	a0,0x10025
C:\Users\ming\Desktop\i2c\Debug/../application/oled.c:44
	  {*(gTxPacket)=0x00;}
80001690:	00141023          	sh	ra,0(s0)
OLED_Init():
C:\Users\ming\Desktop\i2c\Debug/../application/oled.c:237
{
80001694:	ca26                	sw	s1,20(sp)
80001696:	c84a                	sw	s2,16(sp)
80001698:	c64e                	sw	s3,12(sp)
8000169a:	c452                	sw	s4,8(sp)
8000169c:	c256                	sw	s5,4(sp)
OLED_WR_Byte():
C:\Users\ming\Desktop\i2c\Debug/../application/oled.c:47
	  i2c_send_data(I2C_ID, 0x3c);
8000169e:	e6bfe0ef          	jal	ra,80000508 <i2c_send_data>
C:\Users\ming\Desktop\i2c\Debug/../application/oled.c:48
	  i2c_send_command(I2C_ID, I2C_WRITE);
800016a2:	45c1                	li	a1,16
800016a4:	10025537          	lui	a0,0x10025
800016a8:	e75fe0ef          	jal	ra,8000051c <i2c_send_command>
C:\Users\ming\Desktop\i2c\Debug/../application/oled.c:50
	      i2c_send_data(I2C_ID, *(gTxPacket+i));            //write i-th byte into fifo
800016ac:	00044583          	lbu	a1,0(s0)
800016b0:	10025537          	lui	a0,0x10025
800016b4:	e55fe0ef          	jal	ra,80000508 <i2c_send_data>
C:\Users\ming\Desktop\i2c\Debug/../application/oled.c:51
	      i2c_send_command(I2C_ID, I2C_START_WRITE); //send data on the i2c bus                 //wait for ack
800016b8:	09000593          	li	a1,144
800016bc:	10025537          	lui	a0,0x10025
800016c0:	e5dfe0ef          	jal	ra,8000051c <i2c_send_command>
C:\Users\ming\Desktop\i2c\Debug/../application/oled.c:50
	      i2c_send_data(I2C_ID, *(gTxPacket+i));            //write i-th byte into fifo
800016c4:	00144583          	lbu	a1,1(s0)
800016c8:	10025537          	lui	a0,0x10025
800016cc:	e3dfe0ef          	jal	ra,80000508 <i2c_send_data>
C:\Users\ming\Desktop\i2c\Debug/../application/oled.c:51
	      i2c_send_command(I2C_ID, I2C_START_WRITE); //send data on the i2c bus                 //wait for ack
800016d0:	09000593          	li	a1,144
800016d4:	10025537          	lui	a0,0x10025
800016d8:	e45fe0ef          	jal	ra,8000051c <i2c_send_command>
C:\Users\ming\Desktop\i2c\Debug/../application/oled.c:53
	  while(i2c_busy(I2C_ID));
800016dc:	10025537          	lui	a0,0x10025
800016e0:	e51fe0ef          	jal	ra,80000530 <i2c_busy>
800016e4:	c521                	beqz	a0,8000172c <OLED_Init+0xb4>
800016e6:	10025537          	lui	a0,0x10025
800016ea:	e47fe0ef          	jal	ra,80000530 <i2c_busy>
800016ee:	cd1d                	beqz	a0,8000172c <OLED_Init+0xb4>
800016f0:	10025537          	lui	a0,0x10025
800016f4:	e3dfe0ef          	jal	ra,80000530 <i2c_busy>
800016f8:	c915                	beqz	a0,8000172c <OLED_Init+0xb4>
800016fa:	10025537          	lui	a0,0x10025
800016fe:	e33fe0ef          	jal	ra,80000530 <i2c_busy>
80001702:	c50d                	beqz	a0,8000172c <OLED_Init+0xb4>
80001704:	10025537          	lui	a0,0x10025
80001708:	e29fe0ef          	jal	ra,80000530 <i2c_busy>
8000170c:	c105                	beqz	a0,8000172c <OLED_Init+0xb4>
8000170e:	10025537          	lui	a0,0x10025
80001712:	e1ffe0ef          	jal	ra,80000530 <i2c_busy>
80001716:	c919                	beqz	a0,8000172c <OLED_Init+0xb4>
80001718:	10025537          	lui	a0,0x10025
8000171c:	e15fe0ef          	jal	ra,80000530 <i2c_busy>
80001720:	c511                	beqz	a0,8000172c <OLED_Init+0xb4>
80001722:	10025537          	lui	a0,0x10025
80001726:	e0bfe0ef          	jal	ra,80000530 <i2c_busy>
8000172a:	f94d                	bnez	a0,800016dc <OLED_Init+0x64>
C:\Users\ming\Desktop\i2c\Debug/../application/oled.c:65
  while(i2c_busy(I2C_ID));
8000172c:	10025537          	lui	a0,0x10025
80001730:	e01fe0ef          	jal	ra,80000530 <i2c_busy>
80001734:	c521                	beqz	a0,8000177c <OLED_Init+0x104>
80001736:	10025537          	lui	a0,0x10025
8000173a:	df7fe0ef          	jal	ra,80000530 <i2c_busy>
8000173e:	cd1d                	beqz	a0,8000177c <OLED_Init+0x104>
80001740:	10025537          	lui	a0,0x10025
80001744:	dedfe0ef          	jal	ra,80000530 <i2c_busy>
80001748:	c915                	beqz	a0,8000177c <OLED_Init+0x104>
8000174a:	10025537          	lui	a0,0x10025
8000174e:	de3fe0ef          	jal	ra,80000530 <i2c_busy>
80001752:	c50d                	beqz	a0,8000177c <OLED_Init+0x104>
80001754:	10025537          	lui	a0,0x10025
80001758:	dd9fe0ef          	jal	ra,80000530 <i2c_busy>
8000175c:	c105                	beqz	a0,8000177c <OLED_Init+0x104>
8000175e:	10025537          	lui	a0,0x10025
80001762:	dcffe0ef          	jal	ra,80000530 <i2c_busy>
80001766:	c919                	beqz	a0,8000177c <OLED_Init+0x104>
80001768:	10025537          	lui	a0,0x10025
8000176c:	dc5fe0ef          	jal	ra,80000530 <i2c_busy>
80001770:	c511                	beqz	a0,8000177c <OLED_Init+0x104>
80001772:	10025537          	lui	a0,0x10025
80001776:	dbbfe0ef          	jal	ra,80000530 <i2c_busy>
8000177a:	f94d                	bnez	a0,8000172c <OLED_Init+0xb4>
C:\Users\ming\Desktop\i2c\Debug/../application/oled.c:47
	  i2c_send_data(I2C_ID, 0x3c);
8000177c:	03c00593          	li	a1,60
80001780:	10025537          	lui	a0,0x10025
C:\Users\ming\Desktop\i2c\Debug/../application/oled.c:44
	  {*(gTxPacket)=0x00;}
80001784:	86019223          	sh	zero,-1948(gp) # 90000234 <gTxPacket>
C:\Users\ming\Desktop\i2c\Debug/../application/oled.c:47
	  i2c_send_data(I2C_ID, 0x3c);
80001788:	d81fe0ef          	jal	ra,80000508 <i2c_send_data>
C:\Users\ming\Desktop\i2c\Debug/../application/oled.c:48
	  i2c_send_command(I2C_ID, I2C_WRITE);
8000178c:	45c1                	li	a1,16
8000178e:	10025537          	lui	a0,0x10025
80001792:	d8bfe0ef          	jal	ra,8000051c <i2c_send_command>
C:\Users\ming\Desktop\i2c\Debug/../application/oled.c:50
	      i2c_send_data(I2C_ID, *(gTxPacket+i));            //write i-th byte into fifo
80001796:	00044583          	lbu	a1,0(s0)
8000179a:	10025537          	lui	a0,0x10025
8000179e:	d6bfe0ef          	jal	ra,80000508 <i2c_send_data>
C:\Users\ming\Desktop\i2c\Debug/../application/oled.c:51
	      i2c_send_command(I2C_ID, I2C_START_WRITE); //send data on the i2c bus                 //wait for ack
800017a2:	09000593          	li	a1,144
800017a6:	10025537          	lui	a0,0x10025
800017aa:	d73fe0ef          	jal	ra,8000051c <i2c_send_command>
C:\Users\ming\Desktop\i2c\Debug/../application/oled.c:50
	      i2c_send_data(I2C_ID, *(gTxPacket+i));            //write i-th byte into fifo
800017ae:	00144583          	lbu	a1,1(s0)
800017b2:	10025537          	lui	a0,0x10025
800017b6:	d53fe0ef          	jal	ra,80000508 <i2c_send_data>
C:\Users\ming\Desktop\i2c\Debug/../application/oled.c:51
	      i2c_send_command(I2C_ID, I2C_START_WRITE); //send data on the i2c bus                 //wait for ack
800017ba:	09000593          	li	a1,144
800017be:	10025537          	lui	a0,0x10025
800017c2:	d5bfe0ef          	jal	ra,8000051c <i2c_send_command>
C:\Users\ming\Desktop\i2c\Debug/../application/oled.c:53
	  while(i2c_busy(I2C_ID));
800017c6:	10025537          	lui	a0,0x10025
800017ca:	d67fe0ef          	jal	ra,80000530 <i2c_busy>
800017ce:	c521                	beqz	a0,80001816 <OLED_Init+0x19e>
800017d0:	10025537          	lui	a0,0x10025
800017d4:	d5dfe0ef          	jal	ra,80000530 <i2c_busy>
800017d8:	cd1d                	beqz	a0,80001816 <OLED_Init+0x19e>
800017da:	10025537          	lui	a0,0x10025
800017de:	d53fe0ef          	jal	ra,80000530 <i2c_busy>
800017e2:	c915                	beqz	a0,80001816 <OLED_Init+0x19e>
800017e4:	10025537          	lui	a0,0x10025
800017e8:	d49fe0ef          	jal	ra,80000530 <i2c_busy>
800017ec:	c50d                	beqz	a0,80001816 <OLED_Init+0x19e>
800017ee:	10025537          	lui	a0,0x10025
800017f2:	d3ffe0ef          	jal	ra,80000530 <i2c_busy>
800017f6:	c105                	beqz	a0,80001816 <OLED_Init+0x19e>
800017f8:	10025537          	lui	a0,0x10025
800017fc:	d35fe0ef          	jal	ra,80000530 <i2c_busy>
80001800:	c919                	beqz	a0,80001816 <OLED_Init+0x19e>
80001802:	10025537          	lui	a0,0x10025
80001806:	d2bfe0ef          	jal	ra,80000530 <i2c_busy>
8000180a:	c511                	beqz	a0,80001816 <OLED_Init+0x19e>
8000180c:	10025537          	lui	a0,0x10025
80001810:	d21fe0ef          	jal	ra,80000530 <i2c_busy>
80001814:	f94d                	bnez	a0,800017c6 <OLED_Init+0x14e>
C:\Users\ming\Desktop\i2c\Debug/../application/oled.c:65
  while(i2c_busy(I2C_ID));
80001816:	10025537          	lui	a0,0x10025
8000181a:	d17fe0ef          	jal	ra,80000530 <i2c_busy>
8000181e:	c521                	beqz	a0,80001866 <OLED_Init+0x1ee>
80001820:	10025537          	lui	a0,0x10025
80001824:	d0dfe0ef          	jal	ra,80000530 <i2c_busy>
80001828:	cd1d                	beqz	a0,80001866 <OLED_Init+0x1ee>
8000182a:	10025537          	lui	a0,0x10025
8000182e:	d03fe0ef          	jal	ra,80000530 <i2c_busy>
80001832:	c915                	beqz	a0,80001866 <OLED_Init+0x1ee>
80001834:	10025537          	lui	a0,0x10025
80001838:	cf9fe0ef          	jal	ra,80000530 <i2c_busy>
8000183c:	c50d                	beqz	a0,80001866 <OLED_Init+0x1ee>
8000183e:	10025537          	lui	a0,0x10025
80001842:	ceffe0ef          	jal	ra,80000530 <i2c_busy>
80001846:	c105                	beqz	a0,80001866 <OLED_Init+0x1ee>
80001848:	10025537          	lui	a0,0x10025
8000184c:	ce5fe0ef          	jal	ra,80000530 <i2c_busy>
80001850:	c919                	beqz	a0,80001866 <OLED_Init+0x1ee>
80001852:	10025537          	lui	a0,0x10025
80001856:	cdbfe0ef          	jal	ra,80000530 <i2c_busy>
8000185a:	c511                	beqz	a0,80001866 <OLED_Init+0x1ee>
8000185c:	10025537          	lui	a0,0x10025
80001860:	cd1fe0ef          	jal	ra,80000530 <i2c_busy>
80001864:	f94d                	bnez	a0,80001816 <OLED_Init+0x19e>
C:\Users\ming\Desktop\i2c\Debug/../application/oled.c:44
	  {*(gTxPacket)=0x00;}
80001866:	6285                	lui	t0,0x1
C:\Users\ming\Desktop\i2c\Debug/../application/oled.c:47
	  i2c_send_data(I2C_ID, 0x3c);
80001868:	03c00593          	li	a1,60
8000186c:	10025537          	lui	a0,0x10025
C:\Users\ming\Desktop\i2c\Debug/../application/oled.c:44
	  {*(gTxPacket)=0x00;}
80001870:	00541023          	sh	t0,0(s0)
C:\Users\ming\Desktop\i2c\Debug/../application/oled.c:47
	  i2c_send_data(I2C_ID, 0x3c);
80001874:	c95fe0ef          	jal	ra,80000508 <i2c_send_data>
C:\Users\ming\Desktop\i2c\Debug/../application/oled.c:48
	  i2c_send_command(I2C_ID, I2C_WRITE);
80001878:	45c1                	li	a1,16
8000187a:	10025537          	lui	a0,0x10025
8000187e:	c9ffe0ef          	jal	ra,8000051c <i2c_send_command>
C:\Users\ming\Desktop\i2c\Debug/../application/oled.c:50
	      i2c_send_data(I2C_ID, *(gTxPacket+i));            //write i-th byte into fifo
80001882:	00044583          	lbu	a1,0(s0)
80001886:	10025537          	lui	a0,0x10025
8000188a:	c7ffe0ef          	jal	ra,80000508 <i2c_send_data>
C:\Users\ming\Desktop\i2c\Debug/../application/oled.c:51
	      i2c_send_command(I2C_ID, I2C_START_WRITE); //send data on the i2c bus                 //wait for ack
8000188e:	09000593          	li	a1,144
80001892:	10025537          	lui	a0,0x10025
80001896:	c87fe0ef          	jal	ra,8000051c <i2c_send_command>
C:\Users\ming\Desktop\i2c\Debug/../application/oled.c:50
	      i2c_send_data(I2C_ID, *(gTxPacket+i));            //write i-th byte into fifo
8000189a:	00144583          	lbu	a1,1(s0)
8000189e:	10025537          	lui	a0,0x10025
800018a2:	c67fe0ef          	jal	ra,80000508 <i2c_send_data>
C:\Users\ming\Desktop\i2c\Debug/../application/oled.c:51
	      i2c_send_command(I2C_ID, I2C_START_WRITE); //send data on the i2c bus                 //wait for ack
800018a6:	09000593          	li	a1,144
800018aa:	10025537          	lui	a0,0x10025
800018ae:	c6ffe0ef          	jal	ra,8000051c <i2c_send_command>
C:\Users\ming\Desktop\i2c\Debug/../application/oled.c:53
	  while(i2c_busy(I2C_ID));
800018b2:	10025537          	lui	a0,0x10025
800018b6:	c7bfe0ef          	jal	ra,80000530 <i2c_busy>
800018ba:	c521                	beqz	a0,80001902 <OLED_Init+0x28a>
800018bc:	10025537          	lui	a0,0x10025
800018c0:	c71fe0ef          	jal	ra,80000530 <i2c_busy>
800018c4:	cd1d                	beqz	a0,80001902 <OLED_Init+0x28a>
800018c6:	10025537          	lui	a0,0x10025
800018ca:	c67fe0ef          	jal	ra,80000530 <i2c_busy>
800018ce:	c915                	beqz	a0,80001902 <OLED_Init+0x28a>
800018d0:	10025537          	lui	a0,0x10025
800018d4:	c5dfe0ef          	jal	ra,80000530 <i2c_busy>
800018d8:	c50d                	beqz	a0,80001902 <OLED_Init+0x28a>
800018da:	10025537          	lui	a0,0x10025
800018de:	c53fe0ef          	jal	ra,80000530 <i2c_busy>
800018e2:	c105                	beqz	a0,80001902 <OLED_Init+0x28a>
800018e4:	10025537          	lui	a0,0x10025
800018e8:	c49fe0ef          	jal	ra,80000530 <i2c_busy>
800018ec:	c919                	beqz	a0,80001902 <OLED_Init+0x28a>
800018ee:	10025537          	lui	a0,0x10025
800018f2:	c3ffe0ef          	jal	ra,80000530 <i2c_busy>
800018f6:	c511                	beqz	a0,80001902 <OLED_Init+0x28a>
800018f8:	10025537          	lui	a0,0x10025
800018fc:	c35fe0ef          	jal	ra,80000530 <i2c_busy>
80001900:	f94d                	bnez	a0,800018b2 <OLED_Init+0x23a>
C:\Users\ming\Desktop\i2c\Debug/../application/oled.c:65
  while(i2c_busy(I2C_ID));
80001902:	10025537          	lui	a0,0x10025
80001906:	c2bfe0ef          	jal	ra,80000530 <i2c_busy>
8000190a:	c521                	beqz	a0,80001952 <OLED_Init+0x2da>
8000190c:	10025537          	lui	a0,0x10025
80001910:	c21fe0ef          	jal	ra,80000530 <i2c_busy>
80001914:	cd1d                	beqz	a0,80001952 <OLED_Init+0x2da>
80001916:	10025537          	lui	a0,0x10025
8000191a:	c17fe0ef          	jal	ra,80000530 <i2c_busy>
8000191e:	c915                	beqz	a0,80001952 <OLED_Init+0x2da>
80001920:	10025537          	lui	a0,0x10025
80001924:	c0dfe0ef          	jal	ra,80000530 <i2c_busy>
80001928:	c50d                	beqz	a0,80001952 <OLED_Init+0x2da>
8000192a:	10025537          	lui	a0,0x10025
8000192e:	c03fe0ef          	jal	ra,80000530 <i2c_busy>
80001932:	c105                	beqz	a0,80001952 <OLED_Init+0x2da>
80001934:	10025537          	lui	a0,0x10025
80001938:	bf9fe0ef          	jal	ra,80000530 <i2c_busy>
8000193c:	c919                	beqz	a0,80001952 <OLED_Init+0x2da>
8000193e:	10025537          	lui	a0,0x10025
80001942:	beffe0ef          	jal	ra,80000530 <i2c_busy>
80001946:	c511                	beqz	a0,80001952 <OLED_Init+0x2da>
80001948:	10025537          	lui	a0,0x10025
8000194c:	be5fe0ef          	jal	ra,80000530 <i2c_busy>
80001950:	f94d                	bnez	a0,80001902 <OLED_Init+0x28a>
C:\Users\ming\Desktop\i2c\Debug/../application/oled.c:44
	  {*(gTxPacket)=0x00;}
80001952:	6311                	lui	t1,0x4
C:\Users\ming\Desktop\i2c\Debug/../application/oled.c:47
	  i2c_send_data(I2C_ID, 0x3c);
80001954:	03c00593          	li	a1,60
80001958:	10025537          	lui	a0,0x10025
C:\Users\ming\Desktop\i2c\Debug/../application/oled.c:44
	  {*(gTxPacket)=0x00;}
8000195c:	00641023          	sh	t1,0(s0)
C:\Users\ming\Desktop\i2c\Debug/../application/oled.c:47
	  i2c_send_data(I2C_ID, 0x3c);
80001960:	ba9fe0ef          	jal	ra,80000508 <i2c_send_data>
C:\Users\ming\Desktop\i2c\Debug/../application/oled.c:48
	  i2c_send_command(I2C_ID, I2C_WRITE);
80001964:	45c1                	li	a1,16
80001966:	10025537          	lui	a0,0x10025
8000196a:	bb3fe0ef          	jal	ra,8000051c <i2c_send_command>
C:\Users\ming\Desktop\i2c\Debug/../application/oled.c:50
	      i2c_send_data(I2C_ID, *(gTxPacket+i));            //write i-th byte into fifo
8000196e:	00044583          	lbu	a1,0(s0)
80001972:	10025537          	lui	a0,0x10025
80001976:	b93fe0ef          	jal	ra,80000508 <i2c_send_data>
C:\Users\ming\Desktop\i2c\Debug/../application/oled.c:51
	      i2c_send_command(I2C_ID, I2C_START_WRITE); //send data on the i2c bus                 //wait for ack
8000197a:	09000593          	li	a1,144
8000197e:	10025537          	lui	a0,0x10025
80001982:	b9bfe0ef          	jal	ra,8000051c <i2c_send_command>
C:\Users\ming\Desktop\i2c\Debug/../application/oled.c:50
	      i2c_send_data(I2C_ID, *(gTxPacket+i));            //write i-th byte into fifo
80001986:	00144583          	lbu	a1,1(s0)
8000198a:	10025537          	lui	a0,0x10025
8000198e:	b7bfe0ef          	jal	ra,80000508 <i2c_send_data>
C:\Users\ming\Desktop\i2c\Debug/../application/oled.c:51
	      i2c_send_command(I2C_ID, I2C_START_WRITE); //send data on the i2c bus                 //wait for ack
80001992:	09000593          	li	a1,144
80001996:	10025537          	lui	a0,0x10025
8000199a:	b83fe0ef          	jal	ra,8000051c <i2c_send_command>
C:\Users\ming\Desktop\i2c\Debug/../application/oled.c:53
	  while(i2c_busy(I2C_ID));
8000199e:	10025537          	lui	a0,0x10025
800019a2:	b8ffe0ef          	jal	ra,80000530 <i2c_busy>
800019a6:	c521                	beqz	a0,800019ee <OLED_Init+0x376>
800019a8:	10025537          	lui	a0,0x10025
800019ac:	b85fe0ef          	jal	ra,80000530 <i2c_busy>
800019b0:	cd1d                	beqz	a0,800019ee <OLED_Init+0x376>
800019b2:	10025537          	lui	a0,0x10025
800019b6:	b7bfe0ef          	jal	ra,80000530 <i2c_busy>
800019ba:	c915                	beqz	a0,800019ee <OLED_Init+0x376>
800019bc:	10025537          	lui	a0,0x10025
800019c0:	b71fe0ef          	jal	ra,80000530 <i2c_busy>
800019c4:	c50d                	beqz	a0,800019ee <OLED_Init+0x376>
800019c6:	10025537          	lui	a0,0x10025
800019ca:	b67fe0ef          	jal	ra,80000530 <i2c_busy>
800019ce:	c105                	beqz	a0,800019ee <OLED_Init+0x376>
800019d0:	10025537          	lui	a0,0x10025
800019d4:	b5dfe0ef          	jal	ra,80000530 <i2c_busy>
800019d8:	c919                	beqz	a0,800019ee <OLED_Init+0x376>
800019da:	10025537          	lui	a0,0x10025
800019de:	b53fe0ef          	jal	ra,80000530 <i2c_busy>
800019e2:	c511                	beqz	a0,800019ee <OLED_Init+0x376>
800019e4:	10025537          	lui	a0,0x10025
800019e8:	b49fe0ef          	jal	ra,80000530 <i2c_busy>
800019ec:	f94d                	bnez	a0,8000199e <OLED_Init+0x326>
C:\Users\ming\Desktop\i2c\Debug/../application/oled.c:65
  while(i2c_busy(I2C_ID));
800019ee:	10025537          	lui	a0,0x10025
800019f2:	b3ffe0ef          	jal	ra,80000530 <i2c_busy>
800019f6:	c521                	beqz	a0,80001a3e <OLED_Init+0x3c6>
800019f8:	10025537          	lui	a0,0x10025
800019fc:	b35fe0ef          	jal	ra,80000530 <i2c_busy>
80001a00:	cd1d                	beqz	a0,80001a3e <OLED_Init+0x3c6>
80001a02:	10025537          	lui	a0,0x10025
80001a06:	b2bfe0ef          	jal	ra,80000530 <i2c_busy>
80001a0a:	c915                	beqz	a0,80001a3e <OLED_Init+0x3c6>
80001a0c:	10025537          	lui	a0,0x10025
80001a10:	b21fe0ef          	jal	ra,80000530 <i2c_busy>
80001a14:	c50d                	beqz	a0,80001a3e <OLED_Init+0x3c6>
80001a16:	10025537          	lui	a0,0x10025
80001a1a:	b17fe0ef          	jal	ra,80000530 <i2c_busy>
80001a1e:	c105                	beqz	a0,80001a3e <OLED_Init+0x3c6>
80001a20:	10025537          	lui	a0,0x10025
80001a24:	b0dfe0ef          	jal	ra,80000530 <i2c_busy>
80001a28:	c919                	beqz	a0,80001a3e <OLED_Init+0x3c6>
80001a2a:	10025537          	lui	a0,0x10025
80001a2e:	b03fe0ef          	jal	ra,80000530 <i2c_busy>
80001a32:	c511                	beqz	a0,80001a3e <OLED_Init+0x3c6>
80001a34:	10025537          	lui	a0,0x10025
80001a38:	af9fe0ef          	jal	ra,80000530 <i2c_busy>
80001a3c:	f94d                	bnez	a0,800019ee <OLED_Init+0x376>
C:\Users\ming\Desktop\i2c\Debug/../application/oled.c:44
	  {*(gTxPacket)=0x00;}
80001a3e:	73e1                	lui	t2,0xffff8
80001a40:	10038493          	addi	s1,t2,256 # ffff8100 <_sp+0x6ffe8100>
C:\Users\ming\Desktop\i2c\Debug/../application/oled.c:47
	  i2c_send_data(I2C_ID, 0x3c);
80001a44:	03c00593          	li	a1,60
80001a48:	10025537          	lui	a0,0x10025
C:\Users\ming\Desktop\i2c\Debug/../application/oled.c:44
	  {*(gTxPacket)=0x00;}
80001a4c:	00941023          	sh	s1,0(s0)
C:\Users\ming\Desktop\i2c\Debug/../application/oled.c:47
	  i2c_send_data(I2C_ID, 0x3c);
80001a50:	ab9fe0ef          	jal	ra,80000508 <i2c_send_data>
C:\Users\ming\Desktop\i2c\Debug/../application/oled.c:48
	  i2c_send_command(I2C_ID, I2C_WRITE);
80001a54:	45c1                	li	a1,16
80001a56:	10025537          	lui	a0,0x10025
80001a5a:	ac3fe0ef          	jal	ra,8000051c <i2c_send_command>
C:\Users\ming\Desktop\i2c\Debug/../application/oled.c:50
	      i2c_send_data(I2C_ID, *(gTxPacket+i));            //write i-th byte into fifo
80001a5e:	00044583          	lbu	a1,0(s0)
80001a62:	10025537          	lui	a0,0x10025
80001a66:	aa3fe0ef          	jal	ra,80000508 <i2c_send_data>
C:\Users\ming\Desktop\i2c\Debug/../application/oled.c:51
	      i2c_send_command(I2C_ID, I2C_START_WRITE); //send data on the i2c bus                 //wait for ack
80001a6a:	09000593          	li	a1,144
80001a6e:	10025537          	lui	a0,0x10025
80001a72:	aabfe0ef          	jal	ra,8000051c <i2c_send_command>
C:\Users\ming\Desktop\i2c\Debug/../application/oled.c:50
	      i2c_send_data(I2C_ID, *(gTxPacket+i));            //write i-th byte into fifo
80001a76:	00144583          	lbu	a1,1(s0)
80001a7a:	10025537          	lui	a0,0x10025
80001a7e:	a8bfe0ef          	jal	ra,80000508 <i2c_send_data>
C:\Users\ming\Desktop\i2c\Debug/../application/oled.c:51
	      i2c_send_command(I2C_ID, I2C_START_WRITE); //send data on the i2c bus                 //wait for ack
80001a82:	09000593          	li	a1,144
80001a86:	10025537          	lui	a0,0x10025
80001a8a:	a93fe0ef          	jal	ra,8000051c <i2c_send_command>
C:\Users\ming\Desktop\i2c\Debug/../application/oled.c:53
	  while(i2c_busy(I2C_ID));
80001a8e:	10025537          	lui	a0,0x10025
80001a92:	a9ffe0ef          	jal	ra,80000530 <i2c_busy>
80001a96:	c521                	beqz	a0,80001ade <OLED_Init+0x466>
80001a98:	10025537          	lui	a0,0x10025
80001a9c:	a95fe0ef          	jal	ra,80000530 <i2c_busy>
80001aa0:	cd1d                	beqz	a0,80001ade <OLED_Init+0x466>
80001aa2:	10025537          	lui	a0,0x10025
80001aa6:	a8bfe0ef          	jal	ra,80000530 <i2c_busy>
80001aaa:	c915                	beqz	a0,80001ade <OLED_Init+0x466>
80001aac:	10025537          	lui	a0,0x10025
80001ab0:	a81fe0ef          	jal	ra,80000530 <i2c_busy>
80001ab4:	c50d                	beqz	a0,80001ade <OLED_Init+0x466>
80001ab6:	10025537          	lui	a0,0x10025
80001aba:	a77fe0ef          	jal	ra,80000530 <i2c_busy>
80001abe:	c105                	beqz	a0,80001ade <OLED_Init+0x466>
80001ac0:	10025537          	lui	a0,0x10025
80001ac4:	a6dfe0ef          	jal	ra,80000530 <i2c_busy>
80001ac8:	c919                	beqz	a0,80001ade <OLED_Init+0x466>
80001aca:	10025537          	lui	a0,0x10025
80001ace:	a63fe0ef          	jal	ra,80000530 <i2c_busy>
80001ad2:	c511                	beqz	a0,80001ade <OLED_Init+0x466>
80001ad4:	10025537          	lui	a0,0x10025
80001ad8:	a59fe0ef          	jal	ra,80000530 <i2c_busy>
80001adc:	f94d                	bnez	a0,80001a8e <OLED_Init+0x416>
C:\Users\ming\Desktop\i2c\Debug/../application/oled.c:65
  while(i2c_busy(I2C_ID));
80001ade:	10025537          	lui	a0,0x10025
80001ae2:	a4ffe0ef          	jal	ra,80000530 <i2c_busy>
80001ae6:	c521                	beqz	a0,80001b2e <OLED_Init+0x4b6>
80001ae8:	10025537          	lui	a0,0x10025
80001aec:	a45fe0ef          	jal	ra,80000530 <i2c_busy>
80001af0:	cd1d                	beqz	a0,80001b2e <OLED_Init+0x4b6>
80001af2:	10025537          	lui	a0,0x10025
80001af6:	a3bfe0ef          	jal	ra,80000530 <i2c_busy>
80001afa:	c915                	beqz	a0,80001b2e <OLED_Init+0x4b6>
80001afc:	10025537          	lui	a0,0x10025
80001b00:	a31fe0ef          	jal	ra,80000530 <i2c_busy>
80001b04:	c50d                	beqz	a0,80001b2e <OLED_Init+0x4b6>
80001b06:	10025537          	lui	a0,0x10025
80001b0a:	a27fe0ef          	jal	ra,80000530 <i2c_busy>
80001b0e:	c105                	beqz	a0,80001b2e <OLED_Init+0x4b6>
80001b10:	10025537          	lui	a0,0x10025
80001b14:	a1dfe0ef          	jal	ra,80000530 <i2c_busy>
80001b18:	c919                	beqz	a0,80001b2e <OLED_Init+0x4b6>
80001b1a:	10025537          	lui	a0,0x10025
80001b1e:	a13fe0ef          	jal	ra,80000530 <i2c_busy>
80001b22:	c511                	beqz	a0,80001b2e <OLED_Init+0x4b6>
80001b24:	10025537          	lui	a0,0x10025
80001b28:	a09fe0ef          	jal	ra,80000530 <i2c_busy>
80001b2c:	f94d                	bnez	a0,80001ade <OLED_Init+0x466>
C:\Users\ming\Desktop\i2c\Debug/../application/oled.c:44
	  {*(gTxPacket)=0x00;}
80001b2e:	7675                	lui	a2,0xffffd
80001b30:	f0060693          	addi	a3,a2,-256 # ffffcf00 <_sp+0x6ffecf00>
C:\Users\ming\Desktop\i2c\Debug/../application/oled.c:47
	  i2c_send_data(I2C_ID, 0x3c);
80001b34:	03c00593          	li	a1,60
80001b38:	10025537          	lui	a0,0x10025
C:\Users\ming\Desktop\i2c\Debug/../application/oled.c:44
	  {*(gTxPacket)=0x00;}
80001b3c:	00d41023          	sh	a3,0(s0)
C:\Users\ming\Desktop\i2c\Debug/../application/oled.c:47
	  i2c_send_data(I2C_ID, 0x3c);
80001b40:	9c9fe0ef          	jal	ra,80000508 <i2c_send_data>
C:\Users\ming\Desktop\i2c\Debug/../application/oled.c:48
	  i2c_send_command(I2C_ID, I2C_WRITE);
80001b44:	45c1                	li	a1,16
80001b46:	10025537          	lui	a0,0x10025
80001b4a:	9d3fe0ef          	jal	ra,8000051c <i2c_send_command>
C:\Users\ming\Desktop\i2c\Debug/../application/oled.c:50
	      i2c_send_data(I2C_ID, *(gTxPacket+i));            //write i-th byte into fifo
80001b4e:	00044583          	lbu	a1,0(s0)
80001b52:	10025537          	lui	a0,0x10025
80001b56:	9b3fe0ef          	jal	ra,80000508 <i2c_send_data>
C:\Users\ming\Desktop\i2c\Debug/../application/oled.c:51
	      i2c_send_command(I2C_ID, I2C_START_WRITE); //send data on the i2c bus                 //wait for ack
80001b5a:	09000593          	li	a1,144
80001b5e:	10025537          	lui	a0,0x10025
80001b62:	9bbfe0ef          	jal	ra,8000051c <i2c_send_command>
C:\Users\ming\Desktop\i2c\Debug/../application/oled.c:50
	      i2c_send_data(I2C_ID, *(gTxPacket+i));            //write i-th byte into fifo
80001b66:	00144583          	lbu	a1,1(s0)
80001b6a:	10025537          	lui	a0,0x10025
80001b6e:	99bfe0ef          	jal	ra,80000508 <i2c_send_data>
C:\Users\ming\Desktop\i2c\Debug/../application/oled.c:51
	      i2c_send_command(I2C_ID, I2C_START_WRITE); //send data on the i2c bus                 //wait for ack
80001b72:	09000593          	li	a1,144
80001b76:	10025537          	lui	a0,0x10025
80001b7a:	9a3fe0ef          	jal	ra,8000051c <i2c_send_command>
C:\Users\ming\Desktop\i2c\Debug/../application/oled.c:53
	  while(i2c_busy(I2C_ID));
80001b7e:	10025537          	lui	a0,0x10025
80001b82:	9affe0ef          	jal	ra,80000530 <i2c_busy>
80001b86:	c521                	beqz	a0,80001bce <OLED_Init+0x556>
80001b88:	10025537          	lui	a0,0x10025
80001b8c:	9a5fe0ef          	jal	ra,80000530 <i2c_busy>
80001b90:	cd1d                	beqz	a0,80001bce <OLED_Init+0x556>
80001b92:	10025537          	lui	a0,0x10025
80001b96:	99bfe0ef          	jal	ra,80000530 <i2c_busy>
80001b9a:	c915                	beqz	a0,80001bce <OLED_Init+0x556>
80001b9c:	10025537          	lui	a0,0x10025
80001ba0:	991fe0ef          	jal	ra,80000530 <i2c_busy>
80001ba4:	c50d                	beqz	a0,80001bce <OLED_Init+0x556>
80001ba6:	10025537          	lui	a0,0x10025
80001baa:	987fe0ef          	jal	ra,80000530 <i2c_busy>
80001bae:	c105                	beqz	a0,80001bce <OLED_Init+0x556>
80001bb0:	10025537          	lui	a0,0x10025
80001bb4:	97dfe0ef          	jal	ra,80000530 <i2c_busy>
80001bb8:	c919                	beqz	a0,80001bce <OLED_Init+0x556>
80001bba:	10025537          	lui	a0,0x10025
80001bbe:	973fe0ef          	jal	ra,80000530 <i2c_busy>
80001bc2:	c511                	beqz	a0,80001bce <OLED_Init+0x556>
80001bc4:	10025537          	lui	a0,0x10025
80001bc8:	969fe0ef          	jal	ra,80000530 <i2c_busy>
80001bcc:	f94d                	bnez	a0,80001b7e <OLED_Init+0x506>
C:\Users\ming\Desktop\i2c\Debug/../application/oled.c:65
  while(i2c_busy(I2C_ID));
80001bce:	10025537          	lui	a0,0x10025
80001bd2:	95ffe0ef          	jal	ra,80000530 <i2c_busy>
80001bd6:	c521                	beqz	a0,80001c1e <OLED_Init+0x5a6>
80001bd8:	10025537          	lui	a0,0x10025
80001bdc:	955fe0ef          	jal	ra,80000530 <i2c_busy>
80001be0:	cd1d                	beqz	a0,80001c1e <OLED_Init+0x5a6>
80001be2:	10025537          	lui	a0,0x10025
80001be6:	94bfe0ef          	jal	ra,80000530 <i2c_busy>
80001bea:	c915                	beqz	a0,80001c1e <OLED_Init+0x5a6>
80001bec:	10025537          	lui	a0,0x10025
80001bf0:	941fe0ef          	jal	ra,80000530 <i2c_busy>
80001bf4:	c50d                	beqz	a0,80001c1e <OLED_Init+0x5a6>
80001bf6:	10025537          	lui	a0,0x10025
80001bfa:	937fe0ef          	jal	ra,80000530 <i2c_busy>
80001bfe:	c105                	beqz	a0,80001c1e <OLED_Init+0x5a6>
80001c00:	10025537          	lui	a0,0x10025
80001c04:	92dfe0ef          	jal	ra,80000530 <i2c_busy>
80001c08:	c919                	beqz	a0,80001c1e <OLED_Init+0x5a6>
80001c0a:	10025537          	lui	a0,0x10025
80001c0e:	923fe0ef          	jal	ra,80000530 <i2c_busy>
80001c12:	c511                	beqz	a0,80001c1e <OLED_Init+0x5a6>
80001c14:	10025537          	lui	a0,0x10025
80001c18:	919fe0ef          	jal	ra,80000530 <i2c_busy>
80001c1c:	f94d                	bnez	a0,80001bce <OLED_Init+0x556>
C:\Users\ming\Desktop\i2c\Debug/../application/oled.c:44
	  {*(gTxPacket)=0x00;}
80001c1e:	7769                	lui	a4,0xffffa
80001c20:	10070813          	addi	a6,a4,256 # ffffa100 <_sp+0x6ffea100>
C:\Users\ming\Desktop\i2c\Debug/../application/oled.c:47
	  i2c_send_data(I2C_ID, 0x3c);
80001c24:	03c00593          	li	a1,60
80001c28:	10025537          	lui	a0,0x10025
C:\Users\ming\Desktop\i2c\Debug/../application/oled.c:44
	  {*(gTxPacket)=0x00;}
80001c2c:	01041023          	sh	a6,0(s0)
C:\Users\ming\Desktop\i2c\Debug/../application/oled.c:47
	  i2c_send_data(I2C_ID, 0x3c);
80001c30:	8d9fe0ef          	jal	ra,80000508 <i2c_send_data>
C:\Users\ming\Desktop\i2c\Debug/../application/oled.c:48
	  i2c_send_command(I2C_ID, I2C_WRITE);
80001c34:	45c1                	li	a1,16
80001c36:	10025537          	lui	a0,0x10025
80001c3a:	8e3fe0ef          	jal	ra,8000051c <i2c_send_command>
C:\Users\ming\Desktop\i2c\Debug/../application/oled.c:50
	      i2c_send_data(I2C_ID, *(gTxPacket+i));            //write i-th byte into fifo
80001c3e:	00044583          	lbu	a1,0(s0)
80001c42:	10025537          	lui	a0,0x10025
80001c46:	8c3fe0ef          	jal	ra,80000508 <i2c_send_data>
C:\Users\ming\Desktop\i2c\Debug/../application/oled.c:51
	      i2c_send_command(I2C_ID, I2C_START_WRITE); //send data on the i2c bus                 //wait for ack
80001c4a:	09000593          	li	a1,144
80001c4e:	10025537          	lui	a0,0x10025
80001c52:	8cbfe0ef          	jal	ra,8000051c <i2c_send_command>
C:\Users\ming\Desktop\i2c\Debug/../application/oled.c:50
	      i2c_send_data(I2C_ID, *(gTxPacket+i));            //write i-th byte into fifo
80001c56:	00144583          	lbu	a1,1(s0)
80001c5a:	10025537          	lui	a0,0x10025
80001c5e:	8abfe0ef          	jal	ra,80000508 <i2c_send_data>
C:\Users\ming\Desktop\i2c\Debug/../application/oled.c:51
	      i2c_send_command(I2C_ID, I2C_START_WRITE); //send data on the i2c bus                 //wait for ack
80001c62:	09000593          	li	a1,144
80001c66:	10025537          	lui	a0,0x10025
80001c6a:	8b3fe0ef          	jal	ra,8000051c <i2c_send_command>
C:\Users\ming\Desktop\i2c\Debug/../application/oled.c:53
	  while(i2c_busy(I2C_ID));
80001c6e:	10025537          	lui	a0,0x10025
80001c72:	8bffe0ef          	jal	ra,80000530 <i2c_busy>
80001c76:	c521                	beqz	a0,80001cbe <OLED_Init+0x646>
80001c78:	10025537          	lui	a0,0x10025
80001c7c:	8b5fe0ef          	jal	ra,80000530 <i2c_busy>
80001c80:	cd1d                	beqz	a0,80001cbe <OLED_Init+0x646>
80001c82:	10025537          	lui	a0,0x10025
80001c86:	8abfe0ef          	jal	ra,80000530 <i2c_busy>
80001c8a:	c915                	beqz	a0,80001cbe <OLED_Init+0x646>
80001c8c:	10025537          	lui	a0,0x10025
80001c90:	8a1fe0ef          	jal	ra,80000530 <i2c_busy>
80001c94:	c50d                	beqz	a0,80001cbe <OLED_Init+0x646>
80001c96:	10025537          	lui	a0,0x10025
80001c9a:	897fe0ef          	jal	ra,80000530 <i2c_busy>
80001c9e:	c105                	beqz	a0,80001cbe <OLED_Init+0x646>
80001ca0:	10025537          	lui	a0,0x10025
80001ca4:	88dfe0ef          	jal	ra,80000530 <i2c_busy>
80001ca8:	c919                	beqz	a0,80001cbe <OLED_Init+0x646>
80001caa:	10025537          	lui	a0,0x10025
80001cae:	883fe0ef          	jal	ra,80000530 <i2c_busy>
80001cb2:	c511                	beqz	a0,80001cbe <OLED_Init+0x646>
80001cb4:	10025537          	lui	a0,0x10025
80001cb8:	879fe0ef          	jal	ra,80000530 <i2c_busy>
80001cbc:	f94d                	bnez	a0,80001c6e <OLED_Init+0x5f6>
C:\Users\ming\Desktop\i2c\Debug/../application/oled.c:65
  while(i2c_busy(I2C_ID));
80001cbe:	10025537          	lui	a0,0x10025
80001cc2:	86ffe0ef          	jal	ra,80000530 <i2c_busy>
80001cc6:	c521                	beqz	a0,80001d0e <OLED_Init+0x696>
80001cc8:	10025537          	lui	a0,0x10025
80001ccc:	865fe0ef          	jal	ra,80000530 <i2c_busy>
80001cd0:	cd1d                	beqz	a0,80001d0e <OLED_Init+0x696>
80001cd2:	10025537          	lui	a0,0x10025
80001cd6:	85bfe0ef          	jal	ra,80000530 <i2c_busy>
80001cda:	c915                	beqz	a0,80001d0e <OLED_Init+0x696>
80001cdc:	10025537          	lui	a0,0x10025
80001ce0:	851fe0ef          	jal	ra,80000530 <i2c_busy>
80001ce4:	c50d                	beqz	a0,80001d0e <OLED_Init+0x696>
80001ce6:	10025537          	lui	a0,0x10025
80001cea:	847fe0ef          	jal	ra,80000530 <i2c_busy>
80001cee:	c105                	beqz	a0,80001d0e <OLED_Init+0x696>
80001cf0:	10025537          	lui	a0,0x10025
80001cf4:	83dfe0ef          	jal	ra,80000530 <i2c_busy>
80001cf8:	c919                	beqz	a0,80001d0e <OLED_Init+0x696>
80001cfa:	10025537          	lui	a0,0x10025
80001cfe:	833fe0ef          	jal	ra,80000530 <i2c_busy>
80001d02:	c511                	beqz	a0,80001d0e <OLED_Init+0x696>
80001d04:	10025537          	lui	a0,0x10025
80001d08:	829fe0ef          	jal	ra,80000530 <i2c_busy>
80001d0c:	f94d                	bnez	a0,80001cbe <OLED_Init+0x646>
C:\Users\ming\Desktop\i2c\Debug/../application/oled.c:44
	  {*(gTxPacket)=0x00;}
80001d0e:	78f5                	lui	a7,0xffffd
80001d10:	80088913          	addi	s2,a7,-2048 # ffffc800 <_sp+0x6ffec800>
C:\Users\ming\Desktop\i2c\Debug/../application/oled.c:47
	  i2c_send_data(I2C_ID, 0x3c);
80001d14:	03c00593          	li	a1,60
80001d18:	10025537          	lui	a0,0x10025
C:\Users\ming\Desktop\i2c\Debug/../application/oled.c:44
	  {*(gTxPacket)=0x00;}
80001d1c:	01241023          	sh	s2,0(s0)
C:\Users\ming\Desktop\i2c\Debug/../application/oled.c:47
	  i2c_send_data(I2C_ID, 0x3c);
80001d20:	fe8fe0ef          	jal	ra,80000508 <i2c_send_data>
C:\Users\ming\Desktop\i2c\Debug/../application/oled.c:48
	  i2c_send_command(I2C_ID, I2C_WRITE);
80001d24:	45c1                	li	a1,16
80001d26:	10025537          	lui	a0,0x10025
80001d2a:	ff2fe0ef          	jal	ra,8000051c <i2c_send_command>
C:\Users\ming\Desktop\i2c\Debug/../application/oled.c:50
	      i2c_send_data(I2C_ID, *(gTxPacket+i));            //write i-th byte into fifo
80001d2e:	00044583          	lbu	a1,0(s0)
80001d32:	10025537          	lui	a0,0x10025
80001d36:	fd2fe0ef          	jal	ra,80000508 <i2c_send_data>
C:\Users\ming\Desktop\i2c\Debug/../application/oled.c:51
	      i2c_send_command(I2C_ID, I2C_START_WRITE); //send data on the i2c bus                 //wait for ack
80001d3a:	09000593          	li	a1,144
80001d3e:	10025537          	lui	a0,0x10025
80001d42:	fdafe0ef          	jal	ra,8000051c <i2c_send_command>
C:\Users\ming\Desktop\i2c\Debug/../application/oled.c:50
	      i2c_send_data(I2C_ID, *(gTxPacket+i));            //write i-th byte into fifo
80001d46:	00144583          	lbu	a1,1(s0)
80001d4a:	10025537          	lui	a0,0x10025
80001d4e:	fbafe0ef          	jal	ra,80000508 <i2c_send_data>
C:\Users\ming\Desktop\i2c\Debug/../application/oled.c:51
	      i2c_send_command(I2C_ID, I2C_START_WRITE); //send data on the i2c bus                 //wait for ack
80001d52:	09000593          	li	a1,144
80001d56:	10025537          	lui	a0,0x10025
80001d5a:	fc2fe0ef          	jal	ra,8000051c <i2c_send_command>
C:\Users\ming\Desktop\i2c\Debug/../application/oled.c:53
	  while(i2c_busy(I2C_ID));
80001d5e:	10025537          	lui	a0,0x10025
80001d62:	fcefe0ef          	jal	ra,80000530 <i2c_busy>
80001d66:	c521                	beqz	a0,80001dae <OLED_Init+0x736>
80001d68:	10025537          	lui	a0,0x10025
80001d6c:	fc4fe0ef          	jal	ra,80000530 <i2c_busy>
80001d70:	cd1d                	beqz	a0,80001dae <OLED_Init+0x736>
80001d72:	10025537          	lui	a0,0x10025
80001d76:	fbafe0ef          	jal	ra,80000530 <i2c_busy>
80001d7a:	c915                	beqz	a0,80001dae <OLED_Init+0x736>
80001d7c:	10025537          	lui	a0,0x10025
80001d80:	fb0fe0ef          	jal	ra,80000530 <i2c_busy>
80001d84:	c50d                	beqz	a0,80001dae <OLED_Init+0x736>
80001d86:	10025537          	lui	a0,0x10025
80001d8a:	fa6fe0ef          	jal	ra,80000530 <i2c_busy>
80001d8e:	c105                	beqz	a0,80001dae <OLED_Init+0x736>
80001d90:	10025537          	lui	a0,0x10025
80001d94:	f9cfe0ef          	jal	ra,80000530 <i2c_busy>
80001d98:	c919                	beqz	a0,80001dae <OLED_Init+0x736>
80001d9a:	10025537          	lui	a0,0x10025
80001d9e:	f92fe0ef          	jal	ra,80000530 <i2c_busy>
80001da2:	c511                	beqz	a0,80001dae <OLED_Init+0x736>
80001da4:	10025537          	lui	a0,0x10025
80001da8:	f88fe0ef          	jal	ra,80000530 <i2c_busy>
80001dac:	f94d                	bnez	a0,80001d5e <OLED_Init+0x6e6>
C:\Users\ming\Desktop\i2c\Debug/../application/oled.c:65
  while(i2c_busy(I2C_ID));
80001dae:	10025537          	lui	a0,0x10025
80001db2:	f7efe0ef          	jal	ra,80000530 <i2c_busy>
80001db6:	c521                	beqz	a0,80001dfe <OLED_Init+0x786>
80001db8:	10025537          	lui	a0,0x10025
80001dbc:	f74fe0ef          	jal	ra,80000530 <i2c_busy>
80001dc0:	cd1d                	beqz	a0,80001dfe <OLED_Init+0x786>
80001dc2:	10025537          	lui	a0,0x10025
80001dc6:	f6afe0ef          	jal	ra,80000530 <i2c_busy>
80001dca:	c915                	beqz	a0,80001dfe <OLED_Init+0x786>
80001dcc:	10025537          	lui	a0,0x10025
80001dd0:	f60fe0ef          	jal	ra,80000530 <i2c_busy>
80001dd4:	c50d                	beqz	a0,80001dfe <OLED_Init+0x786>
80001dd6:	10025537          	lui	a0,0x10025
80001dda:	f56fe0ef          	jal	ra,80000530 <i2c_busy>
80001dde:	c105                	beqz	a0,80001dfe <OLED_Init+0x786>
80001de0:	10025537          	lui	a0,0x10025
80001de4:	f4cfe0ef          	jal	ra,80000530 <i2c_busy>
80001de8:	c919                	beqz	a0,80001dfe <OLED_Init+0x786>
80001dea:	10025537          	lui	a0,0x10025
80001dee:	f42fe0ef          	jal	ra,80000530 <i2c_busy>
80001df2:	c511                	beqz	a0,80001dfe <OLED_Init+0x786>
80001df4:	10025537          	lui	a0,0x10025
80001df8:	f38fe0ef          	jal	ra,80000530 <i2c_busy>
80001dfc:	f94d                	bnez	a0,80001dae <OLED_Init+0x736>
C:\Users\ming\Desktop\i2c\Debug/../application/oled.c:44
	  {*(gTxPacket)=0x00;}
80001dfe:	79e9                	lui	s3,0xffffa
C:\Users\ming\Desktop\i2c\Debug/../application/oled.c:47
	  i2c_send_data(I2C_ID, 0x3c);
80001e00:	03c00593          	li	a1,60
80001e04:	10025537          	lui	a0,0x10025
C:\Users\ming\Desktop\i2c\Debug/../application/oled.c:44
	  {*(gTxPacket)=0x00;}
80001e08:	60098a13          	addi	s4,s3,1536 # ffffa600 <_sp+0x6ffea600>
80001e0c:	01441023          	sh	s4,0(s0)
C:\Users\ming\Desktop\i2c\Debug/../application/oled.c:47
	  i2c_send_data(I2C_ID, 0x3c);
80001e10:	ef8fe0ef          	jal	ra,80000508 <i2c_send_data>
C:\Users\ming\Desktop\i2c\Debug/../application/oled.c:48
	  i2c_send_command(I2C_ID, I2C_WRITE);
80001e14:	45c1                	li	a1,16
80001e16:	10025537          	lui	a0,0x10025
80001e1a:	f02fe0ef          	jal	ra,8000051c <i2c_send_command>
C:\Users\ming\Desktop\i2c\Debug/../application/oled.c:50
	      i2c_send_data(I2C_ID, *(gTxPacket+i));            //write i-th byte into fifo
80001e1e:	00044583          	lbu	a1,0(s0)
80001e22:	10025537          	lui	a0,0x10025
80001e26:	ee2fe0ef          	jal	ra,80000508 <i2c_send_data>
C:\Users\ming\Desktop\i2c\Debug/../application/oled.c:51
	      i2c_send_command(I2C_ID, I2C_START_WRITE); //send data on the i2c bus                 //wait for ack
80001e2a:	09000593          	li	a1,144
80001e2e:	10025537          	lui	a0,0x10025
80001e32:	eeafe0ef          	jal	ra,8000051c <i2c_send_command>
C:\Users\ming\Desktop\i2c\Debug/../application/oled.c:50
	      i2c_send_data(I2C_ID, *(gTxPacket+i));            //write i-th byte into fifo
80001e36:	00144583          	lbu	a1,1(s0)
80001e3a:	10025537          	lui	a0,0x10025
80001e3e:	ecafe0ef          	jal	ra,80000508 <i2c_send_data>
C:\Users\ming\Desktop\i2c\Debug/../application/oled.c:51
	      i2c_send_command(I2C_ID, I2C_START_WRITE); //send data on the i2c bus                 //wait for ack
80001e42:	09000593          	li	a1,144
80001e46:	10025537          	lui	a0,0x10025
80001e4a:	ed2fe0ef          	jal	ra,8000051c <i2c_send_command>
C:\Users\ming\Desktop\i2c\Debug/../application/oled.c:53
	  while(i2c_busy(I2C_ID));
80001e4e:	10025537          	lui	a0,0x10025
80001e52:	edefe0ef          	jal	ra,80000530 <i2c_busy>
80001e56:	c521                	beqz	a0,80001e9e <OLED_Init+0x826>
80001e58:	10025537          	lui	a0,0x10025
80001e5c:	ed4fe0ef          	jal	ra,80000530 <i2c_busy>
80001e60:	cd1d                	beqz	a0,80001e9e <OLED_Init+0x826>
80001e62:	10025537          	lui	a0,0x10025
80001e66:	ecafe0ef          	jal	ra,80000530 <i2c_busy>
80001e6a:	c915                	beqz	a0,80001e9e <OLED_Init+0x826>
80001e6c:	10025537          	lui	a0,0x10025
80001e70:	ec0fe0ef          	jal	ra,80000530 <i2c_busy>
80001e74:	c50d                	beqz	a0,80001e9e <OLED_Init+0x826>
80001e76:	10025537          	lui	a0,0x10025
80001e7a:	eb6fe0ef          	jal	ra,80000530 <i2c_busy>
80001e7e:	c105                	beqz	a0,80001e9e <OLED_Init+0x826>
80001e80:	10025537          	lui	a0,0x10025
80001e84:	eacfe0ef          	jal	ra,80000530 <i2c_busy>
80001e88:	c919                	beqz	a0,80001e9e <OLED_Init+0x826>
80001e8a:	10025537          	lui	a0,0x10025
80001e8e:	ea2fe0ef          	jal	ra,80000530 <i2c_busy>
80001e92:	c511                	beqz	a0,80001e9e <OLED_Init+0x826>
80001e94:	10025537          	lui	a0,0x10025
80001e98:	e98fe0ef          	jal	ra,80000530 <i2c_busy>
80001e9c:	f94d                	bnez	a0,80001e4e <OLED_Init+0x7d6>
C:\Users\ming\Desktop\i2c\Debug/../application/oled.c:65
  while(i2c_busy(I2C_ID));
80001e9e:	10025537          	lui	a0,0x10025
80001ea2:	e8efe0ef          	jal	ra,80000530 <i2c_busy>
80001ea6:	c521                	beqz	a0,80001eee <OLED_Init+0x876>
80001ea8:	10025537          	lui	a0,0x10025
80001eac:	e84fe0ef          	jal	ra,80000530 <i2c_busy>
80001eb0:	cd1d                	beqz	a0,80001eee <OLED_Init+0x876>
80001eb2:	10025537          	lui	a0,0x10025
80001eb6:	e7afe0ef          	jal	ra,80000530 <i2c_busy>
80001eba:	c915                	beqz	a0,80001eee <OLED_Init+0x876>
80001ebc:	10025537          	lui	a0,0x10025
80001ec0:	e70fe0ef          	jal	ra,80000530 <i2c_busy>
80001ec4:	c50d                	beqz	a0,80001eee <OLED_Init+0x876>
80001ec6:	10025537          	lui	a0,0x10025
80001eca:	e66fe0ef          	jal	ra,80000530 <i2c_busy>
80001ece:	c105                	beqz	a0,80001eee <OLED_Init+0x876>
80001ed0:	10025537          	lui	a0,0x10025
80001ed4:	e5cfe0ef          	jal	ra,80000530 <i2c_busy>
80001ed8:	c919                	beqz	a0,80001eee <OLED_Init+0x876>
80001eda:	10025537          	lui	a0,0x10025
80001ede:	e52fe0ef          	jal	ra,80000530 <i2c_busy>
80001ee2:	c511                	beqz	a0,80001eee <OLED_Init+0x876>
80001ee4:	10025537          	lui	a0,0x10025
80001ee8:	e48fe0ef          	jal	ra,80000530 <i2c_busy>
80001eec:	f94d                	bnez	a0,80001e9e <OLED_Init+0x826>
C:\Users\ming\Desktop\i2c\Debug/../application/oled.c:44
	  {*(gTxPacket)=0x00;}
80001eee:	7aed                	lui	s5,0xffffb
80001ef0:	800a8e13          	addi	t3,s5,-2048 # ffffa800 <_sp+0x6ffea800>
C:\Users\ming\Desktop\i2c\Debug/../application/oled.c:47
	  i2c_send_data(I2C_ID, 0x3c);
80001ef4:	03c00593          	li	a1,60
80001ef8:	10025537          	lui	a0,0x10025
C:\Users\ming\Desktop\i2c\Debug/../application/oled.c:44
	  {*(gTxPacket)=0x00;}
80001efc:	01c41023          	sh	t3,0(s0)
C:\Users\ming\Desktop\i2c\Debug/../application/oled.c:47
	  i2c_send_data(I2C_ID, 0x3c);
80001f00:	e08fe0ef          	jal	ra,80000508 <i2c_send_data>
C:\Users\ming\Desktop\i2c\Debug/../application/oled.c:48
	  i2c_send_command(I2C_ID, I2C_WRITE);
80001f04:	45c1                	li	a1,16
80001f06:	10025537          	lui	a0,0x10025
80001f0a:	e12fe0ef          	jal	ra,8000051c <i2c_send_command>
C:\Users\ming\Desktop\i2c\Debug/../application/oled.c:50
	      i2c_send_data(I2C_ID, *(gTxPacket+i));            //write i-th byte into fifo
80001f0e:	00044583          	lbu	a1,0(s0)
80001f12:	10025537          	lui	a0,0x10025
80001f16:	df2fe0ef          	jal	ra,80000508 <i2c_send_data>
C:\Users\ming\Desktop\i2c\Debug/../application/oled.c:51
	      i2c_send_command(I2C_ID, I2C_START_WRITE); //send data on the i2c bus                 //wait for ack
80001f1a:	09000593          	li	a1,144
80001f1e:	10025537          	lui	a0,0x10025
80001f22:	dfafe0ef          	jal	ra,8000051c <i2c_send_command>
C:\Users\ming\Desktop\i2c\Debug/../application/oled.c:50
	      i2c_send_data(I2C_ID, *(gTxPacket+i));            //write i-th byte into fifo
80001f26:	00144583          	lbu	a1,1(s0)
80001f2a:	10025537          	lui	a0,0x10025
80001f2e:	ddafe0ef          	jal	ra,80000508 <i2c_send_data>
C:\Users\ming\Desktop\i2c\Debug/../application/oled.c:51
	      i2c_send_command(I2C_ID, I2C_START_WRITE); //send data on the i2c bus                 //wait for ack
80001f32:	09000593          	li	a1,144
80001f36:	10025537          	lui	a0,0x10025
80001f3a:	de2fe0ef          	jal	ra,8000051c <i2c_send_command>
C:\Users\ming\Desktop\i2c\Debug/../application/oled.c:53
	  while(i2c_busy(I2C_ID));
80001f3e:	10025537          	lui	a0,0x10025
80001f42:	deefe0ef          	jal	ra,80000530 <i2c_busy>
80001f46:	c521                	beqz	a0,80001f8e <OLED_Init+0x916>
80001f48:	10025537          	lui	a0,0x10025
80001f4c:	de4fe0ef          	jal	ra,80000530 <i2c_busy>
80001f50:	cd1d                	beqz	a0,80001f8e <OLED_Init+0x916>
80001f52:	10025537          	lui	a0,0x10025
80001f56:	ddafe0ef          	jal	ra,80000530 <i2c_busy>
80001f5a:	c915                	beqz	a0,80001f8e <OLED_Init+0x916>
80001f5c:	10025537          	lui	a0,0x10025
80001f60:	dd0fe0ef          	jal	ra,80000530 <i2c_busy>
80001f64:	c50d                	beqz	a0,80001f8e <OLED_Init+0x916>
80001f66:	10025537          	lui	a0,0x10025
80001f6a:	dc6fe0ef          	jal	ra,80000530 <i2c_busy>
80001f6e:	c105                	beqz	a0,80001f8e <OLED_Init+0x916>
80001f70:	10025537          	lui	a0,0x10025
80001f74:	dbcfe0ef          	jal	ra,80000530 <i2c_busy>
80001f78:	c919                	beqz	a0,80001f8e <OLED_Init+0x916>
80001f7a:	10025537          	lui	a0,0x10025
80001f7e:	db2fe0ef          	jal	ra,80000530 <i2c_busy>
80001f82:	c511                	beqz	a0,80001f8e <OLED_Init+0x916>
80001f84:	10025537          	lui	a0,0x10025
80001f88:	da8fe0ef          	jal	ra,80000530 <i2c_busy>
80001f8c:	f94d                	bnez	a0,80001f3e <OLED_Init+0x8c6>
C:\Users\ming\Desktop\i2c\Debug/../application/oled.c:65
  while(i2c_busy(I2C_ID));
80001f8e:	10025537          	lui	a0,0x10025
80001f92:	d9efe0ef          	jal	ra,80000530 <i2c_busy>
80001f96:	c521                	beqz	a0,80001fde <OLED_Init+0x966>
80001f98:	10025537          	lui	a0,0x10025
80001f9c:	d94fe0ef          	jal	ra,80000530 <i2c_busy>
80001fa0:	cd1d                	beqz	a0,80001fde <OLED_Init+0x966>
80001fa2:	10025537          	lui	a0,0x10025
80001fa6:	d8afe0ef          	jal	ra,80000530 <i2c_busy>
80001faa:	c915                	beqz	a0,80001fde <OLED_Init+0x966>
80001fac:	10025537          	lui	a0,0x10025
80001fb0:	d80fe0ef          	jal	ra,80000530 <i2c_busy>
80001fb4:	c50d                	beqz	a0,80001fde <OLED_Init+0x966>
80001fb6:	10025537          	lui	a0,0x10025
80001fba:	d76fe0ef          	jal	ra,80000530 <i2c_busy>
80001fbe:	c105                	beqz	a0,80001fde <OLED_Init+0x966>
80001fc0:	10025537          	lui	a0,0x10025
80001fc4:	d6cfe0ef          	jal	ra,80000530 <i2c_busy>
80001fc8:	c919                	beqz	a0,80001fde <OLED_Init+0x966>
80001fca:	10025537          	lui	a0,0x10025
80001fce:	d62fe0ef          	jal	ra,80000530 <i2c_busy>
80001fd2:	c511                	beqz	a0,80001fde <OLED_Init+0x966>
80001fd4:	10025537          	lui	a0,0x10025
80001fd8:	d58fe0ef          	jal	ra,80000530 <i2c_busy>
80001fdc:	f94d                	bnez	a0,80001f8e <OLED_Init+0x916>
C:\Users\ming\Desktop\i2c\Debug/../application/oled.c:44
	  {*(gTxPacket)=0x00;}
80001fde:	6e91                	lui	t4,0x4
80001fe0:	f00e8f13          	addi	t5,t4,-256 # 3f00 <__stack_size+0x3700>
C:\Users\ming\Desktop\i2c\Debug/../application/oled.c:47
	  i2c_send_data(I2C_ID, 0x3c);
80001fe4:	03c00593          	li	a1,60
80001fe8:	10025537          	lui	a0,0x10025
C:\Users\ming\Desktop\i2c\Debug/../application/oled.c:44
	  {*(gTxPacket)=0x00;}
80001fec:	01e41023          	sh	t5,0(s0)
C:\Users\ming\Desktop\i2c\Debug/../application/oled.c:47
	  i2c_send_data(I2C_ID, 0x3c);
80001ff0:	d18fe0ef          	jal	ra,80000508 <i2c_send_data>
C:\Users\ming\Desktop\i2c\Debug/../application/oled.c:48
	  i2c_send_command(I2C_ID, I2C_WRITE);
80001ff4:	45c1                	li	a1,16
80001ff6:	10025537          	lui	a0,0x10025
80001ffa:	d22fe0ef          	jal	ra,8000051c <i2c_send_command>
C:\Users\ming\Desktop\i2c\Debug/../application/oled.c:50
	      i2c_send_data(I2C_ID, *(gTxPacket+i));            //write i-th byte into fifo
80001ffe:	00044583          	lbu	a1,0(s0)
80002002:	10025537          	lui	a0,0x10025
80002006:	d02fe0ef          	jal	ra,80000508 <i2c_send_data>
C:\Users\ming\Desktop\i2c\Debug/../application/oled.c:51
	      i2c_send_command(I2C_ID, I2C_START_WRITE); //send data on the i2c bus                 //wait for ack
8000200a:	09000593          	li	a1,144
8000200e:	10025537          	lui	a0,0x10025
80002012:	d0afe0ef          	jal	ra,8000051c <i2c_send_command>
C:\Users\ming\Desktop\i2c\Debug/../application/oled.c:50
	      i2c_send_data(I2C_ID, *(gTxPacket+i));            //write i-th byte into fifo
80002016:	00144583          	lbu	a1,1(s0)
8000201a:	10025537          	lui	a0,0x10025
8000201e:	ceafe0ef          	jal	ra,80000508 <i2c_send_data>
C:\Users\ming\Desktop\i2c\Debug/../application/oled.c:51
	      i2c_send_command(I2C_ID, I2C_START_WRITE); //send data on the i2c bus                 //wait for ack
80002022:	09000593          	li	a1,144
80002026:	10025537          	lui	a0,0x10025
8000202a:	cf2fe0ef          	jal	ra,8000051c <i2c_send_command>
C:\Users\ming\Desktop\i2c\Debug/../application/oled.c:53
	  while(i2c_busy(I2C_ID));
8000202e:	10025537          	lui	a0,0x10025
80002032:	cfefe0ef          	jal	ra,80000530 <i2c_busy>
80002036:	c521                	beqz	a0,8000207e <OLED_Init+0xa06>
80002038:	10025537          	lui	a0,0x10025
8000203c:	cf4fe0ef          	jal	ra,80000530 <i2c_busy>
80002040:	cd1d                	beqz	a0,8000207e <OLED_Init+0xa06>
80002042:	10025537          	lui	a0,0x10025
80002046:	ceafe0ef          	jal	ra,80000530 <i2c_busy>
8000204a:	c915                	beqz	a0,8000207e <OLED_Init+0xa06>
8000204c:	10025537          	lui	a0,0x10025
80002050:	ce0fe0ef          	jal	ra,80000530 <i2c_busy>
80002054:	c50d                	beqz	a0,8000207e <OLED_Init+0xa06>
80002056:	10025537          	lui	a0,0x10025
8000205a:	cd6fe0ef          	jal	ra,80000530 <i2c_busy>
8000205e:	c105                	beqz	a0,8000207e <OLED_Init+0xa06>
80002060:	10025537          	lui	a0,0x10025
80002064:	cccfe0ef          	jal	ra,80000530 <i2c_busy>
80002068:	c919                	beqz	a0,8000207e <OLED_Init+0xa06>
8000206a:	10025537          	lui	a0,0x10025
8000206e:	cc2fe0ef          	jal	ra,80000530 <i2c_busy>
80002072:	c511                	beqz	a0,8000207e <OLED_Init+0xa06>
80002074:	10025537          	lui	a0,0x10025
80002078:	cb8fe0ef          	jal	ra,80000530 <i2c_busy>
8000207c:	f94d                	bnez	a0,8000202e <OLED_Init+0x9b6>
C:\Users\ming\Desktop\i2c\Debug/../application/oled.c:65
  while(i2c_busy(I2C_ID));
8000207e:	10025537          	lui	a0,0x10025
80002082:	caefe0ef          	jal	ra,80000530 <i2c_busy>
80002086:	c521                	beqz	a0,800020ce <OLED_Init+0xa56>
80002088:	10025537          	lui	a0,0x10025
8000208c:	ca4fe0ef          	jal	ra,80000530 <i2c_busy>
80002090:	cd1d                	beqz	a0,800020ce <OLED_Init+0xa56>
80002092:	10025537          	lui	a0,0x10025
80002096:	c9afe0ef          	jal	ra,80000530 <i2c_busy>
8000209a:	c915                	beqz	a0,800020ce <OLED_Init+0xa56>
8000209c:	10025537          	lui	a0,0x10025
800020a0:	c90fe0ef          	jal	ra,80000530 <i2c_busy>
800020a4:	c50d                	beqz	a0,800020ce <OLED_Init+0xa56>
800020a6:	10025537          	lui	a0,0x10025
800020aa:	c86fe0ef          	jal	ra,80000530 <i2c_busy>
800020ae:	c105                	beqz	a0,800020ce <OLED_Init+0xa56>
800020b0:	10025537          	lui	a0,0x10025
800020b4:	c7cfe0ef          	jal	ra,80000530 <i2c_busy>
800020b8:	c919                	beqz	a0,800020ce <OLED_Init+0xa56>
800020ba:	10025537          	lui	a0,0x10025
800020be:	c72fe0ef          	jal	ra,80000530 <i2c_busy>
800020c2:	c511                	beqz	a0,800020ce <OLED_Init+0xa56>
800020c4:	10025537          	lui	a0,0x10025
800020c8:	c68fe0ef          	jal	ra,80000530 <i2c_busy>
800020cc:	f94d                	bnez	a0,8000207e <OLED_Init+0xa06>
C:\Users\ming\Desktop\i2c\Debug/../application/oled.c:44
	  {*(gTxPacket)=0x00;}
800020ce:	7ff5                	lui	t6,0xffffd
800020d0:	300f8793          	addi	a5,t6,768 # ffffd300 <_sp+0x6ffed300>
C:\Users\ming\Desktop\i2c\Debug/../application/oled.c:47
	  i2c_send_data(I2C_ID, 0x3c);
800020d4:	03c00593          	li	a1,60
800020d8:	10025537          	lui	a0,0x10025
C:\Users\ming\Desktop\i2c\Debug/../application/oled.c:44
	  {*(gTxPacket)=0x00;}
800020dc:	00f41023          	sh	a5,0(s0)
C:\Users\ming\Desktop\i2c\Debug/../application/oled.c:47
	  i2c_send_data(I2C_ID, 0x3c);
800020e0:	c28fe0ef          	jal	ra,80000508 <i2c_send_data>
C:\Users\ming\Desktop\i2c\Debug/../application/oled.c:48
	  i2c_send_command(I2C_ID, I2C_WRITE);
800020e4:	45c1                	li	a1,16
800020e6:	10025537          	lui	a0,0x10025
800020ea:	c32fe0ef          	jal	ra,8000051c <i2c_send_command>
C:\Users\ming\Desktop\i2c\Debug/../application/oled.c:50
	      i2c_send_data(I2C_ID, *(gTxPacket+i));            //write i-th byte into fifo
800020ee:	00044583          	lbu	a1,0(s0)
800020f2:	10025537          	lui	a0,0x10025
800020f6:	c12fe0ef          	jal	ra,80000508 <i2c_send_data>
C:\Users\ming\Desktop\i2c\Debug/../application/oled.c:51
	      i2c_send_command(I2C_ID, I2C_START_WRITE); //send data on the i2c bus                 //wait for ack
800020fa:	09000593          	li	a1,144
800020fe:	10025537          	lui	a0,0x10025
80002102:	c1afe0ef          	jal	ra,8000051c <i2c_send_command>
C:\Users\ming\Desktop\i2c\Debug/../application/oled.c:50
	      i2c_send_data(I2C_ID, *(gTxPacket+i));            //write i-th byte into fifo
80002106:	00144583          	lbu	a1,1(s0)
8000210a:	10025537          	lui	a0,0x10025
8000210e:	bfafe0ef          	jal	ra,80000508 <i2c_send_data>
C:\Users\ming\Desktop\i2c\Debug/../application/oled.c:51
	      i2c_send_command(I2C_ID, I2C_START_WRITE); //send data on the i2c bus                 //wait for ack
80002112:	09000593          	li	a1,144
80002116:	10025537          	lui	a0,0x10025
8000211a:	c02fe0ef          	jal	ra,8000051c <i2c_send_command>
C:\Users\ming\Desktop\i2c\Debug/../application/oled.c:53
	  while(i2c_busy(I2C_ID));
8000211e:	10025537          	lui	a0,0x10025
80002122:	c0efe0ef          	jal	ra,80000530 <i2c_busy>
80002126:	c521                	beqz	a0,8000216e <OLED_Init+0xaf6>
80002128:	10025537          	lui	a0,0x10025
8000212c:	c04fe0ef          	jal	ra,80000530 <i2c_busy>
80002130:	cd1d                	beqz	a0,8000216e <OLED_Init+0xaf6>
80002132:	10025537          	lui	a0,0x10025
80002136:	bfafe0ef          	jal	ra,80000530 <i2c_busy>
8000213a:	c915                	beqz	a0,8000216e <OLED_Init+0xaf6>
8000213c:	10025537          	lui	a0,0x10025
80002140:	bf0fe0ef          	jal	ra,80000530 <i2c_busy>
80002144:	c50d                	beqz	a0,8000216e <OLED_Init+0xaf6>
80002146:	10025537          	lui	a0,0x10025
8000214a:	be6fe0ef          	jal	ra,80000530 <i2c_busy>
8000214e:	c105                	beqz	a0,8000216e <OLED_Init+0xaf6>
80002150:	10025537          	lui	a0,0x10025
80002154:	bdcfe0ef          	jal	ra,80000530 <i2c_busy>
80002158:	c919                	beqz	a0,8000216e <OLED_Init+0xaf6>
8000215a:	10025537          	lui	a0,0x10025
8000215e:	bd2fe0ef          	jal	ra,80000530 <i2c_busy>
80002162:	c511                	beqz	a0,8000216e <OLED_Init+0xaf6>
80002164:	10025537          	lui	a0,0x10025
80002168:	bc8fe0ef          	jal	ra,80000530 <i2c_busy>
8000216c:	f94d                	bnez	a0,8000211e <OLED_Init+0xaa6>
C:\Users\ming\Desktop\i2c\Debug/../application/oled.c:65
  while(i2c_busy(I2C_ID));
8000216e:	10025537          	lui	a0,0x10025
80002172:	bbefe0ef          	jal	ra,80000530 <i2c_busy>
80002176:	c521                	beqz	a0,800021be <OLED_Init+0xb46>
80002178:	10025537          	lui	a0,0x10025
8000217c:	bb4fe0ef          	jal	ra,80000530 <i2c_busy>
80002180:	cd1d                	beqz	a0,800021be <OLED_Init+0xb46>
80002182:	10025537          	lui	a0,0x10025
80002186:	baafe0ef          	jal	ra,80000530 <i2c_busy>
8000218a:	c915                	beqz	a0,800021be <OLED_Init+0xb46>
8000218c:	10025537          	lui	a0,0x10025
80002190:	ba0fe0ef          	jal	ra,80000530 <i2c_busy>
80002194:	c50d                	beqz	a0,800021be <OLED_Init+0xb46>
80002196:	10025537          	lui	a0,0x10025
8000219a:	b96fe0ef          	jal	ra,80000530 <i2c_busy>
8000219e:	c105                	beqz	a0,800021be <OLED_Init+0xb46>
800021a0:	10025537          	lui	a0,0x10025
800021a4:	b8cfe0ef          	jal	ra,80000530 <i2c_busy>
800021a8:	c919                	beqz	a0,800021be <OLED_Init+0xb46>
800021aa:	10025537          	lui	a0,0x10025
800021ae:	b82fe0ef          	jal	ra,80000530 <i2c_busy>
800021b2:	c511                	beqz	a0,800021be <OLED_Init+0xb46>
800021b4:	10025537          	lui	a0,0x10025
800021b8:	b78fe0ef          	jal	ra,80000530 <i2c_busy>
800021bc:	f94d                	bnez	a0,8000216e <OLED_Init+0xaf6>
C:\Users\ming\Desktop\i2c\Debug/../application/oled.c:47
	  i2c_send_data(I2C_ID, 0x3c);
800021be:	03c00593          	li	a1,60
800021c2:	10025537          	lui	a0,0x10025
C:\Users\ming\Desktop\i2c\Debug/../application/oled.c:44
	  {*(gTxPacket)=0x00;}
800021c6:	86019223          	sh	zero,-1948(gp) # 90000234 <gTxPacket>
C:\Users\ming\Desktop\i2c\Debug/../application/oled.c:47
	  i2c_send_data(I2C_ID, 0x3c);
800021ca:	b3efe0ef          	jal	ra,80000508 <i2c_send_data>
C:\Users\ming\Desktop\i2c\Debug/../application/oled.c:48
	  i2c_send_command(I2C_ID, I2C_WRITE);
800021ce:	45c1                	li	a1,16
800021d0:	10025537          	lui	a0,0x10025
800021d4:	b48fe0ef          	jal	ra,8000051c <i2c_send_command>
C:\Users\ming\Desktop\i2c\Debug/../application/oled.c:50
	      i2c_send_data(I2C_ID, *(gTxPacket+i));            //write i-th byte into fifo
800021d8:	00044583          	lbu	a1,0(s0)
800021dc:	10025537          	lui	a0,0x10025
800021e0:	b28fe0ef          	jal	ra,80000508 <i2c_send_data>
C:\Users\ming\Desktop\i2c\Debug/../application/oled.c:51
	      i2c_send_command(I2C_ID, I2C_START_WRITE); //send data on the i2c bus                 //wait for ack
800021e4:	09000593          	li	a1,144
800021e8:	10025537          	lui	a0,0x10025
800021ec:	b30fe0ef          	jal	ra,8000051c <i2c_send_command>
C:\Users\ming\Desktop\i2c\Debug/../application/oled.c:50
	      i2c_send_data(I2C_ID, *(gTxPacket+i));            //write i-th byte into fifo
800021f0:	00144583          	lbu	a1,1(s0)
800021f4:	10025537          	lui	a0,0x10025
800021f8:	b10fe0ef          	jal	ra,80000508 <i2c_send_data>
C:\Users\ming\Desktop\i2c\Debug/../application/oled.c:51
	      i2c_send_command(I2C_ID, I2C_START_WRITE); //send data on the i2c bus                 //wait for ack
800021fc:	09000593          	li	a1,144
80002200:	10025537          	lui	a0,0x10025
80002204:	b18fe0ef          	jal	ra,8000051c <i2c_send_command>
C:\Users\ming\Desktop\i2c\Debug/../application/oled.c:53
	  while(i2c_busy(I2C_ID));
80002208:	10025537          	lui	a0,0x10025
8000220c:	b24fe0ef          	jal	ra,80000530 <i2c_busy>
80002210:	c521                	beqz	a0,80002258 <OLED_Init+0xbe0>
80002212:	10025537          	lui	a0,0x10025
80002216:	b1afe0ef          	jal	ra,80000530 <i2c_busy>
8000221a:	cd1d                	beqz	a0,80002258 <OLED_Init+0xbe0>
8000221c:	10025537          	lui	a0,0x10025
80002220:	b10fe0ef          	jal	ra,80000530 <i2c_busy>
80002224:	c915                	beqz	a0,80002258 <OLED_Init+0xbe0>
80002226:	10025537          	lui	a0,0x10025
8000222a:	b06fe0ef          	jal	ra,80000530 <i2c_busy>
8000222e:	c50d                	beqz	a0,80002258 <OLED_Init+0xbe0>
80002230:	10025537          	lui	a0,0x10025
80002234:	afcfe0ef          	jal	ra,80000530 <i2c_busy>
80002238:	c105                	beqz	a0,80002258 <OLED_Init+0xbe0>
8000223a:	10025537          	lui	a0,0x10025
8000223e:	af2fe0ef          	jal	ra,80000530 <i2c_busy>
80002242:	c919                	beqz	a0,80002258 <OLED_Init+0xbe0>
80002244:	10025537          	lui	a0,0x10025
80002248:	ae8fe0ef          	jal	ra,80000530 <i2c_busy>
8000224c:	c511                	beqz	a0,80002258 <OLED_Init+0xbe0>
8000224e:	10025537          	lui	a0,0x10025
80002252:	adefe0ef          	jal	ra,80000530 <i2c_busy>
80002256:	f94d                	bnez	a0,80002208 <OLED_Init+0xb90>
C:\Users\ming\Desktop\i2c\Debug/../application/oled.c:65
  while(i2c_busy(I2C_ID));
80002258:	10025537          	lui	a0,0x10025
8000225c:	ad4fe0ef          	jal	ra,80000530 <i2c_busy>
80002260:	c521                	beqz	a0,800022a8 <OLED_Init+0xc30>
80002262:	10025537          	lui	a0,0x10025
80002266:	acafe0ef          	jal	ra,80000530 <i2c_busy>
8000226a:	cd1d                	beqz	a0,800022a8 <OLED_Init+0xc30>
8000226c:	10025537          	lui	a0,0x10025
80002270:	ac0fe0ef          	jal	ra,80000530 <i2c_busy>
80002274:	c915                	beqz	a0,800022a8 <OLED_Init+0xc30>
80002276:	10025537          	lui	a0,0x10025
8000227a:	ab6fe0ef          	jal	ra,80000530 <i2c_busy>
8000227e:	c50d                	beqz	a0,800022a8 <OLED_Init+0xc30>
80002280:	10025537          	lui	a0,0x10025
80002284:	aacfe0ef          	jal	ra,80000530 <i2c_busy>
80002288:	c105                	beqz	a0,800022a8 <OLED_Init+0xc30>
8000228a:	10025537          	lui	a0,0x10025
8000228e:	aa2fe0ef          	jal	ra,80000530 <i2c_busy>
80002292:	c919                	beqz	a0,800022a8 <OLED_Init+0xc30>
80002294:	10025537          	lui	a0,0x10025
80002298:	a98fe0ef          	jal	ra,80000530 <i2c_busy>
8000229c:	c511                	beqz	a0,800022a8 <OLED_Init+0xc30>
8000229e:	10025537          	lui	a0,0x10025
800022a2:	a8efe0ef          	jal	ra,80000530 <i2c_busy>
800022a6:	f94d                	bnez	a0,80002258 <OLED_Init+0xbe0>
C:\Users\ming\Desktop\i2c\Debug/../application/oled.c:44
	  {*(gTxPacket)=0x00;}
800022a8:	70f5                	lui	ra,0xffffd
800022aa:	50008293          	addi	t0,ra,1280 # ffffd500 <_sp+0x6ffed500>
C:\Users\ming\Desktop\i2c\Debug/../application/oled.c:47
	  i2c_send_data(I2C_ID, 0x3c);
800022ae:	03c00593          	li	a1,60
800022b2:	10025537          	lui	a0,0x10025
C:\Users\ming\Desktop\i2c\Debug/../application/oled.c:44
	  {*(gTxPacket)=0x00;}
800022b6:	00541023          	sh	t0,0(s0)
C:\Users\ming\Desktop\i2c\Debug/../application/oled.c:47
	  i2c_send_data(I2C_ID, 0x3c);
800022ba:	a4efe0ef          	jal	ra,80000508 <i2c_send_data>
C:\Users\ming\Desktop\i2c\Debug/../application/oled.c:48
	  i2c_send_command(I2C_ID, I2C_WRITE);
800022be:	45c1                	li	a1,16
800022c0:	10025537          	lui	a0,0x10025
800022c4:	a58fe0ef          	jal	ra,8000051c <i2c_send_command>
C:\Users\ming\Desktop\i2c\Debug/../application/oled.c:50
	      i2c_send_data(I2C_ID, *(gTxPacket+i));            //write i-th byte into fifo
800022c8:	00044583          	lbu	a1,0(s0)
800022cc:	10025537          	lui	a0,0x10025
800022d0:	a38fe0ef          	jal	ra,80000508 <i2c_send_data>
C:\Users\ming\Desktop\i2c\Debug/../application/oled.c:51
	      i2c_send_command(I2C_ID, I2C_START_WRITE); //send data on the i2c bus                 //wait for ack
800022d4:	09000593          	li	a1,144
800022d8:	10025537          	lui	a0,0x10025
800022dc:	a40fe0ef          	jal	ra,8000051c <i2c_send_command>
C:\Users\ming\Desktop\i2c\Debug/../application/oled.c:50
	      i2c_send_data(I2C_ID, *(gTxPacket+i));            //write i-th byte into fifo
800022e0:	00144583          	lbu	a1,1(s0)
800022e4:	10025537          	lui	a0,0x10025
800022e8:	a20fe0ef          	jal	ra,80000508 <i2c_send_data>
C:\Users\ming\Desktop\i2c\Debug/../application/oled.c:51
	      i2c_send_command(I2C_ID, I2C_START_WRITE); //send data on the i2c bus                 //wait for ack
800022ec:	09000593          	li	a1,144
800022f0:	10025537          	lui	a0,0x10025
800022f4:	a28fe0ef          	jal	ra,8000051c <i2c_send_command>
C:\Users\ming\Desktop\i2c\Debug/../application/oled.c:53
	  while(i2c_busy(I2C_ID));
800022f8:	10025537          	lui	a0,0x10025
800022fc:	a34fe0ef          	jal	ra,80000530 <i2c_busy>
80002300:	c521                	beqz	a0,80002348 <OLED_Init+0xcd0>
80002302:	10025537          	lui	a0,0x10025
80002306:	a2afe0ef          	jal	ra,80000530 <i2c_busy>
8000230a:	cd1d                	beqz	a0,80002348 <OLED_Init+0xcd0>
8000230c:	10025537          	lui	a0,0x10025
80002310:	a20fe0ef          	jal	ra,80000530 <i2c_busy>
80002314:	c915                	beqz	a0,80002348 <OLED_Init+0xcd0>
80002316:	10025537          	lui	a0,0x10025
8000231a:	a16fe0ef          	jal	ra,80000530 <i2c_busy>
8000231e:	c50d                	beqz	a0,80002348 <OLED_Init+0xcd0>
80002320:	10025537          	lui	a0,0x10025
80002324:	a0cfe0ef          	jal	ra,80000530 <i2c_busy>
80002328:	c105                	beqz	a0,80002348 <OLED_Init+0xcd0>
8000232a:	10025537          	lui	a0,0x10025
8000232e:	a02fe0ef          	jal	ra,80000530 <i2c_busy>
80002332:	c919                	beqz	a0,80002348 <OLED_Init+0xcd0>
80002334:	10025537          	lui	a0,0x10025
80002338:	9f8fe0ef          	jal	ra,80000530 <i2c_busy>
8000233c:	c511                	beqz	a0,80002348 <OLED_Init+0xcd0>
8000233e:	10025537          	lui	a0,0x10025
80002342:	9eefe0ef          	jal	ra,80000530 <i2c_busy>
80002346:	f94d                	bnez	a0,800022f8 <OLED_Init+0xc80>
C:\Users\ming\Desktop\i2c\Debug/../application/oled.c:65
  while(i2c_busy(I2C_ID));
80002348:	10025537          	lui	a0,0x10025
8000234c:	9e4fe0ef          	jal	ra,80000530 <i2c_busy>
80002350:	c521                	beqz	a0,80002398 <OLED_Init+0xd20>
80002352:	10025537          	lui	a0,0x10025
80002356:	9dafe0ef          	jal	ra,80000530 <i2c_busy>
8000235a:	cd1d                	beqz	a0,80002398 <OLED_Init+0xd20>
8000235c:	10025537          	lui	a0,0x10025
80002360:	9d0fe0ef          	jal	ra,80000530 <i2c_busy>
80002364:	c915                	beqz	a0,80002398 <OLED_Init+0xd20>
80002366:	10025537          	lui	a0,0x10025
8000236a:	9c6fe0ef          	jal	ra,80000530 <i2c_busy>
8000236e:	c50d                	beqz	a0,80002398 <OLED_Init+0xd20>
80002370:	10025537          	lui	a0,0x10025
80002374:	9bcfe0ef          	jal	ra,80000530 <i2c_busy>
80002378:	c105                	beqz	a0,80002398 <OLED_Init+0xd20>
8000237a:	10025537          	lui	a0,0x10025
8000237e:	9b2fe0ef          	jal	ra,80000530 <i2c_busy>
80002382:	c919                	beqz	a0,80002398 <OLED_Init+0xd20>
80002384:	10025537          	lui	a0,0x10025
80002388:	9a8fe0ef          	jal	ra,80000530 <i2c_busy>
8000238c:	c511                	beqz	a0,80002398 <OLED_Init+0xd20>
8000238e:	10025537          	lui	a0,0x10025
80002392:	99efe0ef          	jal	ra,80000530 <i2c_busy>
80002396:	f94d                	bnez	a0,80002348 <OLED_Init+0xcd0>
C:\Users\ming\Desktop\i2c\Debug/../application/oled.c:44
	  {*(gTxPacket)=0x00;}
80002398:	7361                	lui	t1,0xffff8
C:\Users\ming\Desktop\i2c\Debug/../application/oled.c:47
	  i2c_send_data(I2C_ID, 0x3c);
8000239a:	03c00593          	li	a1,60
8000239e:	10025537          	lui	a0,0x10025
C:\Users\ming\Desktop\i2c\Debug/../application/oled.c:44
	  {*(gTxPacket)=0x00;}
800023a2:	00641023          	sh	t1,0(s0)
C:\Users\ming\Desktop\i2c\Debug/../application/oled.c:47
	  i2c_send_data(I2C_ID, 0x3c);
800023a6:	962fe0ef          	jal	ra,80000508 <i2c_send_data>
C:\Users\ming\Desktop\i2c\Debug/../application/oled.c:48
	  i2c_send_command(I2C_ID, I2C_WRITE);
800023aa:	45c1                	li	a1,16
800023ac:	10025537          	lui	a0,0x10025
800023b0:	96cfe0ef          	jal	ra,8000051c <i2c_send_command>
C:\Users\ming\Desktop\i2c\Debug/../application/oled.c:50
	      i2c_send_data(I2C_ID, *(gTxPacket+i));            //write i-th byte into fifo
800023b4:	00044583          	lbu	a1,0(s0)
800023b8:	10025537          	lui	a0,0x10025
800023bc:	94cfe0ef          	jal	ra,80000508 <i2c_send_data>
C:\Users\ming\Desktop\i2c\Debug/../application/oled.c:51
	      i2c_send_command(I2C_ID, I2C_START_WRITE); //send data on the i2c bus                 //wait for ack
800023c0:	09000593          	li	a1,144
800023c4:	10025537          	lui	a0,0x10025
800023c8:	954fe0ef          	jal	ra,8000051c <i2c_send_command>
C:\Users\ming\Desktop\i2c\Debug/../application/oled.c:50
	      i2c_send_data(I2C_ID, *(gTxPacket+i));            //write i-th byte into fifo
800023cc:	00144583          	lbu	a1,1(s0)
800023d0:	10025537          	lui	a0,0x10025
800023d4:	934fe0ef          	jal	ra,80000508 <i2c_send_data>
C:\Users\ming\Desktop\i2c\Debug/../application/oled.c:51
	      i2c_send_command(I2C_ID, I2C_START_WRITE); //send data on the i2c bus                 //wait for ack
800023d8:	09000593          	li	a1,144
800023dc:	10025537          	lui	a0,0x10025
800023e0:	93cfe0ef          	jal	ra,8000051c <i2c_send_command>
C:\Users\ming\Desktop\i2c\Debug/../application/oled.c:53
	  while(i2c_busy(I2C_ID));
800023e4:	10025537          	lui	a0,0x10025
800023e8:	948fe0ef          	jal	ra,80000530 <i2c_busy>
800023ec:	c521                	beqz	a0,80002434 <OLED_Init+0xdbc>
800023ee:	10025537          	lui	a0,0x10025
800023f2:	93efe0ef          	jal	ra,80000530 <i2c_busy>
800023f6:	cd1d                	beqz	a0,80002434 <OLED_Init+0xdbc>
800023f8:	10025537          	lui	a0,0x10025
800023fc:	934fe0ef          	jal	ra,80000530 <i2c_busy>
80002400:	c915                	beqz	a0,80002434 <OLED_Init+0xdbc>
80002402:	10025537          	lui	a0,0x10025
80002406:	92afe0ef          	jal	ra,80000530 <i2c_busy>
8000240a:	c50d                	beqz	a0,80002434 <OLED_Init+0xdbc>
8000240c:	10025537          	lui	a0,0x10025
80002410:	920fe0ef          	jal	ra,80000530 <i2c_busy>
80002414:	c105                	beqz	a0,80002434 <OLED_Init+0xdbc>
80002416:	10025537          	lui	a0,0x10025
8000241a:	916fe0ef          	jal	ra,80000530 <i2c_busy>
8000241e:	c919                	beqz	a0,80002434 <OLED_Init+0xdbc>
80002420:	10025537          	lui	a0,0x10025
80002424:	90cfe0ef          	jal	ra,80000530 <i2c_busy>
80002428:	c511                	beqz	a0,80002434 <OLED_Init+0xdbc>
8000242a:	10025537          	lui	a0,0x10025
8000242e:	902fe0ef          	jal	ra,80000530 <i2c_busy>
80002432:	f94d                	bnez	a0,800023e4 <OLED_Init+0xd6c>
C:\Users\ming\Desktop\i2c\Debug/../application/oled.c:65
  while(i2c_busy(I2C_ID));
80002434:	10025537          	lui	a0,0x10025
80002438:	8f8fe0ef          	jal	ra,80000530 <i2c_busy>
8000243c:	c521                	beqz	a0,80002484 <OLED_Init+0xe0c>
8000243e:	10025537          	lui	a0,0x10025
80002442:	8eefe0ef          	jal	ra,80000530 <i2c_busy>
80002446:	cd1d                	beqz	a0,80002484 <OLED_Init+0xe0c>
80002448:	10025537          	lui	a0,0x10025
8000244c:	8e4fe0ef          	jal	ra,80000530 <i2c_busy>
80002450:	c915                	beqz	a0,80002484 <OLED_Init+0xe0c>
80002452:	10025537          	lui	a0,0x10025
80002456:	8dafe0ef          	jal	ra,80000530 <i2c_busy>
8000245a:	c50d                	beqz	a0,80002484 <OLED_Init+0xe0c>
8000245c:	10025537          	lui	a0,0x10025
80002460:	8d0fe0ef          	jal	ra,80000530 <i2c_busy>
80002464:	c105                	beqz	a0,80002484 <OLED_Init+0xe0c>
80002466:	10025537          	lui	a0,0x10025
8000246a:	8c6fe0ef          	jal	ra,80000530 <i2c_busy>
8000246e:	c919                	beqz	a0,80002484 <OLED_Init+0xe0c>
80002470:	10025537          	lui	a0,0x10025
80002474:	8bcfe0ef          	jal	ra,80000530 <i2c_busy>
80002478:	c511                	beqz	a0,80002484 <OLED_Init+0xe0c>
8000247a:	10025537          	lui	a0,0x10025
8000247e:	8b2fe0ef          	jal	ra,80000530 <i2c_busy>
80002482:	f94d                	bnez	a0,80002434 <OLED_Init+0xdbc>
C:\Users\ming\Desktop\i2c\Debug/../application/oled.c:44
	  {*(gTxPacket)=0x00;}
80002484:	73f9                	lui	t2,0xffffe
80002486:	90038493          	addi	s1,t2,-1792 # ffffd900 <_sp+0x6ffed900>
C:\Users\ming\Desktop\i2c\Debug/../application/oled.c:47
	  i2c_send_data(I2C_ID, 0x3c);
8000248a:	03c00593          	li	a1,60
8000248e:	10025537          	lui	a0,0x10025
C:\Users\ming\Desktop\i2c\Debug/../application/oled.c:44
	  {*(gTxPacket)=0x00;}
80002492:	00941023          	sh	s1,0(s0)
C:\Users\ming\Desktop\i2c\Debug/../application/oled.c:47
	  i2c_send_data(I2C_ID, 0x3c);
80002496:	872fe0ef          	jal	ra,80000508 <i2c_send_data>
C:\Users\ming\Desktop\i2c\Debug/../application/oled.c:48
	  i2c_send_command(I2C_ID, I2C_WRITE);
8000249a:	45c1                	li	a1,16
8000249c:	10025537          	lui	a0,0x10025
800024a0:	87cfe0ef          	jal	ra,8000051c <i2c_send_command>
C:\Users\ming\Desktop\i2c\Debug/../application/oled.c:50
	      i2c_send_data(I2C_ID, *(gTxPacket+i));            //write i-th byte into fifo
800024a4:	00044583          	lbu	a1,0(s0)
800024a8:	10025537          	lui	a0,0x10025
800024ac:	85cfe0ef          	jal	ra,80000508 <i2c_send_data>
C:\Users\ming\Desktop\i2c\Debug/../application/oled.c:51
	      i2c_send_command(I2C_ID, I2C_START_WRITE); //send data on the i2c bus                 //wait for ack
800024b0:	09000593          	li	a1,144
800024b4:	10025537          	lui	a0,0x10025
800024b8:	864fe0ef          	jal	ra,8000051c <i2c_send_command>
C:\Users\ming\Desktop\i2c\Debug/../application/oled.c:50
	      i2c_send_data(I2C_ID, *(gTxPacket+i));            //write i-th byte into fifo
800024bc:	00144583          	lbu	a1,1(s0)
800024c0:	10025537          	lui	a0,0x10025
800024c4:	844fe0ef          	jal	ra,80000508 <i2c_send_data>
C:\Users\ming\Desktop\i2c\Debug/../application/oled.c:51
	      i2c_send_command(I2C_ID, I2C_START_WRITE); //send data on the i2c bus                 //wait for ack
800024c8:	09000593          	li	a1,144
800024cc:	10025537          	lui	a0,0x10025
800024d0:	84cfe0ef          	jal	ra,8000051c <i2c_send_command>
C:\Users\ming\Desktop\i2c\Debug/../application/oled.c:53
	  while(i2c_busy(I2C_ID));
800024d4:	10025537          	lui	a0,0x10025
800024d8:	858fe0ef          	jal	ra,80000530 <i2c_busy>
800024dc:	c521                	beqz	a0,80002524 <OLED_Init+0xeac>
800024de:	10025537          	lui	a0,0x10025
800024e2:	84efe0ef          	jal	ra,80000530 <i2c_busy>
800024e6:	cd1d                	beqz	a0,80002524 <OLED_Init+0xeac>
800024e8:	10025537          	lui	a0,0x10025
800024ec:	844fe0ef          	jal	ra,80000530 <i2c_busy>
800024f0:	c915                	beqz	a0,80002524 <OLED_Init+0xeac>
800024f2:	10025537          	lui	a0,0x10025
800024f6:	83afe0ef          	jal	ra,80000530 <i2c_busy>
800024fa:	c50d                	beqz	a0,80002524 <OLED_Init+0xeac>
800024fc:	10025537          	lui	a0,0x10025
80002500:	830fe0ef          	jal	ra,80000530 <i2c_busy>
80002504:	c105                	beqz	a0,80002524 <OLED_Init+0xeac>
80002506:	10025537          	lui	a0,0x10025
8000250a:	826fe0ef          	jal	ra,80000530 <i2c_busy>
8000250e:	c919                	beqz	a0,80002524 <OLED_Init+0xeac>
80002510:	10025537          	lui	a0,0x10025
80002514:	81cfe0ef          	jal	ra,80000530 <i2c_busy>
80002518:	c511                	beqz	a0,80002524 <OLED_Init+0xeac>
8000251a:	10025537          	lui	a0,0x10025
8000251e:	812fe0ef          	jal	ra,80000530 <i2c_busy>
80002522:	f94d                	bnez	a0,800024d4 <OLED_Init+0xe5c>
C:\Users\ming\Desktop\i2c\Debug/../application/oled.c:65
  while(i2c_busy(I2C_ID));
80002524:	10025537          	lui	a0,0x10025
80002528:	808fe0ef          	jal	ra,80000530 <i2c_busy>
8000252c:	c521                	beqz	a0,80002574 <OLED_Init+0xefc>
8000252e:	10025537          	lui	a0,0x10025
80002532:	ffffd0ef          	jal	ra,80000530 <i2c_busy>
80002536:	cd1d                	beqz	a0,80002574 <OLED_Init+0xefc>
80002538:	10025537          	lui	a0,0x10025
8000253c:	ff5fd0ef          	jal	ra,80000530 <i2c_busy>
80002540:	c915                	beqz	a0,80002574 <OLED_Init+0xefc>
80002542:	10025537          	lui	a0,0x10025
80002546:	febfd0ef          	jal	ra,80000530 <i2c_busy>
8000254a:	c50d                	beqz	a0,80002574 <OLED_Init+0xefc>
8000254c:	10025537          	lui	a0,0x10025
80002550:	fe1fd0ef          	jal	ra,80000530 <i2c_busy>
80002554:	c105                	beqz	a0,80002574 <OLED_Init+0xefc>
80002556:	10025537          	lui	a0,0x10025
8000255a:	fd7fd0ef          	jal	ra,80000530 <i2c_busy>
8000255e:	c919                	beqz	a0,80002574 <OLED_Init+0xefc>
80002560:	10025537          	lui	a0,0x10025
80002564:	fcdfd0ef          	jal	ra,80000530 <i2c_busy>
80002568:	c511                	beqz	a0,80002574 <OLED_Init+0xefc>
8000256a:	10025537          	lui	a0,0x10025
8000256e:	fc3fd0ef          	jal	ra,80000530 <i2c_busy>
80002572:	f94d                	bnez	a0,80002524 <OLED_Init+0xeac>
C:\Users\ming\Desktop\i2c\Debug/../application/oled.c:44
	  {*(gTxPacket)=0x00;}
80002574:	767d                	lui	a2,0xfffff
80002576:	10060693          	addi	a3,a2,256 # fffff100 <_sp+0x6ffef100>
C:\Users\ming\Desktop\i2c\Debug/../application/oled.c:47
	  i2c_send_data(I2C_ID, 0x3c);
8000257a:	03c00593          	li	a1,60
8000257e:	10025537          	lui	a0,0x10025
C:\Users\ming\Desktop\i2c\Debug/../application/oled.c:44
	  {*(gTxPacket)=0x00;}
80002582:	00d41023          	sh	a3,0(s0)
C:\Users\ming\Desktop\i2c\Debug/../application/oled.c:47
	  i2c_send_data(I2C_ID, 0x3c);
80002586:	f83fd0ef          	jal	ra,80000508 <i2c_send_data>
C:\Users\ming\Desktop\i2c\Debug/../application/oled.c:48
	  i2c_send_command(I2C_ID, I2C_WRITE);
8000258a:	45c1                	li	a1,16
8000258c:	10025537          	lui	a0,0x10025
80002590:	f8dfd0ef          	jal	ra,8000051c <i2c_send_command>
C:\Users\ming\Desktop\i2c\Debug/../application/oled.c:50
	      i2c_send_data(I2C_ID, *(gTxPacket+i));            //write i-th byte into fifo
80002594:	00044583          	lbu	a1,0(s0)
80002598:	10025537          	lui	a0,0x10025
8000259c:	f6dfd0ef          	jal	ra,80000508 <i2c_send_data>
C:\Users\ming\Desktop\i2c\Debug/../application/oled.c:51
	      i2c_send_command(I2C_ID, I2C_START_WRITE); //send data on the i2c bus                 //wait for ack
800025a0:	09000593          	li	a1,144
800025a4:	10025537          	lui	a0,0x10025
800025a8:	f75fd0ef          	jal	ra,8000051c <i2c_send_command>
C:\Users\ming\Desktop\i2c\Debug/../application/oled.c:50
	      i2c_send_data(I2C_ID, *(gTxPacket+i));            //write i-th byte into fifo
800025ac:	00144583          	lbu	a1,1(s0)
800025b0:	10025537          	lui	a0,0x10025
800025b4:	f55fd0ef          	jal	ra,80000508 <i2c_send_data>
C:\Users\ming\Desktop\i2c\Debug/../application/oled.c:51
	      i2c_send_command(I2C_ID, I2C_START_WRITE); //send data on the i2c bus                 //wait for ack
800025b8:	09000593          	li	a1,144
800025bc:	10025537          	lui	a0,0x10025
800025c0:	f5dfd0ef          	jal	ra,8000051c <i2c_send_command>
C:\Users\ming\Desktop\i2c\Debug/../application/oled.c:53
	  while(i2c_busy(I2C_ID));
800025c4:	10025537          	lui	a0,0x10025
800025c8:	f69fd0ef          	jal	ra,80000530 <i2c_busy>
800025cc:	c521                	beqz	a0,80002614 <OLED_Init+0xf9c>
800025ce:	10025537          	lui	a0,0x10025
800025d2:	f5ffd0ef          	jal	ra,80000530 <i2c_busy>
800025d6:	cd1d                	beqz	a0,80002614 <OLED_Init+0xf9c>
800025d8:	10025537          	lui	a0,0x10025
800025dc:	f55fd0ef          	jal	ra,80000530 <i2c_busy>
800025e0:	c915                	beqz	a0,80002614 <OLED_Init+0xf9c>
800025e2:	10025537          	lui	a0,0x10025
800025e6:	f4bfd0ef          	jal	ra,80000530 <i2c_busy>
800025ea:	c50d                	beqz	a0,80002614 <OLED_Init+0xf9c>
800025ec:	10025537          	lui	a0,0x10025
800025f0:	f41fd0ef          	jal	ra,80000530 <i2c_busy>
800025f4:	c105                	beqz	a0,80002614 <OLED_Init+0xf9c>
800025f6:	10025537          	lui	a0,0x10025
800025fa:	f37fd0ef          	jal	ra,80000530 <i2c_busy>
800025fe:	c919                	beqz	a0,80002614 <OLED_Init+0xf9c>
80002600:	10025537          	lui	a0,0x10025
80002604:	f2dfd0ef          	jal	ra,80000530 <i2c_busy>
80002608:	c511                	beqz	a0,80002614 <OLED_Init+0xf9c>
8000260a:	10025537          	lui	a0,0x10025
8000260e:	f23fd0ef          	jal	ra,80000530 <i2c_busy>
80002612:	f94d                	bnez	a0,800025c4 <OLED_Init+0xf4c>
C:\Users\ming\Desktop\i2c\Debug/../application/oled.c:65
  while(i2c_busy(I2C_ID));
80002614:	10025537          	lui	a0,0x10025
80002618:	f19fd0ef          	jal	ra,80000530 <i2c_busy>
8000261c:	c521                	beqz	a0,80002664 <OLED_Init+0xfec>
8000261e:	10025537          	lui	a0,0x10025
80002622:	f0ffd0ef          	jal	ra,80000530 <i2c_busy>
80002626:	cd1d                	beqz	a0,80002664 <OLED_Init+0xfec>
80002628:	10025537          	lui	a0,0x10025
8000262c:	f05fd0ef          	jal	ra,80000530 <i2c_busy>
80002630:	c915                	beqz	a0,80002664 <OLED_Init+0xfec>
80002632:	10025537          	lui	a0,0x10025
80002636:	efbfd0ef          	jal	ra,80000530 <i2c_busy>
8000263a:	c50d                	beqz	a0,80002664 <OLED_Init+0xfec>
8000263c:	10025537          	lui	a0,0x10025
80002640:	ef1fd0ef          	jal	ra,80000530 <i2c_busy>
80002644:	c105                	beqz	a0,80002664 <OLED_Init+0xfec>
80002646:	10025537          	lui	a0,0x10025
8000264a:	ee7fd0ef          	jal	ra,80000530 <i2c_busy>
8000264e:	c919                	beqz	a0,80002664 <OLED_Init+0xfec>
80002650:	10025537          	lui	a0,0x10025
80002654:	eddfd0ef          	jal	ra,80000530 <i2c_busy>
80002658:	c511                	beqz	a0,80002664 <OLED_Init+0xfec>
8000265a:	10025537          	lui	a0,0x10025
8000265e:	ed3fd0ef          	jal	ra,80000530 <i2c_busy>
80002662:	f94d                	bnez	a0,80002614 <OLED_Init+0xf9c>
C:\Users\ming\Desktop\i2c\Debug/../application/oled.c:44
	  {*(gTxPacket)=0x00;}
80002664:	7779                	lui	a4,0xffffe
80002666:	a0070813          	addi	a6,a4,-1536 # ffffda00 <_sp+0x6ffeda00>
C:\Users\ming\Desktop\i2c\Debug/../application/oled.c:47
	  i2c_send_data(I2C_ID, 0x3c);
8000266a:	03c00593          	li	a1,60
8000266e:	10025537          	lui	a0,0x10025
C:\Users\ming\Desktop\i2c\Debug/../application/oled.c:44
	  {*(gTxPacket)=0x00;}
80002672:	01041023          	sh	a6,0(s0)
C:\Users\ming\Desktop\i2c\Debug/../application/oled.c:47
	  i2c_send_data(I2C_ID, 0x3c);
80002676:	e93fd0ef          	jal	ra,80000508 <i2c_send_data>
C:\Users\ming\Desktop\i2c\Debug/../application/oled.c:48
	  i2c_send_command(I2C_ID, I2C_WRITE);
8000267a:	45c1                	li	a1,16
8000267c:	10025537          	lui	a0,0x10025
80002680:	e9dfd0ef          	jal	ra,8000051c <i2c_send_command>
C:\Users\ming\Desktop\i2c\Debug/../application/oled.c:50
	      i2c_send_data(I2C_ID, *(gTxPacket+i));            //write i-th byte into fifo
80002684:	00044583          	lbu	a1,0(s0)
80002688:	10025537          	lui	a0,0x10025
8000268c:	e7dfd0ef          	jal	ra,80000508 <i2c_send_data>
C:\Users\ming\Desktop\i2c\Debug/../application/oled.c:51
	      i2c_send_command(I2C_ID, I2C_START_WRITE); //send data on the i2c bus                 //wait for ack
80002690:	09000593          	li	a1,144
80002694:	10025537          	lui	a0,0x10025
80002698:	e85fd0ef          	jal	ra,8000051c <i2c_send_command>
C:\Users\ming\Desktop\i2c\Debug/../application/oled.c:50
	      i2c_send_data(I2C_ID, *(gTxPacket+i));            //write i-th byte into fifo
8000269c:	00144583          	lbu	a1,1(s0)
800026a0:	10025537          	lui	a0,0x10025
800026a4:	e65fd0ef          	jal	ra,80000508 <i2c_send_data>
C:\Users\ming\Desktop\i2c\Debug/../application/oled.c:51
	      i2c_send_command(I2C_ID, I2C_START_WRITE); //send data on the i2c bus                 //wait for ack
800026a8:	09000593          	li	a1,144
800026ac:	10025537          	lui	a0,0x10025
800026b0:	e6dfd0ef          	jal	ra,8000051c <i2c_send_command>
C:\Users\ming\Desktop\i2c\Debug/../application/oled.c:53
	  while(i2c_busy(I2C_ID));
800026b4:	10025537          	lui	a0,0x10025
800026b8:	e79fd0ef          	jal	ra,80000530 <i2c_busy>
800026bc:	c521                	beqz	a0,80002704 <OLED_Init+0x108c>
800026be:	10025537          	lui	a0,0x10025
800026c2:	e6ffd0ef          	jal	ra,80000530 <i2c_busy>
800026c6:	cd1d                	beqz	a0,80002704 <OLED_Init+0x108c>
800026c8:	10025537          	lui	a0,0x10025
800026cc:	e65fd0ef          	jal	ra,80000530 <i2c_busy>
800026d0:	c915                	beqz	a0,80002704 <OLED_Init+0x108c>
800026d2:	10025537          	lui	a0,0x10025
800026d6:	e5bfd0ef          	jal	ra,80000530 <i2c_busy>
800026da:	c50d                	beqz	a0,80002704 <OLED_Init+0x108c>
800026dc:	10025537          	lui	a0,0x10025
800026e0:	e51fd0ef          	jal	ra,80000530 <i2c_busy>
800026e4:	c105                	beqz	a0,80002704 <OLED_Init+0x108c>
800026e6:	10025537          	lui	a0,0x10025
800026ea:	e47fd0ef          	jal	ra,80000530 <i2c_busy>
800026ee:	c919                	beqz	a0,80002704 <OLED_Init+0x108c>
800026f0:	10025537          	lui	a0,0x10025
800026f4:	e3dfd0ef          	jal	ra,80000530 <i2c_busy>
800026f8:	c511                	beqz	a0,80002704 <OLED_Init+0x108c>
800026fa:	10025537          	lui	a0,0x10025
800026fe:	e33fd0ef          	jal	ra,80000530 <i2c_busy>
80002702:	f94d                	bnez	a0,800026b4 <OLED_Init+0x103c>
C:\Users\ming\Desktop\i2c\Debug/../application/oled.c:65
  while(i2c_busy(I2C_ID));
80002704:	10025537          	lui	a0,0x10025
80002708:	e29fd0ef          	jal	ra,80000530 <i2c_busy>
8000270c:	c521                	beqz	a0,80002754 <OLED_Init+0x10dc>
8000270e:	10025537          	lui	a0,0x10025
80002712:	e1ffd0ef          	jal	ra,80000530 <i2c_busy>
80002716:	cd1d                	beqz	a0,80002754 <OLED_Init+0x10dc>
80002718:	10025537          	lui	a0,0x10025
8000271c:	e15fd0ef          	jal	ra,80000530 <i2c_busy>
80002720:	c915                	beqz	a0,80002754 <OLED_Init+0x10dc>
80002722:	10025537          	lui	a0,0x10025
80002726:	e0bfd0ef          	jal	ra,80000530 <i2c_busy>
8000272a:	c50d                	beqz	a0,80002754 <OLED_Init+0x10dc>
8000272c:	10025537          	lui	a0,0x10025
80002730:	e01fd0ef          	jal	ra,80000530 <i2c_busy>
80002734:	c105                	beqz	a0,80002754 <OLED_Init+0x10dc>
80002736:	10025537          	lui	a0,0x10025
8000273a:	df7fd0ef          	jal	ra,80000530 <i2c_busy>
8000273e:	c919                	beqz	a0,80002754 <OLED_Init+0x10dc>
80002740:	10025537          	lui	a0,0x10025
80002744:	dedfd0ef          	jal	ra,80000530 <i2c_busy>
80002748:	c511                	beqz	a0,80002754 <OLED_Init+0x10dc>
8000274a:	10025537          	lui	a0,0x10025
8000274e:	de3fd0ef          	jal	ra,80000530 <i2c_busy>
80002752:	f94d                	bnez	a0,80002704 <OLED_Init+0x108c>
C:\Users\ming\Desktop\i2c\Debug/../application/oled.c:44
	  {*(gTxPacket)=0x00;}
80002754:	6885                	lui	a7,0x1
80002756:	20088913          	addi	s2,a7,512 # 1200 <__stack_size+0xa00>
C:\Users\ming\Desktop\i2c\Debug/../application/oled.c:47
	  i2c_send_data(I2C_ID, 0x3c);
8000275a:	03c00593          	li	a1,60
8000275e:	10025537          	lui	a0,0x10025
C:\Users\ming\Desktop\i2c\Debug/../application/oled.c:44
	  {*(gTxPacket)=0x00;}
80002762:	01241023          	sh	s2,0(s0)
C:\Users\ming\Desktop\i2c\Debug/../application/oled.c:47
	  i2c_send_data(I2C_ID, 0x3c);
80002766:	da3fd0ef          	jal	ra,80000508 <i2c_send_data>
C:\Users\ming\Desktop\i2c\Debug/../application/oled.c:48
	  i2c_send_command(I2C_ID, I2C_WRITE);
8000276a:	45c1                	li	a1,16
8000276c:	10025537          	lui	a0,0x10025
80002770:	dadfd0ef          	jal	ra,8000051c <i2c_send_command>
C:\Users\ming\Desktop\i2c\Debug/../application/oled.c:50
	      i2c_send_data(I2C_ID, *(gTxPacket+i));            //write i-th byte into fifo
80002774:	00044583          	lbu	a1,0(s0)
80002778:	10025537          	lui	a0,0x10025
8000277c:	d8dfd0ef          	jal	ra,80000508 <i2c_send_data>
C:\Users\ming\Desktop\i2c\Debug/../application/oled.c:51
	      i2c_send_command(I2C_ID, I2C_START_WRITE); //send data on the i2c bus                 //wait for ack
80002780:	09000593          	li	a1,144
80002784:	10025537          	lui	a0,0x10025
80002788:	d95fd0ef          	jal	ra,8000051c <i2c_send_command>
C:\Users\ming\Desktop\i2c\Debug/../application/oled.c:50
	      i2c_send_data(I2C_ID, *(gTxPacket+i));            //write i-th byte into fifo
8000278c:	00144583          	lbu	a1,1(s0)
80002790:	10025537          	lui	a0,0x10025
80002794:	d75fd0ef          	jal	ra,80000508 <i2c_send_data>
C:\Users\ming\Desktop\i2c\Debug/../application/oled.c:51
	      i2c_send_command(I2C_ID, I2C_START_WRITE); //send data on the i2c bus                 //wait for ack
80002798:	09000593          	li	a1,144
8000279c:	10025537          	lui	a0,0x10025
800027a0:	d7dfd0ef          	jal	ra,8000051c <i2c_send_command>
C:\Users\ming\Desktop\i2c\Debug/../application/oled.c:53
	  while(i2c_busy(I2C_ID));
800027a4:	10025537          	lui	a0,0x10025
800027a8:	d89fd0ef          	jal	ra,80000530 <i2c_busy>
800027ac:	c521                	beqz	a0,800027f4 <OLED_Init+0x117c>
800027ae:	10025537          	lui	a0,0x10025
800027b2:	d7ffd0ef          	jal	ra,80000530 <i2c_busy>
800027b6:	cd1d                	beqz	a0,800027f4 <OLED_Init+0x117c>
800027b8:	10025537          	lui	a0,0x10025
800027bc:	d75fd0ef          	jal	ra,80000530 <i2c_busy>
800027c0:	c915                	beqz	a0,800027f4 <OLED_Init+0x117c>
800027c2:	10025537          	lui	a0,0x10025
800027c6:	d6bfd0ef          	jal	ra,80000530 <i2c_busy>
800027ca:	c50d                	beqz	a0,800027f4 <OLED_Init+0x117c>
800027cc:	10025537          	lui	a0,0x10025
800027d0:	d61fd0ef          	jal	ra,80000530 <i2c_busy>
800027d4:	c105                	beqz	a0,800027f4 <OLED_Init+0x117c>
800027d6:	10025537          	lui	a0,0x10025
800027da:	d57fd0ef          	jal	ra,80000530 <i2c_busy>
800027de:	c919                	beqz	a0,800027f4 <OLED_Init+0x117c>
800027e0:	10025537          	lui	a0,0x10025
800027e4:	d4dfd0ef          	jal	ra,80000530 <i2c_busy>
800027e8:	c511                	beqz	a0,800027f4 <OLED_Init+0x117c>
800027ea:	10025537          	lui	a0,0x10025
800027ee:	d43fd0ef          	jal	ra,80000530 <i2c_busy>
800027f2:	f94d                	bnez	a0,800027a4 <OLED_Init+0x112c>
C:\Users\ming\Desktop\i2c\Debug/../application/oled.c:65
  while(i2c_busy(I2C_ID));
800027f4:	10025537          	lui	a0,0x10025
800027f8:	d39fd0ef          	jal	ra,80000530 <i2c_busy>
800027fc:	c521                	beqz	a0,80002844 <OLED_Init+0x11cc>
800027fe:	10025537          	lui	a0,0x10025
80002802:	d2ffd0ef          	jal	ra,80000530 <i2c_busy>
80002806:	cd1d                	beqz	a0,80002844 <OLED_Init+0x11cc>
80002808:	10025537          	lui	a0,0x10025
8000280c:	d25fd0ef          	jal	ra,80000530 <i2c_busy>
80002810:	c915                	beqz	a0,80002844 <OLED_Init+0x11cc>
80002812:	10025537          	lui	a0,0x10025
80002816:	d1bfd0ef          	jal	ra,80000530 <i2c_busy>
8000281a:	c50d                	beqz	a0,80002844 <OLED_Init+0x11cc>
8000281c:	10025537          	lui	a0,0x10025
80002820:	d11fd0ef          	jal	ra,80000530 <i2c_busy>
80002824:	c105                	beqz	a0,80002844 <OLED_Init+0x11cc>
80002826:	10025537          	lui	a0,0x10025
8000282a:	d07fd0ef          	jal	ra,80000530 <i2c_busy>
8000282e:	c919                	beqz	a0,80002844 <OLED_Init+0x11cc>
80002830:	10025537          	lui	a0,0x10025
80002834:	cfdfd0ef          	jal	ra,80000530 <i2c_busy>
80002838:	c511                	beqz	a0,80002844 <OLED_Init+0x11cc>
8000283a:	10025537          	lui	a0,0x10025
8000283e:	cf3fd0ef          	jal	ra,80000530 <i2c_busy>
80002842:	f94d                	bnez	a0,800027f4 <OLED_Init+0x117c>
C:\Users\ming\Desktop\i2c\Debug/../application/oled.c:44
	  {*(gTxPacket)=0x00;}
80002844:	79f9                	lui	s3,0xffffe
C:\Users\ming\Desktop\i2c\Debug/../application/oled.c:47
	  i2c_send_data(I2C_ID, 0x3c);
80002846:	03c00593          	li	a1,60
8000284a:	10025537          	lui	a0,0x10025
C:\Users\ming\Desktop\i2c\Debug/../application/oled.c:44
	  {*(gTxPacket)=0x00;}
8000284e:	b0098a13          	addi	s4,s3,-1280 # ffffdb00 <_sp+0x6ffedb00>
80002852:	01441023          	sh	s4,0(s0)
C:\Users\ming\Desktop\i2c\Debug/../application/oled.c:47
	  i2c_send_data(I2C_ID, 0x3c);
80002856:	cb3fd0ef          	jal	ra,80000508 <i2c_send_data>
C:\Users\ming\Desktop\i2c\Debug/../application/oled.c:48
	  i2c_send_command(I2C_ID, I2C_WRITE);
8000285a:	45c1                	li	a1,16
8000285c:	10025537          	lui	a0,0x10025
80002860:	cbdfd0ef          	jal	ra,8000051c <i2c_send_command>
C:\Users\ming\Desktop\i2c\Debug/../application/oled.c:50
	      i2c_send_data(I2C_ID, *(gTxPacket+i));            //write i-th byte into fifo
80002864:	00044583          	lbu	a1,0(s0)
80002868:	10025537          	lui	a0,0x10025
8000286c:	c9dfd0ef          	jal	ra,80000508 <i2c_send_data>
C:\Users\ming\Desktop\i2c\Debug/../application/oled.c:51
	      i2c_send_command(I2C_ID, I2C_START_WRITE); //send data on the i2c bus                 //wait for ack
80002870:	09000593          	li	a1,144
80002874:	10025537          	lui	a0,0x10025
80002878:	ca5fd0ef          	jal	ra,8000051c <i2c_send_command>
C:\Users\ming\Desktop\i2c\Debug/../application/oled.c:50
	      i2c_send_data(I2C_ID, *(gTxPacket+i));            //write i-th byte into fifo
8000287c:	00144583          	lbu	a1,1(s0)
80002880:	10025537          	lui	a0,0x10025
80002884:	c85fd0ef          	jal	ra,80000508 <i2c_send_data>
C:\Users\ming\Desktop\i2c\Debug/../application/oled.c:51
	      i2c_send_command(I2C_ID, I2C_START_WRITE); //send data on the i2c bus                 //wait for ack
80002888:	09000593          	li	a1,144
8000288c:	10025537          	lui	a0,0x10025
80002890:	c8dfd0ef          	jal	ra,8000051c <i2c_send_command>
C:\Users\ming\Desktop\i2c\Debug/../application/oled.c:53
	  while(i2c_busy(I2C_ID));
80002894:	10025537          	lui	a0,0x10025
80002898:	c99fd0ef          	jal	ra,80000530 <i2c_busy>
8000289c:	c521                	beqz	a0,800028e4 <OLED_Init+0x126c>
8000289e:	10025537          	lui	a0,0x10025
800028a2:	c8ffd0ef          	jal	ra,80000530 <i2c_busy>
800028a6:	cd1d                	beqz	a0,800028e4 <OLED_Init+0x126c>
800028a8:	10025537          	lui	a0,0x10025
800028ac:	c85fd0ef          	jal	ra,80000530 <i2c_busy>
800028b0:	c915                	beqz	a0,800028e4 <OLED_Init+0x126c>
800028b2:	10025537          	lui	a0,0x10025
800028b6:	c7bfd0ef          	jal	ra,80000530 <i2c_busy>
800028ba:	c50d                	beqz	a0,800028e4 <OLED_Init+0x126c>
800028bc:	10025537          	lui	a0,0x10025
800028c0:	c71fd0ef          	jal	ra,80000530 <i2c_busy>
800028c4:	c105                	beqz	a0,800028e4 <OLED_Init+0x126c>
800028c6:	10025537          	lui	a0,0x10025
800028ca:	c67fd0ef          	jal	ra,80000530 <i2c_busy>
800028ce:	c919                	beqz	a0,800028e4 <OLED_Init+0x126c>
800028d0:	10025537          	lui	a0,0x10025
800028d4:	c5dfd0ef          	jal	ra,80000530 <i2c_busy>
800028d8:	c511                	beqz	a0,800028e4 <OLED_Init+0x126c>
800028da:	10025537          	lui	a0,0x10025
800028de:	c53fd0ef          	jal	ra,80000530 <i2c_busy>
800028e2:	f94d                	bnez	a0,80002894 <OLED_Init+0x121c>
C:\Users\ming\Desktop\i2c\Debug/../application/oled.c:65
  while(i2c_busy(I2C_ID));
800028e4:	10025537          	lui	a0,0x10025
800028e8:	c49fd0ef          	jal	ra,80000530 <i2c_busy>
800028ec:	c521                	beqz	a0,80002934 <OLED_Init+0x12bc>
800028ee:	10025537          	lui	a0,0x10025
800028f2:	c3ffd0ef          	jal	ra,80000530 <i2c_busy>
800028f6:	cd1d                	beqz	a0,80002934 <OLED_Init+0x12bc>
800028f8:	10025537          	lui	a0,0x10025
800028fc:	c35fd0ef          	jal	ra,80000530 <i2c_busy>
80002900:	c915                	beqz	a0,80002934 <OLED_Init+0x12bc>
80002902:	10025537          	lui	a0,0x10025
80002906:	c2bfd0ef          	jal	ra,80000530 <i2c_busy>
8000290a:	c50d                	beqz	a0,80002934 <OLED_Init+0x12bc>
8000290c:	10025537          	lui	a0,0x10025
80002910:	c21fd0ef          	jal	ra,80000530 <i2c_busy>
80002914:	c105                	beqz	a0,80002934 <OLED_Init+0x12bc>
80002916:	10025537          	lui	a0,0x10025
8000291a:	c17fd0ef          	jal	ra,80000530 <i2c_busy>
8000291e:	c919                	beqz	a0,80002934 <OLED_Init+0x12bc>
80002920:	10025537          	lui	a0,0x10025
80002924:	c0dfd0ef          	jal	ra,80000530 <i2c_busy>
80002928:	c511                	beqz	a0,80002934 <OLED_Init+0x12bc>
8000292a:	10025537          	lui	a0,0x10025
8000292e:	c03fd0ef          	jal	ra,80000530 <i2c_busy>
80002932:	f94d                	bnez	a0,800028e4 <OLED_Init+0x126c>
C:\Users\ming\Desktop\i2c\Debug/../application/oled.c:47
	  i2c_send_data(I2C_ID, 0x3c);
80002934:	03c00593          	li	a1,60
80002938:	10025537          	lui	a0,0x10025
C:\Users\ming\Desktop\i2c\Debug/../application/oled.c:44
	  {*(gTxPacket)=0x00;}
8000293c:	6a91                	lui	s5,0x4
8000293e:	01541023          	sh	s5,0(s0)
C:\Users\ming\Desktop\i2c\Debug/../application/oled.c:47
	  i2c_send_data(I2C_ID, 0x3c);
80002942:	bc7fd0ef          	jal	ra,80000508 <i2c_send_data>
C:\Users\ming\Desktop\i2c\Debug/../application/oled.c:48
	  i2c_send_command(I2C_ID, I2C_WRITE);
80002946:	45c1                	li	a1,16
80002948:	10025537          	lui	a0,0x10025
8000294c:	bd1fd0ef          	jal	ra,8000051c <i2c_send_command>
C:\Users\ming\Desktop\i2c\Debug/../application/oled.c:50
	      i2c_send_data(I2C_ID, *(gTxPacket+i));            //write i-th byte into fifo
80002950:	00044583          	lbu	a1,0(s0)
80002954:	10025537          	lui	a0,0x10025
80002958:	bb1fd0ef          	jal	ra,80000508 <i2c_send_data>
C:\Users\ming\Desktop\i2c\Debug/../application/oled.c:51
	      i2c_send_command(I2C_ID, I2C_START_WRITE); //send data on the i2c bus                 //wait for ack
8000295c:	09000593          	li	a1,144
80002960:	10025537          	lui	a0,0x10025
80002964:	bb9fd0ef          	jal	ra,8000051c <i2c_send_command>
C:\Users\ming\Desktop\i2c\Debug/../application/oled.c:50
	      i2c_send_data(I2C_ID, *(gTxPacket+i));            //write i-th byte into fifo
80002968:	00144583          	lbu	a1,1(s0)
8000296c:	10025537          	lui	a0,0x10025
80002970:	b99fd0ef          	jal	ra,80000508 <i2c_send_data>
C:\Users\ming\Desktop\i2c\Debug/../application/oled.c:51
	      i2c_send_command(I2C_ID, I2C_START_WRITE); //send data on the i2c bus                 //wait for ack
80002974:	09000593          	li	a1,144
80002978:	10025537          	lui	a0,0x10025
8000297c:	ba1fd0ef          	jal	ra,8000051c <i2c_send_command>
C:\Users\ming\Desktop\i2c\Debug/../application/oled.c:53
	  while(i2c_busy(I2C_ID));
80002980:	10025537          	lui	a0,0x10025
80002984:	badfd0ef          	jal	ra,80000530 <i2c_busy>
80002988:	c521                	beqz	a0,800029d0 <OLED_Init+0x1358>
8000298a:	10025537          	lui	a0,0x10025
8000298e:	ba3fd0ef          	jal	ra,80000530 <i2c_busy>
80002992:	cd1d                	beqz	a0,800029d0 <OLED_Init+0x1358>
80002994:	10025537          	lui	a0,0x10025
80002998:	b99fd0ef          	jal	ra,80000530 <i2c_busy>
8000299c:	c915                	beqz	a0,800029d0 <OLED_Init+0x1358>
8000299e:	10025537          	lui	a0,0x10025
800029a2:	b8ffd0ef          	jal	ra,80000530 <i2c_busy>
800029a6:	c50d                	beqz	a0,800029d0 <OLED_Init+0x1358>
800029a8:	10025537          	lui	a0,0x10025
800029ac:	b85fd0ef          	jal	ra,80000530 <i2c_busy>
800029b0:	c105                	beqz	a0,800029d0 <OLED_Init+0x1358>
800029b2:	10025537          	lui	a0,0x10025
800029b6:	b7bfd0ef          	jal	ra,80000530 <i2c_busy>
800029ba:	c919                	beqz	a0,800029d0 <OLED_Init+0x1358>
800029bc:	10025537          	lui	a0,0x10025
800029c0:	b71fd0ef          	jal	ra,80000530 <i2c_busy>
800029c4:	c511                	beqz	a0,800029d0 <OLED_Init+0x1358>
800029c6:	10025537          	lui	a0,0x10025
800029ca:	b67fd0ef          	jal	ra,80000530 <i2c_busy>
800029ce:	f94d                	bnez	a0,80002980 <OLED_Init+0x1308>
C:\Users\ming\Desktop\i2c\Debug/../application/oled.c:65
  while(i2c_busy(I2C_ID));
800029d0:	10025537          	lui	a0,0x10025
800029d4:	b5dfd0ef          	jal	ra,80000530 <i2c_busy>
800029d8:	c521                	beqz	a0,80002a20 <OLED_Init+0x13a8>
800029da:	10025537          	lui	a0,0x10025
800029de:	b53fd0ef          	jal	ra,80000530 <i2c_busy>
800029e2:	cd1d                	beqz	a0,80002a20 <OLED_Init+0x13a8>
800029e4:	10025537          	lui	a0,0x10025
800029e8:	b49fd0ef          	jal	ra,80000530 <i2c_busy>
800029ec:	c915                	beqz	a0,80002a20 <OLED_Init+0x13a8>
800029ee:	10025537          	lui	a0,0x10025
800029f2:	b3ffd0ef          	jal	ra,80000530 <i2c_busy>
800029f6:	c50d                	beqz	a0,80002a20 <OLED_Init+0x13a8>
800029f8:	10025537          	lui	a0,0x10025
800029fc:	b35fd0ef          	jal	ra,80000530 <i2c_busy>
80002a00:	c105                	beqz	a0,80002a20 <OLED_Init+0x13a8>
80002a02:	10025537          	lui	a0,0x10025
80002a06:	b2bfd0ef          	jal	ra,80000530 <i2c_busy>
80002a0a:	c919                	beqz	a0,80002a20 <OLED_Init+0x13a8>
80002a0c:	10025537          	lui	a0,0x10025
80002a10:	b21fd0ef          	jal	ra,80000530 <i2c_busy>
80002a14:	c511                	beqz	a0,80002a20 <OLED_Init+0x13a8>
80002a16:	10025537          	lui	a0,0x10025
80002a1a:	b17fd0ef          	jal	ra,80000530 <i2c_busy>
80002a1e:	f94d                	bnez	a0,800029d0 <OLED_Init+0x1358>
C:\Users\ming\Desktop\i2c\Debug/../application/oled.c:44
	  {*(gTxPacket)=0x00;}
80002a20:	6e09                	lui	t3,0x2
C:\Users\ming\Desktop\i2c\Debug/../application/oled.c:47
	  i2c_send_data(I2C_ID, 0x3c);
80002a22:	03c00593          	li	a1,60
80002a26:	10025537          	lui	a0,0x10025
C:\Users\ming\Desktop\i2c\Debug/../application/oled.c:44
	  {*(gTxPacket)=0x00;}
80002a2a:	01c41023          	sh	t3,0(s0)
C:\Users\ming\Desktop\i2c\Debug/../application/oled.c:47
	  i2c_send_data(I2C_ID, 0x3c);
80002a2e:	adbfd0ef          	jal	ra,80000508 <i2c_send_data>
C:\Users\ming\Desktop\i2c\Debug/../application/oled.c:48
	  i2c_send_command(I2C_ID, I2C_WRITE);
80002a32:	45c1                	li	a1,16
80002a34:	10025537          	lui	a0,0x10025
80002a38:	ae5fd0ef          	jal	ra,8000051c <i2c_send_command>
C:\Users\ming\Desktop\i2c\Debug/../application/oled.c:50
	      i2c_send_data(I2C_ID, *(gTxPacket+i));            //write i-th byte into fifo
80002a3c:	00044583          	lbu	a1,0(s0)
80002a40:	10025537          	lui	a0,0x10025
80002a44:	ac5fd0ef          	jal	ra,80000508 <i2c_send_data>
C:\Users\ming\Desktop\i2c\Debug/../application/oled.c:51
	      i2c_send_command(I2C_ID, I2C_START_WRITE); //send data on the i2c bus                 //wait for ack
80002a48:	09000593          	li	a1,144
80002a4c:	10025537          	lui	a0,0x10025
80002a50:	acdfd0ef          	jal	ra,8000051c <i2c_send_command>
C:\Users\ming\Desktop\i2c\Debug/../application/oled.c:50
	      i2c_send_data(I2C_ID, *(gTxPacket+i));            //write i-th byte into fifo
80002a54:	00144583          	lbu	a1,1(s0)
80002a58:	10025537          	lui	a0,0x10025
80002a5c:	aadfd0ef          	jal	ra,80000508 <i2c_send_data>
C:\Users\ming\Desktop\i2c\Debug/../application/oled.c:51
	      i2c_send_command(I2C_ID, I2C_START_WRITE); //send data on the i2c bus                 //wait for ack
80002a60:	09000593          	li	a1,144
80002a64:	10025537          	lui	a0,0x10025
80002a68:	ab5fd0ef          	jal	ra,8000051c <i2c_send_command>
C:\Users\ming\Desktop\i2c\Debug/../application/oled.c:53
	  while(i2c_busy(I2C_ID));
80002a6c:	10025537          	lui	a0,0x10025
80002a70:	ac1fd0ef          	jal	ra,80000530 <i2c_busy>
80002a74:	c521                	beqz	a0,80002abc <OLED_Init+0x1444>
80002a76:	10025537          	lui	a0,0x10025
80002a7a:	ab7fd0ef          	jal	ra,80000530 <i2c_busy>
80002a7e:	cd1d                	beqz	a0,80002abc <OLED_Init+0x1444>
80002a80:	10025537          	lui	a0,0x10025
80002a84:	aadfd0ef          	jal	ra,80000530 <i2c_busy>
80002a88:	c915                	beqz	a0,80002abc <OLED_Init+0x1444>
80002a8a:	10025537          	lui	a0,0x10025
80002a8e:	aa3fd0ef          	jal	ra,80000530 <i2c_busy>
80002a92:	c50d                	beqz	a0,80002abc <OLED_Init+0x1444>
80002a94:	10025537          	lui	a0,0x10025
80002a98:	a99fd0ef          	jal	ra,80000530 <i2c_busy>
80002a9c:	c105                	beqz	a0,80002abc <OLED_Init+0x1444>
80002a9e:	10025537          	lui	a0,0x10025
80002aa2:	a8ffd0ef          	jal	ra,80000530 <i2c_busy>
80002aa6:	c919                	beqz	a0,80002abc <OLED_Init+0x1444>
80002aa8:	10025537          	lui	a0,0x10025
80002aac:	a85fd0ef          	jal	ra,80000530 <i2c_busy>
80002ab0:	c511                	beqz	a0,80002abc <OLED_Init+0x1444>
80002ab2:	10025537          	lui	a0,0x10025
80002ab6:	a7bfd0ef          	jal	ra,80000530 <i2c_busy>
80002aba:	f94d                	bnez	a0,80002a6c <OLED_Init+0x13f4>
C:\Users\ming\Desktop\i2c\Debug/../application/oled.c:65
  while(i2c_busy(I2C_ID));
80002abc:	10025537          	lui	a0,0x10025
80002ac0:	a71fd0ef          	jal	ra,80000530 <i2c_busy>
80002ac4:	c521                	beqz	a0,80002b0c <OLED_Init+0x1494>
80002ac6:	10025537          	lui	a0,0x10025
80002aca:	a67fd0ef          	jal	ra,80000530 <i2c_busy>
80002ace:	cd1d                	beqz	a0,80002b0c <OLED_Init+0x1494>
80002ad0:	10025537          	lui	a0,0x10025
80002ad4:	a5dfd0ef          	jal	ra,80000530 <i2c_busy>
80002ad8:	c915                	beqz	a0,80002b0c <OLED_Init+0x1494>
80002ada:	10025537          	lui	a0,0x10025
80002ade:	a53fd0ef          	jal	ra,80000530 <i2c_busy>
80002ae2:	c50d                	beqz	a0,80002b0c <OLED_Init+0x1494>
80002ae4:	10025537          	lui	a0,0x10025
80002ae8:	a49fd0ef          	jal	ra,80000530 <i2c_busy>
80002aec:	c105                	beqz	a0,80002b0c <OLED_Init+0x1494>
80002aee:	10025537          	lui	a0,0x10025
80002af2:	a3ffd0ef          	jal	ra,80000530 <i2c_busy>
80002af6:	c919                	beqz	a0,80002b0c <OLED_Init+0x1494>
80002af8:	10025537          	lui	a0,0x10025
80002afc:	a35fd0ef          	jal	ra,80000530 <i2c_busy>
80002b00:	c511                	beqz	a0,80002b0c <OLED_Init+0x1494>
80002b02:	10025537          	lui	a0,0x10025
80002b06:	a2bfd0ef          	jal	ra,80000530 <i2c_busy>
80002b0a:	f94d                	bnez	a0,80002abc <OLED_Init+0x1444>
C:\Users\ming\Desktop\i2c\Debug/../application/oled.c:44
	  {*(gTxPacket)=0x00;}
80002b0c:	20000e93          	li	t4,512
C:\Users\ming\Desktop\i2c\Debug/../application/oled.c:47
	  i2c_send_data(I2C_ID, 0x3c);
80002b10:	03c00593          	li	a1,60
80002b14:	10025537          	lui	a0,0x10025
C:\Users\ming\Desktop\i2c\Debug/../application/oled.c:44
	  {*(gTxPacket)=0x00;}
80002b18:	01d41023          	sh	t4,0(s0)
C:\Users\ming\Desktop\i2c\Debug/../application/oled.c:47
	  i2c_send_data(I2C_ID, 0x3c);
80002b1c:	9edfd0ef          	jal	ra,80000508 <i2c_send_data>
C:\Users\ming\Desktop\i2c\Debug/../application/oled.c:48
	  i2c_send_command(I2C_ID, I2C_WRITE);
80002b20:	45c1                	li	a1,16
80002b22:	10025537          	lui	a0,0x10025
80002b26:	9f7fd0ef          	jal	ra,8000051c <i2c_send_command>
C:\Users\ming\Desktop\i2c\Debug/../application/oled.c:50
	      i2c_send_data(I2C_ID, *(gTxPacket+i));            //write i-th byte into fifo
80002b2a:	00044583          	lbu	a1,0(s0)
80002b2e:	10025537          	lui	a0,0x10025
80002b32:	9d7fd0ef          	jal	ra,80000508 <i2c_send_data>
C:\Users\ming\Desktop\i2c\Debug/../application/oled.c:51
	      i2c_send_command(I2C_ID, I2C_START_WRITE); //send data on the i2c bus                 //wait for ack
80002b36:	09000593          	li	a1,144
80002b3a:	10025537          	lui	a0,0x10025
80002b3e:	9dffd0ef          	jal	ra,8000051c <i2c_send_command>
C:\Users\ming\Desktop\i2c\Debug/../application/oled.c:50
	      i2c_send_data(I2C_ID, *(gTxPacket+i));            //write i-th byte into fifo
80002b42:	00144583          	lbu	a1,1(s0)
80002b46:	10025537          	lui	a0,0x10025
80002b4a:	9bffd0ef          	jal	ra,80000508 <i2c_send_data>
C:\Users\ming\Desktop\i2c\Debug/../application/oled.c:51
	      i2c_send_command(I2C_ID, I2C_START_WRITE); //send data on the i2c bus                 //wait for ack
80002b4e:	09000593          	li	a1,144
80002b52:	10025537          	lui	a0,0x10025
80002b56:	9c7fd0ef          	jal	ra,8000051c <i2c_send_command>
C:\Users\ming\Desktop\i2c\Debug/../application/oled.c:53
	  while(i2c_busy(I2C_ID));
80002b5a:	10025537          	lui	a0,0x10025
80002b5e:	9d3fd0ef          	jal	ra,80000530 <i2c_busy>
80002b62:	c521                	beqz	a0,80002baa <OLED_Init+0x1532>
80002b64:	10025537          	lui	a0,0x10025
80002b68:	9c9fd0ef          	jal	ra,80000530 <i2c_busy>
80002b6c:	cd1d                	beqz	a0,80002baa <OLED_Init+0x1532>
80002b6e:	10025537          	lui	a0,0x10025
80002b72:	9bffd0ef          	jal	ra,80000530 <i2c_busy>
80002b76:	c915                	beqz	a0,80002baa <OLED_Init+0x1532>
80002b78:	10025537          	lui	a0,0x10025
80002b7c:	9b5fd0ef          	jal	ra,80000530 <i2c_busy>
80002b80:	c50d                	beqz	a0,80002baa <OLED_Init+0x1532>
80002b82:	10025537          	lui	a0,0x10025
80002b86:	9abfd0ef          	jal	ra,80000530 <i2c_busy>
80002b8a:	c105                	beqz	a0,80002baa <OLED_Init+0x1532>
80002b8c:	10025537          	lui	a0,0x10025
80002b90:	9a1fd0ef          	jal	ra,80000530 <i2c_busy>
80002b94:	c919                	beqz	a0,80002baa <OLED_Init+0x1532>
80002b96:	10025537          	lui	a0,0x10025
80002b9a:	997fd0ef          	jal	ra,80000530 <i2c_busy>
80002b9e:	c511                	beqz	a0,80002baa <OLED_Init+0x1532>
80002ba0:	10025537          	lui	a0,0x10025
80002ba4:	98dfd0ef          	jal	ra,80000530 <i2c_busy>
80002ba8:	f94d                	bnez	a0,80002b5a <OLED_Init+0x14e2>
C:\Users\ming\Desktop\i2c\Debug/../application/oled.c:65
  while(i2c_busy(I2C_ID));
80002baa:	10025537          	lui	a0,0x10025
80002bae:	983fd0ef          	jal	ra,80000530 <i2c_busy>
80002bb2:	c521                	beqz	a0,80002bfa <OLED_Init+0x1582>
80002bb4:	10025537          	lui	a0,0x10025
80002bb8:	979fd0ef          	jal	ra,80000530 <i2c_busy>
80002bbc:	cd1d                	beqz	a0,80002bfa <OLED_Init+0x1582>
80002bbe:	10025537          	lui	a0,0x10025
80002bc2:	96ffd0ef          	jal	ra,80000530 <i2c_busy>
80002bc6:	c915                	beqz	a0,80002bfa <OLED_Init+0x1582>
80002bc8:	10025537          	lui	a0,0x10025
80002bcc:	965fd0ef          	jal	ra,80000530 <i2c_busy>
80002bd0:	c50d                	beqz	a0,80002bfa <OLED_Init+0x1582>
80002bd2:	10025537          	lui	a0,0x10025
80002bd6:	95bfd0ef          	jal	ra,80000530 <i2c_busy>
80002bda:	c105                	beqz	a0,80002bfa <OLED_Init+0x1582>
80002bdc:	10025537          	lui	a0,0x10025
80002be0:	951fd0ef          	jal	ra,80000530 <i2c_busy>
80002be4:	c919                	beqz	a0,80002bfa <OLED_Init+0x1582>
80002be6:	10025537          	lui	a0,0x10025
80002bea:	947fd0ef          	jal	ra,80000530 <i2c_busy>
80002bee:	c511                	beqz	a0,80002bfa <OLED_Init+0x1582>
80002bf0:	10025537          	lui	a0,0x10025
80002bf4:	93dfd0ef          	jal	ra,80000530 <i2c_busy>
80002bf8:	f94d                	bnez	a0,80002baa <OLED_Init+0x1532>
C:\Users\ming\Desktop\i2c\Debug/../application/oled.c:44
	  {*(gTxPacket)=0x00;}
80002bfa:	7f65                	lui	t5,0xffff9
80002bfc:	d00f0f93          	addi	t6,t5,-768 # ffff8d00 <_sp+0x6ffe8d00>
C:\Users\ming\Desktop\i2c\Debug/../application/oled.c:47
	  i2c_send_data(I2C_ID, 0x3c);
80002c00:	03c00593          	li	a1,60
80002c04:	10025537          	lui	a0,0x10025
C:\Users\ming\Desktop\i2c\Debug/../application/oled.c:44
	  {*(gTxPacket)=0x00;}
80002c08:	01f41023          	sh	t6,0(s0)
C:\Users\ming\Desktop\i2c\Debug/../application/oled.c:47
	  i2c_send_data(I2C_ID, 0x3c);
80002c0c:	8fdfd0ef          	jal	ra,80000508 <i2c_send_data>
C:\Users\ming\Desktop\i2c\Debug/../application/oled.c:48
	  i2c_send_command(I2C_ID, I2C_WRITE);
80002c10:	45c1                	li	a1,16
80002c12:	10025537          	lui	a0,0x10025
80002c16:	907fd0ef          	jal	ra,8000051c <i2c_send_command>
C:\Users\ming\Desktop\i2c\Debug/../application/oled.c:50
	      i2c_send_data(I2C_ID, *(gTxPacket+i));            //write i-th byte into fifo
80002c1a:	00044583          	lbu	a1,0(s0)
80002c1e:	10025537          	lui	a0,0x10025
80002c22:	8e7fd0ef          	jal	ra,80000508 <i2c_send_data>
C:\Users\ming\Desktop\i2c\Debug/../application/oled.c:51
	      i2c_send_command(I2C_ID, I2C_START_WRITE); //send data on the i2c bus                 //wait for ack
80002c26:	09000593          	li	a1,144
80002c2a:	10025537          	lui	a0,0x10025
80002c2e:	8effd0ef          	jal	ra,8000051c <i2c_send_command>
C:\Users\ming\Desktop\i2c\Debug/../application/oled.c:50
	      i2c_send_data(I2C_ID, *(gTxPacket+i));            //write i-th byte into fifo
80002c32:	00144583          	lbu	a1,1(s0)
80002c36:	10025537          	lui	a0,0x10025
80002c3a:	8cffd0ef          	jal	ra,80000508 <i2c_send_data>
C:\Users\ming\Desktop\i2c\Debug/../application/oled.c:51
	      i2c_send_command(I2C_ID, I2C_START_WRITE); //send data on the i2c bus                 //wait for ack
80002c3e:	09000593          	li	a1,144
80002c42:	10025537          	lui	a0,0x10025
80002c46:	8d7fd0ef          	jal	ra,8000051c <i2c_send_command>
C:\Users\ming\Desktop\i2c\Debug/../application/oled.c:53
	  while(i2c_busy(I2C_ID));
80002c4a:	10025537          	lui	a0,0x10025
80002c4e:	8e3fd0ef          	jal	ra,80000530 <i2c_busy>
80002c52:	c521                	beqz	a0,80002c9a <OLED_Init+0x1622>
80002c54:	10025537          	lui	a0,0x10025
80002c58:	8d9fd0ef          	jal	ra,80000530 <i2c_busy>
80002c5c:	cd1d                	beqz	a0,80002c9a <OLED_Init+0x1622>
80002c5e:	10025537          	lui	a0,0x10025
80002c62:	8cffd0ef          	jal	ra,80000530 <i2c_busy>
80002c66:	c915                	beqz	a0,80002c9a <OLED_Init+0x1622>
80002c68:	10025537          	lui	a0,0x10025
80002c6c:	8c5fd0ef          	jal	ra,80000530 <i2c_busy>
80002c70:	c50d                	beqz	a0,80002c9a <OLED_Init+0x1622>
80002c72:	10025537          	lui	a0,0x10025
80002c76:	8bbfd0ef          	jal	ra,80000530 <i2c_busy>
80002c7a:	c105                	beqz	a0,80002c9a <OLED_Init+0x1622>
80002c7c:	10025537          	lui	a0,0x10025
80002c80:	8b1fd0ef          	jal	ra,80000530 <i2c_busy>
80002c84:	c919                	beqz	a0,80002c9a <OLED_Init+0x1622>
80002c86:	10025537          	lui	a0,0x10025
80002c8a:	8a7fd0ef          	jal	ra,80000530 <i2c_busy>
80002c8e:	c511                	beqz	a0,80002c9a <OLED_Init+0x1622>
80002c90:	10025537          	lui	a0,0x10025
80002c94:	89dfd0ef          	jal	ra,80000530 <i2c_busy>
80002c98:	f94d                	bnez	a0,80002c4a <OLED_Init+0x15d2>
C:\Users\ming\Desktop\i2c\Debug/../application/oled.c:65
  while(i2c_busy(I2C_ID));
80002c9a:	10025537          	lui	a0,0x10025
80002c9e:	893fd0ef          	jal	ra,80000530 <i2c_busy>
80002ca2:	c521                	beqz	a0,80002cea <OLED_Init+0x1672>
80002ca4:	10025537          	lui	a0,0x10025
80002ca8:	889fd0ef          	jal	ra,80000530 <i2c_busy>
80002cac:	cd1d                	beqz	a0,80002cea <OLED_Init+0x1672>
80002cae:	10025537          	lui	a0,0x10025
80002cb2:	87ffd0ef          	jal	ra,80000530 <i2c_busy>
80002cb6:	c915                	beqz	a0,80002cea <OLED_Init+0x1672>
80002cb8:	10025537          	lui	a0,0x10025
80002cbc:	875fd0ef          	jal	ra,80000530 <i2c_busy>
80002cc0:	c50d                	beqz	a0,80002cea <OLED_Init+0x1672>
80002cc2:	10025537          	lui	a0,0x10025
80002cc6:	86bfd0ef          	jal	ra,80000530 <i2c_busy>
80002cca:	c105                	beqz	a0,80002cea <OLED_Init+0x1672>
80002ccc:	10025537          	lui	a0,0x10025
80002cd0:	861fd0ef          	jal	ra,80000530 <i2c_busy>
80002cd4:	c919                	beqz	a0,80002cea <OLED_Init+0x1672>
80002cd6:	10025537          	lui	a0,0x10025
80002cda:	857fd0ef          	jal	ra,80000530 <i2c_busy>
80002cde:	c511                	beqz	a0,80002cea <OLED_Init+0x1672>
80002ce0:	10025537          	lui	a0,0x10025
80002ce4:	84dfd0ef          	jal	ra,80000530 <i2c_busy>
80002ce8:	f94d                	bnez	a0,80002c9a <OLED_Init+0x1622>
C:\Users\ming\Desktop\i2c\Debug/../application/oled.c:44
	  {*(gTxPacket)=0x00;}
80002cea:	6785                	lui	a5,0x1
80002cec:	40078093          	addi	ra,a5,1024 # 1400 <__stack_size+0xc00>
C:\Users\ming\Desktop\i2c\Debug/../application/oled.c:47
	  i2c_send_data(I2C_ID, 0x3c);
80002cf0:	03c00593          	li	a1,60
80002cf4:	10025537          	lui	a0,0x10025
C:\Users\ming\Desktop\i2c\Debug/../application/oled.c:44
	  {*(gTxPacket)=0x00;}
80002cf8:	00141023          	sh	ra,0(s0)
C:\Users\ming\Desktop\i2c\Debug/../application/oled.c:47
	  i2c_send_data(I2C_ID, 0x3c);
80002cfc:	80dfd0ef          	jal	ra,80000508 <i2c_send_data>
C:\Users\ming\Desktop\i2c\Debug/../application/oled.c:48
	  i2c_send_command(I2C_ID, I2C_WRITE);
80002d00:	45c1                	li	a1,16
80002d02:	10025537          	lui	a0,0x10025
80002d06:	817fd0ef          	jal	ra,8000051c <i2c_send_command>
C:\Users\ming\Desktop\i2c\Debug/../application/oled.c:50
	      i2c_send_data(I2C_ID, *(gTxPacket+i));            //write i-th byte into fifo
80002d0a:	00044583          	lbu	a1,0(s0)
80002d0e:	10025537          	lui	a0,0x10025
80002d12:	ff6fd0ef          	jal	ra,80000508 <i2c_send_data>
C:\Users\ming\Desktop\i2c\Debug/../application/oled.c:51
	      i2c_send_command(I2C_ID, I2C_START_WRITE); //send data on the i2c bus                 //wait for ack
80002d16:	09000593          	li	a1,144
80002d1a:	10025537          	lui	a0,0x10025
80002d1e:	ffefd0ef          	jal	ra,8000051c <i2c_send_command>
C:\Users\ming\Desktop\i2c\Debug/../application/oled.c:50
	      i2c_send_data(I2C_ID, *(gTxPacket+i));            //write i-th byte into fifo
80002d22:	00144583          	lbu	a1,1(s0)
80002d26:	10025537          	lui	a0,0x10025
80002d2a:	fdefd0ef          	jal	ra,80000508 <i2c_send_data>
C:\Users\ming\Desktop\i2c\Debug/../application/oled.c:51
	      i2c_send_command(I2C_ID, I2C_START_WRITE); //send data on the i2c bus                 //wait for ack
80002d2e:	09000593          	li	a1,144
80002d32:	10025537          	lui	a0,0x10025
80002d36:	fe6fd0ef          	jal	ra,8000051c <i2c_send_command>
C:\Users\ming\Desktop\i2c\Debug/../application/oled.c:53
	  while(i2c_busy(I2C_ID));
80002d3a:	10025537          	lui	a0,0x10025
80002d3e:	ff2fd0ef          	jal	ra,80000530 <i2c_busy>
80002d42:	c521                	beqz	a0,80002d8a <OLED_Init+0x1712>
80002d44:	10025537          	lui	a0,0x10025
80002d48:	fe8fd0ef          	jal	ra,80000530 <i2c_busy>
80002d4c:	cd1d                	beqz	a0,80002d8a <OLED_Init+0x1712>
80002d4e:	10025537          	lui	a0,0x10025
80002d52:	fdefd0ef          	jal	ra,80000530 <i2c_busy>
80002d56:	c915                	beqz	a0,80002d8a <OLED_Init+0x1712>
80002d58:	10025537          	lui	a0,0x10025
80002d5c:	fd4fd0ef          	jal	ra,80000530 <i2c_busy>
80002d60:	c50d                	beqz	a0,80002d8a <OLED_Init+0x1712>
80002d62:	10025537          	lui	a0,0x10025
80002d66:	fcafd0ef          	jal	ra,80000530 <i2c_busy>
80002d6a:	c105                	beqz	a0,80002d8a <OLED_Init+0x1712>
80002d6c:	10025537          	lui	a0,0x10025
80002d70:	fc0fd0ef          	jal	ra,80000530 <i2c_busy>
80002d74:	c919                	beqz	a0,80002d8a <OLED_Init+0x1712>
80002d76:	10025537          	lui	a0,0x10025
80002d7a:	fb6fd0ef          	jal	ra,80000530 <i2c_busy>
80002d7e:	c511                	beqz	a0,80002d8a <OLED_Init+0x1712>
80002d80:	10025537          	lui	a0,0x10025
80002d84:	facfd0ef          	jal	ra,80000530 <i2c_busy>
80002d88:	f94d                	bnez	a0,80002d3a <OLED_Init+0x16c2>
C:\Users\ming\Desktop\i2c\Debug/../application/oled.c:65
  while(i2c_busy(I2C_ID));
80002d8a:	10025537          	lui	a0,0x10025
80002d8e:	fa2fd0ef          	jal	ra,80000530 <i2c_busy>
80002d92:	c521                	beqz	a0,80002dda <OLED_Init+0x1762>
80002d94:	10025537          	lui	a0,0x10025
80002d98:	f98fd0ef          	jal	ra,80000530 <i2c_busy>
80002d9c:	cd1d                	beqz	a0,80002dda <OLED_Init+0x1762>
80002d9e:	10025537          	lui	a0,0x10025
80002da2:	f8efd0ef          	jal	ra,80000530 <i2c_busy>
80002da6:	c915                	beqz	a0,80002dda <OLED_Init+0x1762>
80002da8:	10025537          	lui	a0,0x10025
80002dac:	f84fd0ef          	jal	ra,80000530 <i2c_busy>
80002db0:	c50d                	beqz	a0,80002dda <OLED_Init+0x1762>
80002db2:	10025537          	lui	a0,0x10025
80002db6:	f7afd0ef          	jal	ra,80000530 <i2c_busy>
80002dba:	c105                	beqz	a0,80002dda <OLED_Init+0x1762>
80002dbc:	10025537          	lui	a0,0x10025
80002dc0:	f70fd0ef          	jal	ra,80000530 <i2c_busy>
80002dc4:	c919                	beqz	a0,80002dda <OLED_Init+0x1762>
80002dc6:	10025537          	lui	a0,0x10025
80002dca:	f66fd0ef          	jal	ra,80000530 <i2c_busy>
80002dce:	c511                	beqz	a0,80002dda <OLED_Init+0x1762>
80002dd0:	10025537          	lui	a0,0x10025
80002dd4:	f5cfd0ef          	jal	ra,80000530 <i2c_busy>
80002dd8:	f94d                	bnez	a0,80002d8a <OLED_Init+0x1712>
C:\Users\ming\Desktop\i2c\Debug/../application/oled.c:44
	  {*(gTxPacket)=0x00;}
80002dda:	72e9                	lui	t0,0xffffa
80002ddc:	40028313          	addi	t1,t0,1024 # ffffa400 <_sp+0x6ffea400>
C:\Users\ming\Desktop\i2c\Debug/../application/oled.c:47
	  i2c_send_data(I2C_ID, 0x3c);
80002de0:	03c00593          	li	a1,60
80002de4:	10025537          	lui	a0,0x10025
C:\Users\ming\Desktop\i2c\Debug/../application/oled.c:44
	  {*(gTxPacket)=0x00;}
80002de8:	00641023          	sh	t1,0(s0)
C:\Users\ming\Desktop\i2c\Debug/../application/oled.c:47
	  i2c_send_data(I2C_ID, 0x3c);
80002dec:	f1cfd0ef          	jal	ra,80000508 <i2c_send_data>
C:\Users\ming\Desktop\i2c\Debug/../application/oled.c:48
	  i2c_send_command(I2C_ID, I2C_WRITE);
80002df0:	45c1                	li	a1,16
80002df2:	10025537          	lui	a0,0x10025
80002df6:	f26fd0ef          	jal	ra,8000051c <i2c_send_command>
C:\Users\ming\Desktop\i2c\Debug/../application/oled.c:50
	      i2c_send_data(I2C_ID, *(gTxPacket+i));            //write i-th byte into fifo
80002dfa:	00044583          	lbu	a1,0(s0)
80002dfe:	10025537          	lui	a0,0x10025
80002e02:	f06fd0ef          	jal	ra,80000508 <i2c_send_data>
C:\Users\ming\Desktop\i2c\Debug/../application/oled.c:51
	      i2c_send_command(I2C_ID, I2C_START_WRITE); //send data on the i2c bus                 //wait for ack
80002e06:	09000593          	li	a1,144
80002e0a:	10025537          	lui	a0,0x10025
80002e0e:	f0efd0ef          	jal	ra,8000051c <i2c_send_command>
C:\Users\ming\Desktop\i2c\Debug/../application/oled.c:50
	      i2c_send_data(I2C_ID, *(gTxPacket+i));            //write i-th byte into fifo
80002e12:	00144583          	lbu	a1,1(s0)
80002e16:	10025537          	lui	a0,0x10025
80002e1a:	eeefd0ef          	jal	ra,80000508 <i2c_send_data>
C:\Users\ming\Desktop\i2c\Debug/../application/oled.c:51
	      i2c_send_command(I2C_ID, I2C_START_WRITE); //send data on the i2c bus                 //wait for ack
80002e1e:	09000593          	li	a1,144
80002e22:	10025537          	lui	a0,0x10025
80002e26:	ef6fd0ef          	jal	ra,8000051c <i2c_send_command>
C:\Users\ming\Desktop\i2c\Debug/../application/oled.c:53
	  while(i2c_busy(I2C_ID));
80002e2a:	10025537          	lui	a0,0x10025
80002e2e:	f02fd0ef          	jal	ra,80000530 <i2c_busy>
80002e32:	c521                	beqz	a0,80002e7a <OLED_Init+0x1802>
80002e34:	10025537          	lui	a0,0x10025
80002e38:	ef8fd0ef          	jal	ra,80000530 <i2c_busy>
80002e3c:	cd1d                	beqz	a0,80002e7a <OLED_Init+0x1802>
80002e3e:	10025537          	lui	a0,0x10025
80002e42:	eeefd0ef          	jal	ra,80000530 <i2c_busy>
80002e46:	c915                	beqz	a0,80002e7a <OLED_Init+0x1802>
80002e48:	10025537          	lui	a0,0x10025
80002e4c:	ee4fd0ef          	jal	ra,80000530 <i2c_busy>
80002e50:	c50d                	beqz	a0,80002e7a <OLED_Init+0x1802>
80002e52:	10025537          	lui	a0,0x10025
80002e56:	edafd0ef          	jal	ra,80000530 <i2c_busy>
80002e5a:	c105                	beqz	a0,80002e7a <OLED_Init+0x1802>
80002e5c:	10025537          	lui	a0,0x10025
80002e60:	ed0fd0ef          	jal	ra,80000530 <i2c_busy>
80002e64:	c919                	beqz	a0,80002e7a <OLED_Init+0x1802>
80002e66:	10025537          	lui	a0,0x10025
80002e6a:	ec6fd0ef          	jal	ra,80000530 <i2c_busy>
80002e6e:	c511                	beqz	a0,80002e7a <OLED_Init+0x1802>
80002e70:	10025537          	lui	a0,0x10025
80002e74:	ebcfd0ef          	jal	ra,80000530 <i2c_busy>
80002e78:	f94d                	bnez	a0,80002e2a <OLED_Init+0x17b2>
C:\Users\ming\Desktop\i2c\Debug/../application/oled.c:65
  while(i2c_busy(I2C_ID));
80002e7a:	10025537          	lui	a0,0x10025
80002e7e:	eb2fd0ef          	jal	ra,80000530 <i2c_busy>
80002e82:	c521                	beqz	a0,80002eca <OLED_Init+0x1852>
80002e84:	10025537          	lui	a0,0x10025
80002e88:	ea8fd0ef          	jal	ra,80000530 <i2c_busy>
80002e8c:	cd1d                	beqz	a0,80002eca <OLED_Init+0x1852>
80002e8e:	10025537          	lui	a0,0x10025
80002e92:	e9efd0ef          	jal	ra,80000530 <i2c_busy>
80002e96:	c915                	beqz	a0,80002eca <OLED_Init+0x1852>
80002e98:	10025537          	lui	a0,0x10025
80002e9c:	e94fd0ef          	jal	ra,80000530 <i2c_busy>
80002ea0:	c50d                	beqz	a0,80002eca <OLED_Init+0x1852>
80002ea2:	10025537          	lui	a0,0x10025
80002ea6:	e8afd0ef          	jal	ra,80000530 <i2c_busy>
80002eaa:	c105                	beqz	a0,80002eca <OLED_Init+0x1852>
80002eac:	10025537          	lui	a0,0x10025
80002eb0:	e80fd0ef          	jal	ra,80000530 <i2c_busy>
80002eb4:	c919                	beqz	a0,80002eca <OLED_Init+0x1852>
80002eb6:	10025537          	lui	a0,0x10025
80002eba:	e76fd0ef          	jal	ra,80000530 <i2c_busy>
80002ebe:	c511                	beqz	a0,80002eca <OLED_Init+0x1852>
80002ec0:	10025537          	lui	a0,0x10025
80002ec4:	e6cfd0ef          	jal	ra,80000530 <i2c_busy>
80002ec8:	f94d                	bnez	a0,80002e7a <OLED_Init+0x1802>
C:\Users\ming\Desktop\i2c\Debug/../application/oled.c:44
	  {*(gTxPacket)=0x00;}
80002eca:	73e9                	lui	t2,0xffffa
80002ecc:	60038493          	addi	s1,t2,1536 # ffffa600 <_sp+0x6ffea600>
C:\Users\ming\Desktop\i2c\Debug/../application/oled.c:47
	  i2c_send_data(I2C_ID, 0x3c);
80002ed0:	03c00593          	li	a1,60
80002ed4:	10025537          	lui	a0,0x10025
C:\Users\ming\Desktop\i2c\Debug/../application/oled.c:44
	  {*(gTxPacket)=0x00;}
80002ed8:	00941023          	sh	s1,0(s0)
C:\Users\ming\Desktop\i2c\Debug/../application/oled.c:47
	  i2c_send_data(I2C_ID, 0x3c);
80002edc:	e2cfd0ef          	jal	ra,80000508 <i2c_send_data>
C:\Users\ming\Desktop\i2c\Debug/../application/oled.c:48
	  i2c_send_command(I2C_ID, I2C_WRITE);
80002ee0:	45c1                	li	a1,16
80002ee2:	10025537          	lui	a0,0x10025
80002ee6:	e36fd0ef          	jal	ra,8000051c <i2c_send_command>
C:\Users\ming\Desktop\i2c\Debug/../application/oled.c:50
	      i2c_send_data(I2C_ID, *(gTxPacket+i));            //write i-th byte into fifo
80002eea:	00044583          	lbu	a1,0(s0)
80002eee:	10025537          	lui	a0,0x10025
80002ef2:	e16fd0ef          	jal	ra,80000508 <i2c_send_data>
C:\Users\ming\Desktop\i2c\Debug/../application/oled.c:51
	      i2c_send_command(I2C_ID, I2C_START_WRITE); //send data on the i2c bus                 //wait for ack
80002ef6:	09000593          	li	a1,144
80002efa:	10025537          	lui	a0,0x10025
80002efe:	e1efd0ef          	jal	ra,8000051c <i2c_send_command>
C:\Users\ming\Desktop\i2c\Debug/../application/oled.c:50
	      i2c_send_data(I2C_ID, *(gTxPacket+i));            //write i-th byte into fifo
80002f02:	00144583          	lbu	a1,1(s0)
80002f06:	10025537          	lui	a0,0x10025
80002f0a:	dfefd0ef          	jal	ra,80000508 <i2c_send_data>
C:\Users\ming\Desktop\i2c\Debug/../application/oled.c:51
	      i2c_send_command(I2C_ID, I2C_START_WRITE); //send data on the i2c bus                 //wait for ack
80002f0e:	09000593          	li	a1,144
80002f12:	10025537          	lui	a0,0x10025
80002f16:	e06fd0ef          	jal	ra,8000051c <i2c_send_command>
C:\Users\ming\Desktop\i2c\Debug/../application/oled.c:53
	  while(i2c_busy(I2C_ID));
80002f1a:	10025537          	lui	a0,0x10025
80002f1e:	e12fd0ef          	jal	ra,80000530 <i2c_busy>
80002f22:	c521                	beqz	a0,80002f6a <OLED_Init+0x18f2>
80002f24:	10025537          	lui	a0,0x10025
80002f28:	e08fd0ef          	jal	ra,80000530 <i2c_busy>
80002f2c:	cd1d                	beqz	a0,80002f6a <OLED_Init+0x18f2>
80002f2e:	10025537          	lui	a0,0x10025
80002f32:	dfefd0ef          	jal	ra,80000530 <i2c_busy>
80002f36:	c915                	beqz	a0,80002f6a <OLED_Init+0x18f2>
80002f38:	10025537          	lui	a0,0x10025
80002f3c:	df4fd0ef          	jal	ra,80000530 <i2c_busy>
80002f40:	c50d                	beqz	a0,80002f6a <OLED_Init+0x18f2>
80002f42:	10025537          	lui	a0,0x10025
80002f46:	deafd0ef          	jal	ra,80000530 <i2c_busy>
80002f4a:	c105                	beqz	a0,80002f6a <OLED_Init+0x18f2>
80002f4c:	10025537          	lui	a0,0x10025
80002f50:	de0fd0ef          	jal	ra,80000530 <i2c_busy>
80002f54:	c919                	beqz	a0,80002f6a <OLED_Init+0x18f2>
80002f56:	10025537          	lui	a0,0x10025
80002f5a:	dd6fd0ef          	jal	ra,80000530 <i2c_busy>
80002f5e:	c511                	beqz	a0,80002f6a <OLED_Init+0x18f2>
80002f60:	10025537          	lui	a0,0x10025
80002f64:	dccfd0ef          	jal	ra,80000530 <i2c_busy>
80002f68:	f94d                	bnez	a0,80002f1a <OLED_Init+0x18a2>
C:\Users\ming\Desktop\i2c\Debug/../application/oled.c:65
  while(i2c_busy(I2C_ID));
80002f6a:	10025537          	lui	a0,0x10025
80002f6e:	dc2fd0ef          	jal	ra,80000530 <i2c_busy>
80002f72:	c521                	beqz	a0,80002fba <OLED_Init+0x1942>
80002f74:	10025537          	lui	a0,0x10025
80002f78:	db8fd0ef          	jal	ra,80000530 <i2c_busy>
80002f7c:	cd1d                	beqz	a0,80002fba <OLED_Init+0x1942>
80002f7e:	10025537          	lui	a0,0x10025
80002f82:	daefd0ef          	jal	ra,80000530 <i2c_busy>
80002f86:	c915                	beqz	a0,80002fba <OLED_Init+0x1942>
80002f88:	10025537          	lui	a0,0x10025
80002f8c:	da4fd0ef          	jal	ra,80000530 <i2c_busy>
80002f90:	c50d                	beqz	a0,80002fba <OLED_Init+0x1942>
80002f92:	10025537          	lui	a0,0x10025
80002f96:	d9afd0ef          	jal	ra,80000530 <i2c_busy>
80002f9a:	c105                	beqz	a0,80002fba <OLED_Init+0x1942>
80002f9c:	10025537          	lui	a0,0x10025
80002fa0:	d90fd0ef          	jal	ra,80000530 <i2c_busy>
80002fa4:	c919                	beqz	a0,80002fba <OLED_Init+0x1942>
80002fa6:	10025537          	lui	a0,0x10025
80002faa:	d86fd0ef          	jal	ra,80000530 <i2c_busy>
80002fae:	c511                	beqz	a0,80002fba <OLED_Init+0x1942>
80002fb0:	10025537          	lui	a0,0x10025
80002fb4:	d7cfd0ef          	jal	ra,80000530 <i2c_busy>
80002fb8:	f94d                	bnez	a0,80002f6a <OLED_Init+0x18f2>
80002fba:	0b000913          	li	s2,176
C:\Users\ming\Desktop\i2c\Debug/../application/oled.c:44
	  {*(gTxPacket)=0x00;}
80002fbe:	6a85                	lui	s5,0x1
C:\Users\ming\Desktop\i2c\Debug/../application/oled.c:41
	      {*(gTxPacket)=0x40;}
80002fc0:	04000993          	li	s3,64
OLED_Clear():
C:\Users\ming\Desktop\i2c\Debug/../application/oled.c:125
  for (i = 0; i < 8 ; i++)
80002fc4:	0b800a13          	li	s4,184
OLED_WR_Byte():
C:\Users\ming\Desktop\i2c\Debug/../application/oled.c:47
	  i2c_send_data(I2C_ID, 0x3c);
80002fc8:	03c00593          	li	a1,60
80002fcc:	10025537          	lui	a0,0x10025
C:\Users\ming\Desktop\i2c\Debug/../application/oled.c:44
	  {*(gTxPacket)=0x00;}
80002fd0:	86018223          	sb	zero,-1948(gp) # 90000234 <gTxPacket>
C:\Users\ming\Desktop\i2c\Debug/../application/oled.c:46
	  *(gTxPacket+1)=dat;
80002fd4:	012400a3          	sb	s2,1(s0)
C:\Users\ming\Desktop\i2c\Debug/../application/oled.c:47
	  i2c_send_data(I2C_ID, 0x3c);
80002fd8:	d30fd0ef          	jal	ra,80000508 <i2c_send_data>
C:\Users\ming\Desktop\i2c\Debug/../application/oled.c:48
	  i2c_send_command(I2C_ID, I2C_WRITE);
80002fdc:	45c1                	li	a1,16
80002fde:	10025537          	lui	a0,0x10025
80002fe2:	d3afd0ef          	jal	ra,8000051c <i2c_send_command>
C:\Users\ming\Desktop\i2c\Debug/../application/oled.c:50
	      i2c_send_data(I2C_ID, *(gTxPacket+i));            //write i-th byte into fifo
80002fe6:	00044583          	lbu	a1,0(s0)
80002fea:	10025537          	lui	a0,0x10025
80002fee:	d1afd0ef          	jal	ra,80000508 <i2c_send_data>
C:\Users\ming\Desktop\i2c\Debug/../application/oled.c:51
	      i2c_send_command(I2C_ID, I2C_START_WRITE); //send data on the i2c bus                 //wait for ack
80002ff2:	09000593          	li	a1,144
80002ff6:	10025537          	lui	a0,0x10025
80002ffa:	d22fd0ef          	jal	ra,8000051c <i2c_send_command>
C:\Users\ming\Desktop\i2c\Debug/../application/oled.c:50
	      i2c_send_data(I2C_ID, *(gTxPacket+i));            //write i-th byte into fifo
80002ffe:	00144583          	lbu	a1,1(s0)
80003002:	10025537          	lui	a0,0x10025
80003006:	d02fd0ef          	jal	ra,80000508 <i2c_send_data>
C:\Users\ming\Desktop\i2c\Debug/../application/oled.c:51
	      i2c_send_command(I2C_ID, I2C_START_WRITE); //send data on the i2c bus                 //wait for ack
8000300a:	09000593          	li	a1,144
8000300e:	10025537          	lui	a0,0x10025
80003012:	d0afd0ef          	jal	ra,8000051c <i2c_send_command>
C:\Users\ming\Desktop\i2c\Debug/../application/oled.c:53
	  while(i2c_busy(I2C_ID));
80003016:	10025537          	lui	a0,0x10025
8000301a:	d16fd0ef          	jal	ra,80000530 <i2c_busy>
8000301e:	c521                	beqz	a0,80003066 <OLED_Init+0x19ee>
80003020:	10025537          	lui	a0,0x10025
80003024:	d0cfd0ef          	jal	ra,80000530 <i2c_busy>
80003028:	cd1d                	beqz	a0,80003066 <OLED_Init+0x19ee>
8000302a:	10025537          	lui	a0,0x10025
8000302e:	d02fd0ef          	jal	ra,80000530 <i2c_busy>
80003032:	c915                	beqz	a0,80003066 <OLED_Init+0x19ee>
80003034:	10025537          	lui	a0,0x10025
80003038:	cf8fd0ef          	jal	ra,80000530 <i2c_busy>
8000303c:	c50d                	beqz	a0,80003066 <OLED_Init+0x19ee>
8000303e:	10025537          	lui	a0,0x10025
80003042:	ceefd0ef          	jal	ra,80000530 <i2c_busy>
80003046:	c105                	beqz	a0,80003066 <OLED_Init+0x19ee>
80003048:	10025537          	lui	a0,0x10025
8000304c:	ce4fd0ef          	jal	ra,80000530 <i2c_busy>
80003050:	c919                	beqz	a0,80003066 <OLED_Init+0x19ee>
80003052:	10025537          	lui	a0,0x10025
80003056:	cdafd0ef          	jal	ra,80000530 <i2c_busy>
8000305a:	c511                	beqz	a0,80003066 <OLED_Init+0x19ee>
8000305c:	10025537          	lui	a0,0x10025
80003060:	cd0fd0ef          	jal	ra,80000530 <i2c_busy>
80003064:	f94d                	bnez	a0,80003016 <OLED_Init+0x199e>
C:\Users\ming\Desktop\i2c\Debug/../application/oled.c:65
  while(i2c_busy(I2C_ID));
80003066:	10025537          	lui	a0,0x10025
8000306a:	cc6fd0ef          	jal	ra,80000530 <i2c_busy>
8000306e:	c521                	beqz	a0,800030b6 <OLED_Init+0x1a3e>
80003070:	10025537          	lui	a0,0x10025
80003074:	cbcfd0ef          	jal	ra,80000530 <i2c_busy>
80003078:	cd1d                	beqz	a0,800030b6 <OLED_Init+0x1a3e>
8000307a:	10025537          	lui	a0,0x10025
8000307e:	cb2fd0ef          	jal	ra,80000530 <i2c_busy>
80003082:	c915                	beqz	a0,800030b6 <OLED_Init+0x1a3e>
80003084:	10025537          	lui	a0,0x10025
80003088:	ca8fd0ef          	jal	ra,80000530 <i2c_busy>
8000308c:	c50d                	beqz	a0,800030b6 <OLED_Init+0x1a3e>
8000308e:	10025537          	lui	a0,0x10025
80003092:	c9efd0ef          	jal	ra,80000530 <i2c_busy>
80003096:	c105                	beqz	a0,800030b6 <OLED_Init+0x1a3e>
80003098:	10025537          	lui	a0,0x10025
8000309c:	c94fd0ef          	jal	ra,80000530 <i2c_busy>
800030a0:	c919                	beqz	a0,800030b6 <OLED_Init+0x1a3e>
800030a2:	10025537          	lui	a0,0x10025
800030a6:	c8afd0ef          	jal	ra,80000530 <i2c_busy>
800030aa:	c511                	beqz	a0,800030b6 <OLED_Init+0x1a3e>
800030ac:	10025537          	lui	a0,0x10025
800030b0:	c80fd0ef          	jal	ra,80000530 <i2c_busy>
800030b4:	f94d                	bnez	a0,80003066 <OLED_Init+0x19ee>
C:\Users\ming\Desktop\i2c\Debug/../application/oled.c:47
	  i2c_send_data(I2C_ID, 0x3c);
800030b6:	03c00593          	li	a1,60
800030ba:	10025537          	lui	a0,0x10025
C:\Users\ming\Desktop\i2c\Debug/../application/oled.c:44
	  {*(gTxPacket)=0x00;}
800030be:	86019223          	sh	zero,-1948(gp) # 90000234 <gTxPacket>
C:\Users\ming\Desktop\i2c\Debug/../application/oled.c:47
	  i2c_send_data(I2C_ID, 0x3c);
800030c2:	c46fd0ef          	jal	ra,80000508 <i2c_send_data>
C:\Users\ming\Desktop\i2c\Debug/../application/oled.c:48
	  i2c_send_command(I2C_ID, I2C_WRITE);
800030c6:	45c1                	li	a1,16
800030c8:	10025537          	lui	a0,0x10025
800030cc:	c50fd0ef          	jal	ra,8000051c <i2c_send_command>
C:\Users\ming\Desktop\i2c\Debug/../application/oled.c:50
	      i2c_send_data(I2C_ID, *(gTxPacket+i));            //write i-th byte into fifo
800030d0:	00044583          	lbu	a1,0(s0)
800030d4:	10025537          	lui	a0,0x10025
800030d8:	c30fd0ef          	jal	ra,80000508 <i2c_send_data>
C:\Users\ming\Desktop\i2c\Debug/../application/oled.c:51
	      i2c_send_command(I2C_ID, I2C_START_WRITE); //send data on the i2c bus                 //wait for ack
800030dc:	09000593          	li	a1,144
800030e0:	10025537          	lui	a0,0x10025
800030e4:	c38fd0ef          	jal	ra,8000051c <i2c_send_command>
C:\Users\ming\Desktop\i2c\Debug/../application/oled.c:50
	      i2c_send_data(I2C_ID, *(gTxPacket+i));            //write i-th byte into fifo
800030e8:	00144583          	lbu	a1,1(s0)
800030ec:	10025537          	lui	a0,0x10025
800030f0:	c18fd0ef          	jal	ra,80000508 <i2c_send_data>
C:\Users\ming\Desktop\i2c\Debug/../application/oled.c:51
	      i2c_send_command(I2C_ID, I2C_START_WRITE); //send data on the i2c bus                 //wait for ack
800030f4:	09000593          	li	a1,144
800030f8:	10025537          	lui	a0,0x10025
800030fc:	c20fd0ef          	jal	ra,8000051c <i2c_send_command>
C:\Users\ming\Desktop\i2c\Debug/../application/oled.c:53
	  while(i2c_busy(I2C_ID));
80003100:	10025537          	lui	a0,0x10025
80003104:	c2cfd0ef          	jal	ra,80000530 <i2c_busy>
80003108:	c521                	beqz	a0,80003150 <OLED_Init+0x1ad8>
8000310a:	10025537          	lui	a0,0x10025
8000310e:	c22fd0ef          	jal	ra,80000530 <i2c_busy>
80003112:	cd1d                	beqz	a0,80003150 <OLED_Init+0x1ad8>
80003114:	10025537          	lui	a0,0x10025
80003118:	c18fd0ef          	jal	ra,80000530 <i2c_busy>
8000311c:	c915                	beqz	a0,80003150 <OLED_Init+0x1ad8>
8000311e:	10025537          	lui	a0,0x10025
80003122:	c0efd0ef          	jal	ra,80000530 <i2c_busy>
80003126:	c50d                	beqz	a0,80003150 <OLED_Init+0x1ad8>
80003128:	10025537          	lui	a0,0x10025
8000312c:	c04fd0ef          	jal	ra,80000530 <i2c_busy>
80003130:	c105                	beqz	a0,80003150 <OLED_Init+0x1ad8>
80003132:	10025537          	lui	a0,0x10025
80003136:	bfafd0ef          	jal	ra,80000530 <i2c_busy>
8000313a:	c919                	beqz	a0,80003150 <OLED_Init+0x1ad8>
8000313c:	10025537          	lui	a0,0x10025
80003140:	bf0fd0ef          	jal	ra,80000530 <i2c_busy>
80003144:	c511                	beqz	a0,80003150 <OLED_Init+0x1ad8>
80003146:	10025537          	lui	a0,0x10025
8000314a:	be6fd0ef          	jal	ra,80000530 <i2c_busy>
8000314e:	f94d                	bnez	a0,80003100 <OLED_Init+0x1a88>
C:\Users\ming\Desktop\i2c\Debug/../application/oled.c:65
  while(i2c_busy(I2C_ID));
80003150:	10025537          	lui	a0,0x10025
80003154:	bdcfd0ef          	jal	ra,80000530 <i2c_busy>
80003158:	c521                	beqz	a0,800031a0 <OLED_Init+0x1b28>
8000315a:	10025537          	lui	a0,0x10025
8000315e:	bd2fd0ef          	jal	ra,80000530 <i2c_busy>
80003162:	cd1d                	beqz	a0,800031a0 <OLED_Init+0x1b28>
80003164:	10025537          	lui	a0,0x10025
80003168:	bc8fd0ef          	jal	ra,80000530 <i2c_busy>
8000316c:	c915                	beqz	a0,800031a0 <OLED_Init+0x1b28>
8000316e:	10025537          	lui	a0,0x10025
80003172:	bbefd0ef          	jal	ra,80000530 <i2c_busy>
80003176:	c50d                	beqz	a0,800031a0 <OLED_Init+0x1b28>
80003178:	10025537          	lui	a0,0x10025
8000317c:	bb4fd0ef          	jal	ra,80000530 <i2c_busy>
80003180:	c105                	beqz	a0,800031a0 <OLED_Init+0x1b28>
80003182:	10025537          	lui	a0,0x10025
80003186:	baafd0ef          	jal	ra,80000530 <i2c_busy>
8000318a:	c919                	beqz	a0,800031a0 <OLED_Init+0x1b28>
8000318c:	10025537          	lui	a0,0x10025
80003190:	ba0fd0ef          	jal	ra,80000530 <i2c_busy>
80003194:	c511                	beqz	a0,800031a0 <OLED_Init+0x1b28>
80003196:	10025537          	lui	a0,0x10025
8000319a:	b96fd0ef          	jal	ra,80000530 <i2c_busy>
8000319e:	f94d                	bnez	a0,80003150 <OLED_Init+0x1ad8>
C:\Users\ming\Desktop\i2c\Debug/../application/oled.c:47
	  i2c_send_data(I2C_ID, 0x3c);
800031a0:	03c00593          	li	a1,60
800031a4:	10025537          	lui	a0,0x10025
C:\Users\ming\Desktop\i2c\Debug/../application/oled.c:44
	  {*(gTxPacket)=0x00;}
800031a8:	01541023          	sh	s5,0(s0)
C:\Users\ming\Desktop\i2c\Debug/../application/oled.c:47
	  i2c_send_data(I2C_ID, 0x3c);
800031ac:	b5cfd0ef          	jal	ra,80000508 <i2c_send_data>
C:\Users\ming\Desktop\i2c\Debug/../application/oled.c:48
	  i2c_send_command(I2C_ID, I2C_WRITE);
800031b0:	45c1                	li	a1,16
800031b2:	10025537          	lui	a0,0x10025
800031b6:	b66fd0ef          	jal	ra,8000051c <i2c_send_command>
C:\Users\ming\Desktop\i2c\Debug/../application/oled.c:50
	      i2c_send_data(I2C_ID, *(gTxPacket+i));            //write i-th byte into fifo
800031ba:	00044583          	lbu	a1,0(s0)
800031be:	10025537          	lui	a0,0x10025
800031c2:	b46fd0ef          	jal	ra,80000508 <i2c_send_data>
C:\Users\ming\Desktop\i2c\Debug/../application/oled.c:51
	      i2c_send_command(I2C_ID, I2C_START_WRITE); //send data on the i2c bus                 //wait for ack
800031c6:	09000593          	li	a1,144
800031ca:	10025537          	lui	a0,0x10025
800031ce:	b4efd0ef          	jal	ra,8000051c <i2c_send_command>
C:\Users\ming\Desktop\i2c\Debug/../application/oled.c:50
	      i2c_send_data(I2C_ID, *(gTxPacket+i));            //write i-th byte into fifo
800031d2:	00144583          	lbu	a1,1(s0)
800031d6:	10025537          	lui	a0,0x10025
800031da:	b2efd0ef          	jal	ra,80000508 <i2c_send_data>
C:\Users\ming\Desktop\i2c\Debug/../application/oled.c:51
	      i2c_send_command(I2C_ID, I2C_START_WRITE); //send data on the i2c bus                 //wait for ack
800031de:	09000593          	li	a1,144
800031e2:	10025537          	lui	a0,0x10025
800031e6:	b36fd0ef          	jal	ra,8000051c <i2c_send_command>
C:\Users\ming\Desktop\i2c\Debug/../application/oled.c:53
	  while(i2c_busy(I2C_ID));
800031ea:	10025537          	lui	a0,0x10025
800031ee:	b42fd0ef          	jal	ra,80000530 <i2c_busy>
800031f2:	c521                	beqz	a0,8000323a <OLED_Init+0x1bc2>
800031f4:	10025537          	lui	a0,0x10025
800031f8:	b38fd0ef          	jal	ra,80000530 <i2c_busy>
800031fc:	cd1d                	beqz	a0,8000323a <OLED_Init+0x1bc2>
800031fe:	10025537          	lui	a0,0x10025
80003202:	b2efd0ef          	jal	ra,80000530 <i2c_busy>
80003206:	c915                	beqz	a0,8000323a <OLED_Init+0x1bc2>
80003208:	10025537          	lui	a0,0x10025
8000320c:	b24fd0ef          	jal	ra,80000530 <i2c_busy>
80003210:	c50d                	beqz	a0,8000323a <OLED_Init+0x1bc2>
80003212:	10025537          	lui	a0,0x10025
80003216:	b1afd0ef          	jal	ra,80000530 <i2c_busy>
8000321a:	c105                	beqz	a0,8000323a <OLED_Init+0x1bc2>
8000321c:	10025537          	lui	a0,0x10025
80003220:	b10fd0ef          	jal	ra,80000530 <i2c_busy>
80003224:	c919                	beqz	a0,8000323a <OLED_Init+0x1bc2>
80003226:	10025537          	lui	a0,0x10025
8000322a:	b06fd0ef          	jal	ra,80000530 <i2c_busy>
8000322e:	c511                	beqz	a0,8000323a <OLED_Init+0x1bc2>
80003230:	10025537          	lui	a0,0x10025
80003234:	afcfd0ef          	jal	ra,80000530 <i2c_busy>
80003238:	f94d                	bnez	a0,800031ea <OLED_Init+0x1b72>
C:\Users\ming\Desktop\i2c\Debug/../application/oled.c:65
  while(i2c_busy(I2C_ID));
8000323a:	10025537          	lui	a0,0x10025
8000323e:	af2fd0ef          	jal	ra,80000530 <i2c_busy>
80003242:	c521                	beqz	a0,8000328a <OLED_Init+0x1c12>
80003244:	10025537          	lui	a0,0x10025
80003248:	ae8fd0ef          	jal	ra,80000530 <i2c_busy>
8000324c:	cd1d                	beqz	a0,8000328a <OLED_Init+0x1c12>
8000324e:	10025537          	lui	a0,0x10025
80003252:	adefd0ef          	jal	ra,80000530 <i2c_busy>
80003256:	c915                	beqz	a0,8000328a <OLED_Init+0x1c12>
80003258:	10025537          	lui	a0,0x10025
8000325c:	ad4fd0ef          	jal	ra,80000530 <i2c_busy>
80003260:	c50d                	beqz	a0,8000328a <OLED_Init+0x1c12>
80003262:	10025537          	lui	a0,0x10025
80003266:	acafd0ef          	jal	ra,80000530 <i2c_busy>
8000326a:	c105                	beqz	a0,8000328a <OLED_Init+0x1c12>
8000326c:	10025537          	lui	a0,0x10025
80003270:	ac0fd0ef          	jal	ra,80000530 <i2c_busy>
80003274:	c919                	beqz	a0,8000328a <OLED_Init+0x1c12>
80003276:	10025537          	lui	a0,0x10025
8000327a:	ab6fd0ef          	jal	ra,80000530 <i2c_busy>
8000327e:	c511                	beqz	a0,8000328a <OLED_Init+0x1c12>
80003280:	10025537          	lui	a0,0x10025
80003284:	aacfd0ef          	jal	ra,80000530 <i2c_busy>
80003288:	f94d                	bnez	a0,8000323a <OLED_Init+0x1bc2>
8000328a:	08000493          	li	s1,128
8000328e:	0001                	nop
C:\Users\ming\Desktop\i2c\Debug/../application/oled.c:47
	  i2c_send_data(I2C_ID, 0x3c);
80003290:	03c00593          	li	a1,60
80003294:	10025537          	lui	a0,0x10025
C:\Users\ming\Desktop\i2c\Debug/../application/oled.c:41
	      {*(gTxPacket)=0x40;}
80003298:	01341023          	sh	s3,0(s0)
C:\Users\ming\Desktop\i2c\Debug/../application/oled.c:47
	  i2c_send_data(I2C_ID, 0x3c);
8000329c:	a6cfd0ef          	jal	ra,80000508 <i2c_send_data>
C:\Users\ming\Desktop\i2c\Debug/../application/oled.c:48
	  i2c_send_command(I2C_ID, I2C_WRITE);
800032a0:	45c1                	li	a1,16
800032a2:	10025537          	lui	a0,0x10025
800032a6:	a76fd0ef          	jal	ra,8000051c <i2c_send_command>
C:\Users\ming\Desktop\i2c\Debug/../application/oled.c:50
	      i2c_send_data(I2C_ID, *(gTxPacket+i));            //write i-th byte into fifo
800032aa:	00044583          	lbu	a1,0(s0)
800032ae:	10025537          	lui	a0,0x10025
800032b2:	a56fd0ef          	jal	ra,80000508 <i2c_send_data>
C:\Users\ming\Desktop\i2c\Debug/../application/oled.c:51
	      i2c_send_command(I2C_ID, I2C_START_WRITE); //send data on the i2c bus                 //wait for ack
800032b6:	09000593          	li	a1,144
800032ba:	10025537          	lui	a0,0x10025
800032be:	a5efd0ef          	jal	ra,8000051c <i2c_send_command>
C:\Users\ming\Desktop\i2c\Debug/../application/oled.c:50
	      i2c_send_data(I2C_ID, *(gTxPacket+i));            //write i-th byte into fifo
800032c2:	00144583          	lbu	a1,1(s0)
800032c6:	10025537          	lui	a0,0x10025
800032ca:	a3efd0ef          	jal	ra,80000508 <i2c_send_data>
C:\Users\ming\Desktop\i2c\Debug/../application/oled.c:51
	      i2c_send_command(I2C_ID, I2C_START_WRITE); //send data on the i2c bus                 //wait for ack
800032ce:	09000593          	li	a1,144
800032d2:	10025537          	lui	a0,0x10025
800032d6:	a46fd0ef          	jal	ra,8000051c <i2c_send_command>
C:\Users\ming\Desktop\i2c\Debug/../application/oled.c:53
	  while(i2c_busy(I2C_ID));
800032da:	10025537          	lui	a0,0x10025
800032de:	a52fd0ef          	jal	ra,80000530 <i2c_busy>
800032e2:	c521                	beqz	a0,8000332a <OLED_Init+0x1cb2>
800032e4:	10025537          	lui	a0,0x10025
800032e8:	a48fd0ef          	jal	ra,80000530 <i2c_busy>
800032ec:	cd1d                	beqz	a0,8000332a <OLED_Init+0x1cb2>
800032ee:	10025537          	lui	a0,0x10025
800032f2:	a3efd0ef          	jal	ra,80000530 <i2c_busy>
800032f6:	c915                	beqz	a0,8000332a <OLED_Init+0x1cb2>
800032f8:	10025537          	lui	a0,0x10025
800032fc:	a34fd0ef          	jal	ra,80000530 <i2c_busy>
80003300:	c50d                	beqz	a0,8000332a <OLED_Init+0x1cb2>
80003302:	10025537          	lui	a0,0x10025
80003306:	a2afd0ef          	jal	ra,80000530 <i2c_busy>
8000330a:	c105                	beqz	a0,8000332a <OLED_Init+0x1cb2>
8000330c:	10025537          	lui	a0,0x10025
80003310:	a20fd0ef          	jal	ra,80000530 <i2c_busy>
80003314:	c919                	beqz	a0,8000332a <OLED_Init+0x1cb2>
80003316:	10025537          	lui	a0,0x10025
8000331a:	a16fd0ef          	jal	ra,80000530 <i2c_busy>
8000331e:	c511                	beqz	a0,8000332a <OLED_Init+0x1cb2>
80003320:	10025537          	lui	a0,0x10025
80003324:	a0cfd0ef          	jal	ra,80000530 <i2c_busy>
80003328:	f94d                	bnez	a0,800032da <OLED_Init+0x1c62>
C:\Users\ming\Desktop\i2c\Debug/../application/oled.c:65
  while(i2c_busy(I2C_ID));
8000332a:	10025537          	lui	a0,0x10025
8000332e:	a02fd0ef          	jal	ra,80000530 <i2c_busy>
80003332:	c521                	beqz	a0,8000337a <OLED_Init+0x1d02>
80003334:	10025537          	lui	a0,0x10025
80003338:	9f8fd0ef          	jal	ra,80000530 <i2c_busy>
8000333c:	cd1d                	beqz	a0,8000337a <OLED_Init+0x1d02>
8000333e:	10025537          	lui	a0,0x10025
80003342:	9eefd0ef          	jal	ra,80000530 <i2c_busy>
80003346:	c915                	beqz	a0,8000337a <OLED_Init+0x1d02>
80003348:	10025537          	lui	a0,0x10025
8000334c:	9e4fd0ef          	jal	ra,80000530 <i2c_busy>
80003350:	c50d                	beqz	a0,8000337a <OLED_Init+0x1d02>
80003352:	10025537          	lui	a0,0x10025
80003356:	9dafd0ef          	jal	ra,80000530 <i2c_busy>
8000335a:	c105                	beqz	a0,8000337a <OLED_Init+0x1d02>
8000335c:	10025537          	lui	a0,0x10025
80003360:	9d0fd0ef          	jal	ra,80000530 <i2c_busy>
80003364:	c919                	beqz	a0,8000337a <OLED_Init+0x1d02>
80003366:	10025537          	lui	a0,0x10025
8000336a:	9c6fd0ef          	jal	ra,80000530 <i2c_busy>
8000336e:	c511                	beqz	a0,8000337a <OLED_Init+0x1d02>
80003370:	10025537          	lui	a0,0x10025
80003374:	9bcfd0ef          	jal	ra,80000530 <i2c_busy>
80003378:	f94d                	bnez	a0,8000332a <OLED_Init+0x1cb2>
OLED_Clear():
C:\Users\ming\Desktop\i2c\Debug/../application/oled.c:130
    for (n = 0; n < 128; n++)
8000337a:	fff48513          	addi	a0,s1,-1
8000337e:	0ff57493          	zext.b	s1,a0
80003382:	f00497e3          	bnez	s1,80003290 <OLED_Init+0x1c18>
C:\Users\ming\Desktop\i2c\Debug/../application/oled.c:125
  for (i = 0; i < 8 ; i++)
80003386:	00190593          	addi	a1,s2,1
8000338a:	0ff5f913          	zext.b	s2,a1
8000338e:	c3491de3          	bne	s2,s4,80002fc8 <OLED_Init+0x1950>
OLED_WR_Byte():
C:\Users\ming\Desktop\i2c\Debug/../application/oled.c:44
	  {*(gTxPacket)=0x00;}
80003392:	766d                	lui	a2,0xffffb
80003394:	f0060693          	addi	a3,a2,-256 # ffffaf00 <_sp+0x6ffeaf00>
C:\Users\ming\Desktop\i2c\Debug/../application/oled.c:47
	  i2c_send_data(I2C_ID, 0x3c);
80003398:	03c00593          	li	a1,60
8000339c:	10025537          	lui	a0,0x10025
C:\Users\ming\Desktop\i2c\Debug/../application/oled.c:44
	  {*(gTxPacket)=0x00;}
800033a0:	00d41023          	sh	a3,0(s0)
C:\Users\ming\Desktop\i2c\Debug/../application/oled.c:47
	  i2c_send_data(I2C_ID, 0x3c);
800033a4:	964fd0ef          	jal	ra,80000508 <i2c_send_data>
C:\Users\ming\Desktop\i2c\Debug/../application/oled.c:48
	  i2c_send_command(I2C_ID, I2C_WRITE);
800033a8:	45c1                	li	a1,16
800033aa:	10025537          	lui	a0,0x10025
800033ae:	96efd0ef          	jal	ra,8000051c <i2c_send_command>
C:\Users\ming\Desktop\i2c\Debug/../application/oled.c:50
	      i2c_send_data(I2C_ID, *(gTxPacket+i));            //write i-th byte into fifo
800033b2:	00044583          	lbu	a1,0(s0)
800033b6:	10025537          	lui	a0,0x10025
800033ba:	94efd0ef          	jal	ra,80000508 <i2c_send_data>
C:\Users\ming\Desktop\i2c\Debug/../application/oled.c:51
	      i2c_send_command(I2C_ID, I2C_START_WRITE); //send data on the i2c bus                 //wait for ack
800033be:	09000593          	li	a1,144
800033c2:	10025537          	lui	a0,0x10025
800033c6:	956fd0ef          	jal	ra,8000051c <i2c_send_command>
C:\Users\ming\Desktop\i2c\Debug/../application/oled.c:50
	      i2c_send_data(I2C_ID, *(gTxPacket+i));            //write i-th byte into fifo
800033ca:	00144583          	lbu	a1,1(s0)
800033ce:	10025537          	lui	a0,0x10025
800033d2:	936fd0ef          	jal	ra,80000508 <i2c_send_data>
C:\Users\ming\Desktop\i2c\Debug/../application/oled.c:51
	      i2c_send_command(I2C_ID, I2C_START_WRITE); //send data on the i2c bus                 //wait for ack
800033d6:	09000593          	li	a1,144
800033da:	10025537          	lui	a0,0x10025
800033de:	93efd0ef          	jal	ra,8000051c <i2c_send_command>
C:\Users\ming\Desktop\i2c\Debug/../application/oled.c:53
	  while(i2c_busy(I2C_ID));
800033e2:	10025537          	lui	a0,0x10025
800033e6:	94afd0ef          	jal	ra,80000530 <i2c_busy>
800033ea:	c521                	beqz	a0,80003432 <OLED_Init+0x1dba>
800033ec:	10025537          	lui	a0,0x10025
800033f0:	940fd0ef          	jal	ra,80000530 <i2c_busy>
800033f4:	cd1d                	beqz	a0,80003432 <OLED_Init+0x1dba>
800033f6:	10025537          	lui	a0,0x10025
800033fa:	936fd0ef          	jal	ra,80000530 <i2c_busy>
800033fe:	c915                	beqz	a0,80003432 <OLED_Init+0x1dba>
80003400:	10025537          	lui	a0,0x10025
80003404:	92cfd0ef          	jal	ra,80000530 <i2c_busy>
80003408:	c50d                	beqz	a0,80003432 <OLED_Init+0x1dba>
8000340a:	10025537          	lui	a0,0x10025
8000340e:	922fd0ef          	jal	ra,80000530 <i2c_busy>
80003412:	c105                	beqz	a0,80003432 <OLED_Init+0x1dba>
80003414:	10025537          	lui	a0,0x10025
80003418:	918fd0ef          	jal	ra,80000530 <i2c_busy>
8000341c:	c919                	beqz	a0,80003432 <OLED_Init+0x1dba>
8000341e:	10025537          	lui	a0,0x10025
80003422:	90efd0ef          	jal	ra,80000530 <i2c_busy>
80003426:	c511                	beqz	a0,80003432 <OLED_Init+0x1dba>
80003428:	10025537          	lui	a0,0x10025
8000342c:	904fd0ef          	jal	ra,80000530 <i2c_busy>
80003430:	f94d                	bnez	a0,800033e2 <OLED_Init+0x1d6a>
C:\Users\ming\Desktop\i2c\Debug/../application/oled.c:65
  while(i2c_busy(I2C_ID));
80003432:	10025537          	lui	a0,0x10025
80003436:	8fafd0ef          	jal	ra,80000530 <i2c_busy>
8000343a:	c521                	beqz	a0,80003482 <OLED_Init+0x1e0a>
8000343c:	10025537          	lui	a0,0x10025
80003440:	8f0fd0ef          	jal	ra,80000530 <i2c_busy>
80003444:	cd1d                	beqz	a0,80003482 <OLED_Init+0x1e0a>
80003446:	10025537          	lui	a0,0x10025
8000344a:	8e6fd0ef          	jal	ra,80000530 <i2c_busy>
8000344e:	c915                	beqz	a0,80003482 <OLED_Init+0x1e0a>
80003450:	10025537          	lui	a0,0x10025
80003454:	8dcfd0ef          	jal	ra,80000530 <i2c_busy>
80003458:	c50d                	beqz	a0,80003482 <OLED_Init+0x1e0a>
8000345a:	10025537          	lui	a0,0x10025
8000345e:	8d2fd0ef          	jal	ra,80000530 <i2c_busy>
80003462:	c105                	beqz	a0,80003482 <OLED_Init+0x1e0a>
80003464:	10025537          	lui	a0,0x10025
80003468:	8c8fd0ef          	jal	ra,80000530 <i2c_busy>
8000346c:	c919                	beqz	a0,80003482 <OLED_Init+0x1e0a>
8000346e:	10025537          	lui	a0,0x10025
80003472:	8befd0ef          	jal	ra,80000530 <i2c_busy>
80003476:	c511                	beqz	a0,80003482 <OLED_Init+0x1e0a>
80003478:	10025537          	lui	a0,0x10025
8000347c:	8b4fd0ef          	jal	ra,80000530 <i2c_busy>
80003480:	f94d                	bnez	a0,80003432 <OLED_Init+0x1dba>
C:\Users\ming\Desktop\i2c\Debug/../application/oled.c:44
	  {*(gTxPacket)=0x00;}
80003482:	7769                	lui	a4,0xffffa
80003484:	60070813          	addi	a6,a4,1536 # ffffa600 <_sp+0x6ffea600>
C:\Users\ming\Desktop\i2c\Debug/../application/oled.c:47
	  i2c_send_data(I2C_ID, 0x3c);
80003488:	03c00593          	li	a1,60
8000348c:	10025537          	lui	a0,0x10025
C:\Users\ming\Desktop\i2c\Debug/../application/oled.c:44
	  {*(gTxPacket)=0x00;}
80003490:	01041023          	sh	a6,0(s0)
C:\Users\ming\Desktop\i2c\Debug/../application/oled.c:47
	  i2c_send_data(I2C_ID, 0x3c);
80003494:	874fd0ef          	jal	ra,80000508 <i2c_send_data>
C:\Users\ming\Desktop\i2c\Debug/../application/oled.c:48
	  i2c_send_command(I2C_ID, I2C_WRITE);
80003498:	45c1                	li	a1,16
8000349a:	10025537          	lui	a0,0x10025
8000349e:	87efd0ef          	jal	ra,8000051c <i2c_send_command>
C:\Users\ming\Desktop\i2c\Debug/../application/oled.c:50
	      i2c_send_data(I2C_ID, *(gTxPacket+i));            //write i-th byte into fifo
800034a2:	00044583          	lbu	a1,0(s0)
800034a6:	10025537          	lui	a0,0x10025
800034aa:	85efd0ef          	jal	ra,80000508 <i2c_send_data>
C:\Users\ming\Desktop\i2c\Debug/../application/oled.c:51
	      i2c_send_command(I2C_ID, I2C_START_WRITE); //send data on the i2c bus                 //wait for ack
800034ae:	09000593          	li	a1,144
800034b2:	10025537          	lui	a0,0x10025
800034b6:	866fd0ef          	jal	ra,8000051c <i2c_send_command>
C:\Users\ming\Desktop\i2c\Debug/../application/oled.c:50
	      i2c_send_data(I2C_ID, *(gTxPacket+i));            //write i-th byte into fifo
800034ba:	00144583          	lbu	a1,1(s0)
800034be:	10025537          	lui	a0,0x10025
800034c2:	846fd0ef          	jal	ra,80000508 <i2c_send_data>
C:\Users\ming\Desktop\i2c\Debug/../application/oled.c:51
	      i2c_send_command(I2C_ID, I2C_START_WRITE); //send data on the i2c bus                 //wait for ack
800034c6:	09000593          	li	a1,144
800034ca:	10025537          	lui	a0,0x10025
800034ce:	84efd0ef          	jal	ra,8000051c <i2c_send_command>
C:\Users\ming\Desktop\i2c\Debug/../application/oled.c:53
	  while(i2c_busy(I2C_ID));
800034d2:	10025537          	lui	a0,0x10025
800034d6:	85afd0ef          	jal	ra,80000530 <i2c_busy>
800034da:	c521                	beqz	a0,80003522 <OLED_Init+0x1eaa>
800034dc:	10025537          	lui	a0,0x10025
800034e0:	850fd0ef          	jal	ra,80000530 <i2c_busy>
800034e4:	cd1d                	beqz	a0,80003522 <OLED_Init+0x1eaa>
800034e6:	10025537          	lui	a0,0x10025
800034ea:	846fd0ef          	jal	ra,80000530 <i2c_busy>
800034ee:	c915                	beqz	a0,80003522 <OLED_Init+0x1eaa>
800034f0:	10025537          	lui	a0,0x10025
800034f4:	83cfd0ef          	jal	ra,80000530 <i2c_busy>
800034f8:	c50d                	beqz	a0,80003522 <OLED_Init+0x1eaa>
800034fa:	10025537          	lui	a0,0x10025
800034fe:	832fd0ef          	jal	ra,80000530 <i2c_busy>
80003502:	c105                	beqz	a0,80003522 <OLED_Init+0x1eaa>
80003504:	10025537          	lui	a0,0x10025
80003508:	828fd0ef          	jal	ra,80000530 <i2c_busy>
8000350c:	c919                	beqz	a0,80003522 <OLED_Init+0x1eaa>
8000350e:	10025537          	lui	a0,0x10025
80003512:	81efd0ef          	jal	ra,80000530 <i2c_busy>
80003516:	c511                	beqz	a0,80003522 <OLED_Init+0x1eaa>
80003518:	10025537          	lui	a0,0x10025
8000351c:	814fd0ef          	jal	ra,80000530 <i2c_busy>
80003520:	f94d                	bnez	a0,800034d2 <OLED_Init+0x1e5a>
C:\Users\ming\Desktop\i2c\Debug/../application/oled.c:65
  while(i2c_busy(I2C_ID));
80003522:	10025537          	lui	a0,0x10025
80003526:	80afd0ef          	jal	ra,80000530 <i2c_busy>
8000352a:	c521                	beqz	a0,80003572 <OLED_Init+0x1efa>
8000352c:	10025537          	lui	a0,0x10025
80003530:	800fd0ef          	jal	ra,80000530 <i2c_busy>
80003534:	cd1d                	beqz	a0,80003572 <OLED_Init+0x1efa>
80003536:	10025537          	lui	a0,0x10025
8000353a:	ff7fc0ef          	jal	ra,80000530 <i2c_busy>
8000353e:	c915                	beqz	a0,80003572 <OLED_Init+0x1efa>
80003540:	10025537          	lui	a0,0x10025
80003544:	fedfc0ef          	jal	ra,80000530 <i2c_busy>
80003548:	c50d                	beqz	a0,80003572 <OLED_Init+0x1efa>
8000354a:	10025537          	lui	a0,0x10025
8000354e:	fe3fc0ef          	jal	ra,80000530 <i2c_busy>
80003552:	c105                	beqz	a0,80003572 <OLED_Init+0x1efa>
80003554:	10025537          	lui	a0,0x10025
80003558:	fd9fc0ef          	jal	ra,80000530 <i2c_busy>
8000355c:	c919                	beqz	a0,80003572 <OLED_Init+0x1efa>
8000355e:	10025537          	lui	a0,0x10025
80003562:	fcffc0ef          	jal	ra,80000530 <i2c_busy>
80003566:	c511                	beqz	a0,80003572 <OLED_Init+0x1efa>
80003568:	10025537          	lui	a0,0x10025
8000356c:	fc5fc0ef          	jal	ra,80000530 <i2c_busy>
80003570:	f94d                	bnez	a0,80003522 <OLED_Init+0x1eaa>
C:\Users\ming\Desktop\i2c\Debug/../application/oled.c:44
	  {*(gTxPacket)=0x00;}
80003572:	78f5                	lui	a7,0xffffd
80003574:	80088e13          	addi	t3,a7,-2048 # ffffc800 <_sp+0x6ffec800>
C:\Users\ming\Desktop\i2c\Debug/../application/oled.c:47
	  i2c_send_data(I2C_ID, 0x3c);
80003578:	03c00593          	li	a1,60
8000357c:	10025537          	lui	a0,0x10025
C:\Users\ming\Desktop\i2c\Debug/../application/oled.c:44
	  {*(gTxPacket)=0x00;}
80003580:	01c41023          	sh	t3,0(s0)
C:\Users\ming\Desktop\i2c\Debug/../application/oled.c:47
	  i2c_send_data(I2C_ID, 0x3c);
80003584:	f85fc0ef          	jal	ra,80000508 <i2c_send_data>
C:\Users\ming\Desktop\i2c\Debug/../application/oled.c:48
	  i2c_send_command(I2C_ID, I2C_WRITE);
80003588:	45c1                	li	a1,16
8000358a:	10025537          	lui	a0,0x10025
8000358e:	f8ffc0ef          	jal	ra,8000051c <i2c_send_command>
C:\Users\ming\Desktop\i2c\Debug/../application/oled.c:50
	      i2c_send_data(I2C_ID, *(gTxPacket+i));            //write i-th byte into fifo
80003592:	00044583          	lbu	a1,0(s0)
80003596:	10025537          	lui	a0,0x10025
8000359a:	f6ffc0ef          	jal	ra,80000508 <i2c_send_data>
C:\Users\ming\Desktop\i2c\Debug/../application/oled.c:51
	      i2c_send_command(I2C_ID, I2C_START_WRITE); //send data on the i2c bus                 //wait for ack
8000359e:	09000593          	li	a1,144
800035a2:	10025537          	lui	a0,0x10025
800035a6:	f77fc0ef          	jal	ra,8000051c <i2c_send_command>
C:\Users\ming\Desktop\i2c\Debug/../application/oled.c:50
	      i2c_send_data(I2C_ID, *(gTxPacket+i));            //write i-th byte into fifo
800035aa:	00144583          	lbu	a1,1(s0)
800035ae:	10025537          	lui	a0,0x10025
800035b2:	f57fc0ef          	jal	ra,80000508 <i2c_send_data>
C:\Users\ming\Desktop\i2c\Debug/../application/oled.c:51
	      i2c_send_command(I2C_ID, I2C_START_WRITE); //send data on the i2c bus                 //wait for ack
800035b6:	09000593          	li	a1,144
800035ba:	10025537          	lui	a0,0x10025
800035be:	f5ffc0ef          	jal	ra,8000051c <i2c_send_command>
C:\Users\ming\Desktop\i2c\Debug/../application/oled.c:53
	  while(i2c_busy(I2C_ID));
800035c2:	10025537          	lui	a0,0x10025
800035c6:	f6bfc0ef          	jal	ra,80000530 <i2c_busy>
800035ca:	c521                	beqz	a0,80003612 <OLED_Init+0x1f9a>
800035cc:	10025537          	lui	a0,0x10025
800035d0:	f61fc0ef          	jal	ra,80000530 <i2c_busy>
800035d4:	cd1d                	beqz	a0,80003612 <OLED_Init+0x1f9a>
800035d6:	10025537          	lui	a0,0x10025
800035da:	f57fc0ef          	jal	ra,80000530 <i2c_busy>
800035de:	c915                	beqz	a0,80003612 <OLED_Init+0x1f9a>
800035e0:	10025537          	lui	a0,0x10025
800035e4:	f4dfc0ef          	jal	ra,80000530 <i2c_busy>
800035e8:	c50d                	beqz	a0,80003612 <OLED_Init+0x1f9a>
800035ea:	10025537          	lui	a0,0x10025
800035ee:	f43fc0ef          	jal	ra,80000530 <i2c_busy>
800035f2:	c105                	beqz	a0,80003612 <OLED_Init+0x1f9a>
800035f4:	10025537          	lui	a0,0x10025
800035f8:	f39fc0ef          	jal	ra,80000530 <i2c_busy>
800035fc:	c919                	beqz	a0,80003612 <OLED_Init+0x1f9a>
800035fe:	10025537          	lui	a0,0x10025
80003602:	f2ffc0ef          	jal	ra,80000530 <i2c_busy>
80003606:	c511                	beqz	a0,80003612 <OLED_Init+0x1f9a>
80003608:	10025537          	lui	a0,0x10025
8000360c:	f25fc0ef          	jal	ra,80000530 <i2c_busy>
80003610:	f94d                	bnez	a0,800035c2 <OLED_Init+0x1f4a>
C:\Users\ming\Desktop\i2c\Debug/../application/oled.c:65
  while(i2c_busy(I2C_ID));
80003612:	10025537          	lui	a0,0x10025
80003616:	f1bfc0ef          	jal	ra,80000530 <i2c_busy>
8000361a:	c521                	beqz	a0,80003662 <OLED_Init+0x1fea>
8000361c:	10025537          	lui	a0,0x10025
80003620:	f11fc0ef          	jal	ra,80000530 <i2c_busy>
80003624:	cd1d                	beqz	a0,80003662 <OLED_Init+0x1fea>
80003626:	10025537          	lui	a0,0x10025
8000362a:	f07fc0ef          	jal	ra,80000530 <i2c_busy>
8000362e:	c915                	beqz	a0,80003662 <OLED_Init+0x1fea>
80003630:	10025537          	lui	a0,0x10025
80003634:	efdfc0ef          	jal	ra,80000530 <i2c_busy>
80003638:	c50d                	beqz	a0,80003662 <OLED_Init+0x1fea>
8000363a:	10025537          	lui	a0,0x10025
8000363e:	ef3fc0ef          	jal	ra,80000530 <i2c_busy>
80003642:	c105                	beqz	a0,80003662 <OLED_Init+0x1fea>
80003644:	10025537          	lui	a0,0x10025
80003648:	ee9fc0ef          	jal	ra,80000530 <i2c_busy>
8000364c:	c919                	beqz	a0,80003662 <OLED_Init+0x1fea>
8000364e:	10025537          	lui	a0,0x10025
80003652:	edffc0ef          	jal	ra,80000530 <i2c_busy>
80003656:	c511                	beqz	a0,80003662 <OLED_Init+0x1fea>
80003658:	10025537          	lui	a0,0x10025
8000365c:	ed5fc0ef          	jal	ra,80000530 <i2c_busy>
80003660:	f94d                	bnez	a0,80003612 <OLED_Init+0x1f9a>
C:\Users\ming\Desktop\i2c\Debug/../application/oled.c:44
	  {*(gTxPacket)=0x00;}
80003662:	7ee9                	lui	t4,0xffffa
80003664:	100e8f13          	addi	t5,t4,256 # ffffa100 <_sp+0x6ffea100>
C:\Users\ming\Desktop\i2c\Debug/../application/oled.c:47
	  i2c_send_data(I2C_ID, 0x3c);
80003668:	03c00593          	li	a1,60
8000366c:	10025537          	lui	a0,0x10025
C:\Users\ming\Desktop\i2c\Debug/../application/oled.c:44
	  {*(gTxPacket)=0x00;}
80003670:	01e41023          	sh	t5,0(s0)
C:\Users\ming\Desktop\i2c\Debug/../application/oled.c:47
	  i2c_send_data(I2C_ID, 0x3c);
80003674:	e95fc0ef          	jal	ra,80000508 <i2c_send_data>
C:\Users\ming\Desktop\i2c\Debug/../application/oled.c:48
	  i2c_send_command(I2C_ID, I2C_WRITE);
80003678:	45c1                	li	a1,16
8000367a:	10025537          	lui	a0,0x10025
8000367e:	e9ffc0ef          	jal	ra,8000051c <i2c_send_command>
C:\Users\ming\Desktop\i2c\Debug/../application/oled.c:50
	      i2c_send_data(I2C_ID, *(gTxPacket+i));            //write i-th byte into fifo
80003682:	00044583          	lbu	a1,0(s0)
80003686:	10025537          	lui	a0,0x10025
8000368a:	e7ffc0ef          	jal	ra,80000508 <i2c_send_data>
C:\Users\ming\Desktop\i2c\Debug/../application/oled.c:51
	      i2c_send_command(I2C_ID, I2C_START_WRITE); //send data on the i2c bus                 //wait for ack
8000368e:	09000593          	li	a1,144
80003692:	10025537          	lui	a0,0x10025
80003696:	e87fc0ef          	jal	ra,8000051c <i2c_send_command>
C:\Users\ming\Desktop\i2c\Debug/../application/oled.c:50
	      i2c_send_data(I2C_ID, *(gTxPacket+i));            //write i-th byte into fifo
8000369a:	00144583          	lbu	a1,1(s0)
8000369e:	10025537          	lui	a0,0x10025
800036a2:	e67fc0ef          	jal	ra,80000508 <i2c_send_data>
C:\Users\ming\Desktop\i2c\Debug/../application/oled.c:51
	      i2c_send_command(I2C_ID, I2C_START_WRITE); //send data on the i2c bus                 //wait for ack
800036a6:	09000593          	li	a1,144
800036aa:	10025537          	lui	a0,0x10025
800036ae:	e6ffc0ef          	jal	ra,8000051c <i2c_send_command>
C:\Users\ming\Desktop\i2c\Debug/../application/oled.c:53
	  while(i2c_busy(I2C_ID));
800036b2:	10025537          	lui	a0,0x10025
800036b6:	e7bfc0ef          	jal	ra,80000530 <i2c_busy>
800036ba:	c521                	beqz	a0,80003702 <OLED_Init+0x208a>
800036bc:	10025537          	lui	a0,0x10025
800036c0:	e71fc0ef          	jal	ra,80000530 <i2c_busy>
800036c4:	cd1d                	beqz	a0,80003702 <OLED_Init+0x208a>
800036c6:	10025537          	lui	a0,0x10025
800036ca:	e67fc0ef          	jal	ra,80000530 <i2c_busy>
800036ce:	c915                	beqz	a0,80003702 <OLED_Init+0x208a>
800036d0:	10025537          	lui	a0,0x10025
800036d4:	e5dfc0ef          	jal	ra,80000530 <i2c_busy>
800036d8:	c50d                	beqz	a0,80003702 <OLED_Init+0x208a>
800036da:	10025537          	lui	a0,0x10025
800036de:	e53fc0ef          	jal	ra,80000530 <i2c_busy>
800036e2:	c105                	beqz	a0,80003702 <OLED_Init+0x208a>
800036e4:	10025537          	lui	a0,0x10025
800036e8:	e49fc0ef          	jal	ra,80000530 <i2c_busy>
800036ec:	c919                	beqz	a0,80003702 <OLED_Init+0x208a>
800036ee:	10025537          	lui	a0,0x10025
800036f2:	e3ffc0ef          	jal	ra,80000530 <i2c_busy>
800036f6:	c511                	beqz	a0,80003702 <OLED_Init+0x208a>
800036f8:	10025537          	lui	a0,0x10025
800036fc:	e35fc0ef          	jal	ra,80000530 <i2c_busy>
80003700:	f94d                	bnez	a0,800036b2 <OLED_Init+0x203a>
C:\Users\ming\Desktop\i2c\Debug/../application/oled.c:65
  while(i2c_busy(I2C_ID));
80003702:	10025537          	lui	a0,0x10025
80003706:	e2bfc0ef          	jal	ra,80000530 <i2c_busy>
8000370a:	c521                	beqz	a0,80003752 <OLED_Init+0x20da>
8000370c:	10025537          	lui	a0,0x10025
80003710:	e21fc0ef          	jal	ra,80000530 <i2c_busy>
80003714:	cd1d                	beqz	a0,80003752 <OLED_Init+0x20da>
80003716:	10025537          	lui	a0,0x10025
8000371a:	e17fc0ef          	jal	ra,80000530 <i2c_busy>
8000371e:	c915                	beqz	a0,80003752 <OLED_Init+0x20da>
80003720:	10025537          	lui	a0,0x10025
80003724:	e0dfc0ef          	jal	ra,80000530 <i2c_busy>
80003728:	c50d                	beqz	a0,80003752 <OLED_Init+0x20da>
8000372a:	10025537          	lui	a0,0x10025
8000372e:	e03fc0ef          	jal	ra,80000530 <i2c_busy>
80003732:	c105                	beqz	a0,80003752 <OLED_Init+0x20da>
80003734:	10025537          	lui	a0,0x10025
80003738:	df9fc0ef          	jal	ra,80000530 <i2c_busy>
8000373c:	c919                	beqz	a0,80003752 <OLED_Init+0x20da>
8000373e:	10025537          	lui	a0,0x10025
80003742:	deffc0ef          	jal	ra,80000530 <i2c_busy>
80003746:	c511                	beqz	a0,80003752 <OLED_Init+0x20da>
80003748:	10025537          	lui	a0,0x10025
8000374c:	de5fc0ef          	jal	ra,80000530 <i2c_busy>
80003750:	f94d                	bnez	a0,80003702 <OLED_Init+0x208a>
OLED_Init():
C:\Users\ming\Desktop\i2c\Debug/../application/oled.c:273
  OLED_Clear();
  OLED_WR_Byte(0xAF, OLED_CMD); /*display ON*/

  OLED_ColorTurn(0);//01 
  OLED_DisplayTurn(0);//0 1 
}
80003752:	40f2                	lw	ra,28(sp)
80003754:	4462                	lw	s0,24(sp)
80003756:	44d2                	lw	s1,20(sp)
80003758:	4942                	lw	s2,16(sp)
8000375a:	49b2                	lw	s3,12(sp)
8000375c:	4a22                	lw	s4,8(sp)
8000375e:	4a92                	lw	s5,4(sp)
80003760:	6105                	addi	sp,sp,32
80003762:	8082                	ret
	...

80003766 <__udivdi3>:
__udivdi3():
/Local/xl_ci/toolchain/riscv-gnu-toolchain/riscv-gcc/libgcc/libgcc2.c:1319
80003766:	88aa                	mv	a7,a0
80003768:	87ae                	mv	a5,a1
__udivmoddi4():
/Local/xl_ci/toolchain/riscv-gnu-toolchain/riscv-gcc/libgcc/libgcc2.c:1024
8000376a:	8832                	mv	a6,a2
/Local/xl_ci/toolchain/riscv-gnu-toolchain/riscv-gcc/libgcc/libgcc2.c:1025
8000376c:	8536                	mv	a0,a3
/Local/xl_ci/toolchain/riscv-gnu-toolchain/riscv-gcc/libgcc/libgcc2.c:1026
8000376e:	8346                	mv	t1,a7
/Local/xl_ci/toolchain/riscv-gnu-toolchain/riscv-gcc/libgcc/libgcc2.c:1064
80003770:	20069663          	bnez	a3,8000397c <__udivdi3+0x216>
/Local/xl_ci/toolchain/riscv-gnu-toolchain/riscv-gcc/libgcc/libgcc2.c:1066
80003774:	00006697          	auipc	a3,0x6
80003778:	a2c68693          	addi	a3,a3,-1492 # 800091a0 <__clz_tab>
8000377c:	0ac5ff63          	bgeu	a1,a2,8000383a <__udivdi3+0xd4>
/Local/xl_ci/toolchain/riscv-gnu-toolchain/riscv-gcc/libgcc/libgcc2.c:1070
80003780:	6741                	lui	a4,0x10
80003782:	0ae67563          	bgeu	a2,a4,8000382c <__udivdi3+0xc6>
80003786:	0ff00713          	li	a4,255
8000378a:	00c73733          	sltu	a4,a4,a2
8000378e:	070e                	slli	a4,a4,0x3
80003790:	00e65533          	srl	a0,a2,a4
80003794:	96aa                	add	a3,a3,a0
80003796:	0006c683          	lbu	a3,0(a3)
8000379a:	02000513          	li	a0,32
8000379e:	9736                	add	a4,a4,a3
800037a0:	40e506b3          	sub	a3,a0,a4
/Local/xl_ci/toolchain/riscv-gnu-toolchain/riscv-gcc/libgcc/libgcc2.c:1072
800037a4:	00e50b63          	beq	a0,a4,800037ba <__udivdi3+0x54>
/Local/xl_ci/toolchain/riscv-gnu-toolchain/riscv-gcc/libgcc/libgcc2.c:1078
800037a8:	00d795b3          	sll	a1,a5,a3
800037ac:	00e8d733          	srl	a4,a7,a4
/Local/xl_ci/toolchain/riscv-gnu-toolchain/riscv-gcc/libgcc/libgcc2.c:1077
800037b0:	00d61833          	sll	a6,a2,a3
/Local/xl_ci/toolchain/riscv-gnu-toolchain/riscv-gcc/libgcc/libgcc2.c:1078
800037b4:	8dd9                	or	a1,a1,a4
/Local/xl_ci/toolchain/riscv-gnu-toolchain/riscv-gcc/libgcc/libgcc2.c:1079
800037b6:	00d89333          	sll	t1,a7,a3
/Local/xl_ci/toolchain/riscv-gnu-toolchain/riscv-gcc/libgcc/libgcc2.c:1082
800037ba:	01085893          	srli	a7,a6,0x10
800037be:	0315d6b3          	divu	a3,a1,a7
800037c2:	01081613          	slli	a2,a6,0x10
800037c6:	8241                	srli	a2,a2,0x10
800037c8:	01035793          	srli	a5,t1,0x10
800037cc:	0315f733          	remu	a4,a1,a7
800037d0:	8536                	mv	a0,a3
800037d2:	02d605b3          	mul	a1,a2,a3
800037d6:	0742                	slli	a4,a4,0x10
800037d8:	8fd9                	or	a5,a5,a4
800037da:	00b7fc63          	bgeu	a5,a1,800037f2 <__udivdi3+0x8c>
800037de:	97c2                	add	a5,a5,a6
800037e0:	fff68513          	addi	a0,a3,-1
800037e4:	0107e763          	bltu	a5,a6,800037f2 <__udivdi3+0x8c>
800037e8:	00b7f563          	bgeu	a5,a1,800037f2 <__udivdi3+0x8c>
800037ec:	ffe68513          	addi	a0,a3,-2
800037f0:	97c2                	add	a5,a5,a6
800037f2:	8f8d                	sub	a5,a5,a1
800037f4:	0317f733          	remu	a4,a5,a7
800037f8:	0342                	slli	t1,t1,0x10
800037fa:	01035313          	srli	t1,t1,0x10
800037fe:	0317d7b3          	divu	a5,a5,a7
80003802:	0742                	slli	a4,a4,0x10
80003804:	00676333          	or	t1,a4,t1
80003808:	02f606b3          	mul	a3,a2,a5
8000380c:	863e                	mv	a2,a5
8000380e:	00d37b63          	bgeu	t1,a3,80003824 <__udivdi3+0xbe>
80003812:	9342                	add	t1,t1,a6
80003814:	fff78613          	addi	a2,a5,-1
80003818:	01036663          	bltu	t1,a6,80003824 <__udivdi3+0xbe>
8000381c:	00d37463          	bgeu	t1,a3,80003824 <__udivdi3+0xbe>
80003820:	ffe78613          	addi	a2,a5,-2
80003824:	0542                	slli	a0,a0,0x10
80003826:	8d51                	or	a0,a0,a2
/Local/xl_ci/toolchain/riscv-gnu-toolchain/riscv-gcc/libgcc/libgcc2.c:1209
80003828:	4581                	li	a1,0
8000382a:	a85d                	j	800038e0 <__udivdi3+0x17a>
/Local/xl_ci/toolchain/riscv-gnu-toolchain/riscv-gcc/libgcc/libgcc2.c:1070
8000382c:	01000537          	lui	a0,0x1000
80003830:	4741                	li	a4,16
80003832:	f4a66fe3          	bltu	a2,a0,80003790 <__udivdi3+0x2a>
80003836:	4761                	li	a4,24
80003838:	bfa1                	j	80003790 <__udivdi3+0x2a>
/Local/xl_ci/toolchain/riscv-gnu-toolchain/riscv-gcc/libgcc/libgcc2.c:1091
8000383a:	e601                	bnez	a2,80003842 <__udivdi3+0xdc>
/Local/xl_ci/toolchain/riscv-gnu-toolchain/riscv-gcc/libgcc/libgcc2.c:1092
8000383c:	4705                	li	a4,1
8000383e:	02c75833          	divu	a6,a4,a2
/Local/xl_ci/toolchain/riscv-gnu-toolchain/riscv-gcc/libgcc/libgcc2.c:1094
80003842:	6741                	lui	a4,0x10
80003844:	08e87f63          	bgeu	a6,a4,800038e2 <__udivdi3+0x17c>
80003848:	0ff00713          	li	a4,255
8000384c:	01077363          	bgeu	a4,a6,80003852 <__udivdi3+0xec>
80003850:	4521                	li	a0,8
80003852:	00a85733          	srl	a4,a6,a0
80003856:	96ba                	add	a3,a3,a4
80003858:	0006c703          	lbu	a4,0(a3)
8000385c:	02000613          	li	a2,32
80003860:	972a                	add	a4,a4,a0
80003862:	40e606b3          	sub	a3,a2,a4
/Local/xl_ci/toolchain/riscv-gnu-toolchain/riscv-gcc/libgcc/libgcc2.c:1096
80003866:	08e61563          	bne	a2,a4,800038f0 <__udivdi3+0x18a>
/Local/xl_ci/toolchain/riscv-gnu-toolchain/riscv-gcc/libgcc/libgcc2.c:1105
8000386a:	410787b3          	sub	a5,a5,a6
/Local/xl_ci/toolchain/riscv-gnu-toolchain/riscv-gcc/libgcc/libgcc2.c:1106
8000386e:	4585                	li	a1,1
/Local/xl_ci/toolchain/riscv-gnu-toolchain/riscv-gcc/libgcc/libgcc2.c:1124
80003870:	01085893          	srli	a7,a6,0x10
80003874:	01081613          	slli	a2,a6,0x10
80003878:	8241                	srli	a2,a2,0x10
8000387a:	01035713          	srli	a4,t1,0x10
8000387e:	0317f6b3          	remu	a3,a5,a7
80003882:	0317d7b3          	divu	a5,a5,a7
80003886:	06c2                	slli	a3,a3,0x10
80003888:	8f55                	or	a4,a4,a3
8000388a:	02f60e33          	mul	t3,a2,a5
8000388e:	853e                	mv	a0,a5
80003890:	01c77c63          	bgeu	a4,t3,800038a8 <__udivdi3+0x142>
80003894:	9742                	add	a4,a4,a6
80003896:	fff78513          	addi	a0,a5,-1
8000389a:	01076763          	bltu	a4,a6,800038a8 <__udivdi3+0x142>
8000389e:	01c77563          	bgeu	a4,t3,800038a8 <__udivdi3+0x142>
800038a2:	ffe78513          	addi	a0,a5,-2
800038a6:	9742                	add	a4,a4,a6
800038a8:	41c70733          	sub	a4,a4,t3
800038ac:	031777b3          	remu	a5,a4,a7
800038b0:	0342                	slli	t1,t1,0x10
800038b2:	01035313          	srli	t1,t1,0x10
800038b6:	03175733          	divu	a4,a4,a7
800038ba:	07c2                	slli	a5,a5,0x10
800038bc:	0067e333          	or	t1,a5,t1
800038c0:	02e606b3          	mul	a3,a2,a4
800038c4:	863a                	mv	a2,a4
800038c6:	00d37b63          	bgeu	t1,a3,800038dc <__udivdi3+0x176>
800038ca:	9342                	add	t1,t1,a6
800038cc:	fff70613          	addi	a2,a4,-1 # ffff <__stack_size+0xf7ff>
800038d0:	01036663          	bltu	t1,a6,800038dc <__udivdi3+0x176>
800038d4:	00d37463          	bgeu	t1,a3,800038dc <__udivdi3+0x176>
800038d8:	ffe70613          	addi	a2,a4,-2
800038dc:	0542                	slli	a0,a0,0x10
800038de:	8d51                	or	a0,a0,a2
__udivdi3():
/Local/xl_ci/toolchain/riscv-gnu-toolchain/riscv-gcc/libgcc/libgcc2.c:1321
800038e0:	8082                	ret
__udivmoddi4():
/Local/xl_ci/toolchain/riscv-gnu-toolchain/riscv-gcc/libgcc/libgcc2.c:1094
800038e2:	01000737          	lui	a4,0x1000
800038e6:	4541                	li	a0,16
800038e8:	f6e865e3          	bltu	a6,a4,80003852 <__udivdi3+0xec>
800038ec:	4561                	li	a0,24
800038ee:	b795                	j	80003852 <__udivdi3+0xec>
/Local/xl_ci/toolchain/riscv-gnu-toolchain/riscv-gcc/libgcc/libgcc2.c:1114
800038f0:	00d81833          	sll	a6,a6,a3
/Local/xl_ci/toolchain/riscv-gnu-toolchain/riscv-gcc/libgcc/libgcc2.c:1115
800038f4:	00e7d533          	srl	a0,a5,a4
/Local/xl_ci/toolchain/riscv-gnu-toolchain/riscv-gcc/libgcc/libgcc2.c:1117
800038f8:	00d89333          	sll	t1,a7,a3
/Local/xl_ci/toolchain/riscv-gnu-toolchain/riscv-gcc/libgcc/libgcc2.c:1116
800038fc:	00d797b3          	sll	a5,a5,a3
80003900:	00e8d733          	srl	a4,a7,a4
/Local/xl_ci/toolchain/riscv-gnu-toolchain/riscv-gcc/libgcc/libgcc2.c:1119
80003904:	01085893          	srli	a7,a6,0x10
/Local/xl_ci/toolchain/riscv-gnu-toolchain/riscv-gcc/libgcc/libgcc2.c:1116
80003908:	00f76633          	or	a2,a4,a5
/Local/xl_ci/toolchain/riscv-gnu-toolchain/riscv-gcc/libgcc/libgcc2.c:1119
8000390c:	03157733          	remu	a4,a0,a7
80003910:	01081793          	slli	a5,a6,0x10
80003914:	83c1                	srli	a5,a5,0x10
80003916:	01065593          	srli	a1,a2,0x10
8000391a:	03155533          	divu	a0,a0,a7
8000391e:	0742                	slli	a4,a4,0x10
80003920:	8f4d                	or	a4,a4,a1
80003922:	02a786b3          	mul	a3,a5,a0
80003926:	85aa                	mv	a1,a0
80003928:	00d77c63          	bgeu	a4,a3,80003940 <__udivdi3+0x1da>
8000392c:	9742                	add	a4,a4,a6
8000392e:	fff50593          	addi	a1,a0,-1 # ffffff <__stack_size+0xfff7ff>
80003932:	01076763          	bltu	a4,a6,80003940 <__udivdi3+0x1da>
80003936:	00d77563          	bgeu	a4,a3,80003940 <__udivdi3+0x1da>
8000393a:	ffe50593          	addi	a1,a0,-2
8000393e:	9742                	add	a4,a4,a6
80003940:	40d706b3          	sub	a3,a4,a3
80003944:	0316f733          	remu	a4,a3,a7
80003948:	0642                	slli	a2,a2,0x10
8000394a:	8241                	srli	a2,a2,0x10
8000394c:	0316d6b3          	divu	a3,a3,a7
80003950:	0742                	slli	a4,a4,0x10
80003952:	02d78533          	mul	a0,a5,a3
80003956:	00c767b3          	or	a5,a4,a2
8000395a:	8736                	mv	a4,a3
8000395c:	00a7fc63          	bgeu	a5,a0,80003974 <__udivdi3+0x20e>
80003960:	97c2                	add	a5,a5,a6
80003962:	fff68713          	addi	a4,a3,-1
80003966:	0107e763          	bltu	a5,a6,80003974 <__udivdi3+0x20e>
8000396a:	00a7f563          	bgeu	a5,a0,80003974 <__udivdi3+0x20e>
8000396e:	ffe68713          	addi	a4,a3,-2
80003972:	97c2                	add	a5,a5,a6
80003974:	05c2                	slli	a1,a1,0x10
80003976:	8f89                	sub	a5,a5,a0
80003978:	8dd9                	or	a1,a1,a4
8000397a:	bddd                	j	80003870 <__udivdi3+0x10a>
/Local/xl_ci/toolchain/riscv-gnu-toolchain/riscv-gcc/libgcc/libgcc2.c:1140
8000397c:	14d5e263          	bltu	a1,a3,80003ac0 <__udivdi3+0x35a>
/Local/xl_ci/toolchain/riscv-gnu-toolchain/riscv-gcc/libgcc/libgcc2.c:1159
80003980:	6741                	lui	a4,0x10
80003982:	02e6ff63          	bgeu	a3,a4,800039c0 <__udivdi3+0x25a>
80003986:	0ff00713          	li	a4,255
8000398a:	00d735b3          	sltu	a1,a4,a3
8000398e:	058e                	slli	a1,a1,0x3
80003990:	00b6d533          	srl	a0,a3,a1
80003994:	00006717          	auipc	a4,0x6
80003998:	80c70713          	addi	a4,a4,-2036 # 800091a0 <__clz_tab>
8000399c:	972a                	add	a4,a4,a0
8000399e:	00074703          	lbu	a4,0(a4)
800039a2:	02000513          	li	a0,32
800039a6:	972e                	add	a4,a4,a1
800039a8:	40e505b3          	sub	a1,a0,a4
/Local/xl_ci/toolchain/riscv-gnu-toolchain/riscv-gcc/libgcc/libgcc2.c:1160
800039ac:	02e51163          	bne	a0,a4,800039ce <__udivdi3+0x268>
/Local/xl_ci/toolchain/riscv-gnu-toolchain/riscv-gcc/libgcc/libgcc2.c:1172
800039b0:	4505                	li	a0,1
/Local/xl_ci/toolchain/riscv-gnu-toolchain/riscv-gcc/libgcc/libgcc2.c:1170
800039b2:	f2f6e7e3          	bltu	a3,a5,800038e0 <__udivdi3+0x17a>
800039b6:	00c8b533          	sltu	a0,a7,a2
800039ba:	00154513          	xori	a0,a0,1
800039be:	b70d                	j	800038e0 <__udivdi3+0x17a>
/Local/xl_ci/toolchain/riscv-gnu-toolchain/riscv-gcc/libgcc/libgcc2.c:1159
800039c0:	01000737          	lui	a4,0x1000
800039c4:	45c1                	li	a1,16
800039c6:	fce6e5e3          	bltu	a3,a4,80003990 <__udivdi3+0x22a>
800039ca:	45e1                	li	a1,24
800039cc:	b7d1                	j	80003990 <__udivdi3+0x22a>
/Local/xl_ci/toolchain/riscv-gnu-toolchain/riscv-gcc/libgcc/libgcc2.c:1194
800039ce:	00e65833          	srl	a6,a2,a4
800039d2:	00b696b3          	sll	a3,a3,a1
800039d6:	00d86833          	or	a6,a6,a3
/Local/xl_ci/toolchain/riscv-gnu-toolchain/riscv-gcc/libgcc/libgcc2.c:1196
800039da:	00e7d333          	srl	t1,a5,a4
/Local/xl_ci/toolchain/riscv-gnu-toolchain/riscv-gcc/libgcc/libgcc2.c:1200
800039de:	01085e93          	srli	t4,a6,0x10
800039e2:	03d376b3          	remu	a3,t1,t4
/Local/xl_ci/toolchain/riscv-gnu-toolchain/riscv-gcc/libgcc/libgcc2.c:1197
800039e6:	00b797b3          	sll	a5,a5,a1
800039ea:	00e8d733          	srl	a4,a7,a4
/Local/xl_ci/toolchain/riscv-gnu-toolchain/riscv-gcc/libgcc/libgcc2.c:1195
800039ee:	00b61e33          	sll	t3,a2,a1
/Local/xl_ci/toolchain/riscv-gnu-toolchain/riscv-gcc/libgcc/libgcc2.c:1197
800039f2:	00f76633          	or	a2,a4,a5
/Local/xl_ci/toolchain/riscv-gnu-toolchain/riscv-gcc/libgcc/libgcc2.c:1200
800039f6:	01081793          	slli	a5,a6,0x10
800039fa:	83c1                	srli	a5,a5,0x10
800039fc:	01065713          	srli	a4,a2,0x10
80003a00:	03d35333          	divu	t1,t1,t4
80003a04:	06c2                	slli	a3,a3,0x10
80003a06:	8f55                	or	a4,a4,a3
80003a08:	02678f33          	mul	t5,a5,t1
80003a0c:	851a                	mv	a0,t1
80003a0e:	01e77c63          	bgeu	a4,t5,80003a26 <__udivdi3+0x2c0>
80003a12:	9742                	add	a4,a4,a6
80003a14:	fff30513          	addi	a0,t1,-1 # ffff7fff <_sp+0x6ffe7fff>
80003a18:	01076763          	bltu	a4,a6,80003a26 <__udivdi3+0x2c0>
80003a1c:	01e77563          	bgeu	a4,t5,80003a26 <__udivdi3+0x2c0>
80003a20:	ffe30513          	addi	a0,t1,-2
80003a24:	9742                	add	a4,a4,a6
80003a26:	41e70733          	sub	a4,a4,t5
80003a2a:	03d776b3          	remu	a3,a4,t4
80003a2e:	03d75733          	divu	a4,a4,t4
80003a32:	06c2                	slli	a3,a3,0x10
80003a34:	02e78333          	mul	t1,a5,a4
80003a38:	01061793          	slli	a5,a2,0x10
80003a3c:	83c1                	srli	a5,a5,0x10
80003a3e:	8fd5                	or	a5,a5,a3
80003a40:	863a                	mv	a2,a4
80003a42:	0067fc63          	bgeu	a5,t1,80003a5a <__udivdi3+0x2f4>
80003a46:	97c2                	add	a5,a5,a6
80003a48:	fff70613          	addi	a2,a4,-1 # ffffff <__stack_size+0xfff7ff>
80003a4c:	0107e763          	bltu	a5,a6,80003a5a <__udivdi3+0x2f4>
80003a50:	0067f563          	bgeu	a5,t1,80003a5a <__udivdi3+0x2f4>
80003a54:	ffe70613          	addi	a2,a4,-2
80003a58:	97c2                	add	a5,a5,a6
80003a5a:	0542                	slli	a0,a0,0x10
/Local/xl_ci/toolchain/riscv-gnu-toolchain/riscv-gcc/libgcc/libgcc2.c:1201
80003a5c:	6ec1                	lui	t4,0x10
/Local/xl_ci/toolchain/riscv-gnu-toolchain/riscv-gcc/libgcc/libgcc2.c:1200
80003a5e:	8d51                	or	a0,a0,a2
/Local/xl_ci/toolchain/riscv-gnu-toolchain/riscv-gcc/libgcc/libgcc2.c:1201
80003a60:	fffe8693          	addi	a3,t4,-1 # ffff <__stack_size+0xf7ff>
80003a64:	010e5613          	srli	a2,t3,0x10
80003a68:	01055813          	srli	a6,a0,0x10
/Local/xl_ci/toolchain/riscv-gnu-toolchain/riscv-gcc/libgcc/libgcc2.c:1200
80003a6c:	406787b3          	sub	a5,a5,t1
/Local/xl_ci/toolchain/riscv-gnu-toolchain/riscv-gcc/libgcc/libgcc2.c:1201
80003a70:	00d57333          	and	t1,a0,a3
80003a74:	00de76b3          	and	a3,t3,a3
80003a78:	02d30e33          	mul	t3,t1,a3
80003a7c:	02d806b3          	mul	a3,a6,a3
80003a80:	010e5713          	srli	a4,t3,0x10
80003a84:	02c30333          	mul	t1,t1,a2
80003a88:	9336                	add	t1,t1,a3
80003a8a:	971a                	add	a4,a4,t1
80003a8c:	02c80833          	mul	a6,a6,a2
80003a90:	00d77363          	bgeu	a4,a3,80003a96 <__udivdi3+0x330>
80003a94:	9876                	add	a6,a6,t4
80003a96:	01075693          	srli	a3,a4,0x10
80003a9a:	9836                	add	a6,a6,a3
/Local/xl_ci/toolchain/riscv-gnu-toolchain/riscv-gcc/libgcc/libgcc2.c:1203
80003a9c:	0307e063          	bltu	a5,a6,80003abc <__udivdi3+0x356>
80003aa0:	d90794e3          	bne	a5,a6,80003828 <__udivdi3+0xc2>
/Local/xl_ci/toolchain/riscv-gnu-toolchain/riscv-gcc/libgcc/libgcc2.c:1201
80003aa4:	67c1                	lui	a5,0x10
80003aa6:	17fd                	addi	a5,a5,-1
80003aa8:	8f7d                	and	a4,a4,a5
80003aaa:	0742                	slli	a4,a4,0x10
80003aac:	00fe7e33          	and	t3,t3,a5
/Local/xl_ci/toolchain/riscv-gnu-toolchain/riscv-gcc/libgcc/libgcc2.c:1198
80003ab0:	00b898b3          	sll	a7,a7,a1
/Local/xl_ci/toolchain/riscv-gnu-toolchain/riscv-gcc/libgcc/libgcc2.c:1201
80003ab4:	9772                	add	a4,a4,t3
/Local/xl_ci/toolchain/riscv-gnu-toolchain/riscv-gcc/libgcc/libgcc2.c:1209
80003ab6:	4581                	li	a1,0
/Local/xl_ci/toolchain/riscv-gnu-toolchain/riscv-gcc/libgcc/libgcc2.c:1203
80003ab8:	e2e8f4e3          	bgeu	a7,a4,800038e0 <__udivdi3+0x17a>
/Local/xl_ci/toolchain/riscv-gnu-toolchain/riscv-gcc/libgcc/libgcc2.c:1205
80003abc:	157d                	addi	a0,a0,-1
__udivdi3():
/Local/xl_ci/toolchain/riscv-gnu-toolchain/riscv-gcc/libgcc/libgcc2.c:1206
80003abe:	b3ad                	j	80003828 <__udivdi3+0xc2>
__udivmoddi4():
/Local/xl_ci/toolchain/riscv-gnu-toolchain/riscv-gcc/libgcc/libgcc2.c:1145
80003ac0:	4581                	li	a1,0
/Local/xl_ci/toolchain/riscv-gnu-toolchain/riscv-gcc/libgcc/libgcc2.c:1144
80003ac2:	4501                	li	a0,0
80003ac4:	bd31                	j	800038e0 <__udivdi3+0x17a>

80003ac6 <atexit>:
atexit():
80003ac6:	85aa                	mv	a1,a0
80003ac8:	4681                	li	a3,0
80003aca:	4601                	li	a2,0
80003acc:	4501                	li	a0,0
80003ace:	5910006f          	j	8000485e <__register_exitproc>

80003ad2 <__libc_fini_array>:
__libc_fini_array():
80003ad2:	1141                	addi	sp,sp,-16
80003ad4:	c422                	sw	s0,8(sp)
80003ad6:	c226                	sw	s1,4(sp)
80003ad8:	00006417          	auipc	s0,0x6
80003adc:	c7c40413          	addi	s0,s0,-900 # 80009754 <__fsymtab_end>
80003ae0:	00006497          	auipc	s1,0x6
80003ae4:	c7448493          	addi	s1,s1,-908 # 80009754 <__fsymtab_end>
80003ae8:	8c05                	sub	s0,s0,s1
80003aea:	c606                	sw	ra,12(sp)
80003aec:	8409                	srai	s0,s0,0x2
80003aee:	e411                	bnez	s0,80003afa <__libc_fini_array+0x28>
80003af0:	40b2                	lw	ra,12(sp)
80003af2:	4422                	lw	s0,8(sp)
80003af4:	4492                	lw	s1,4(sp)
80003af6:	0141                	addi	sp,sp,16
80003af8:	8082                	ret
80003afa:	147d                	addi	s0,s0,-1
80003afc:	00241793          	slli	a5,s0,0x2
80003b00:	97a6                	add	a5,a5,s1
80003b02:	439c                	lw	a5,0(a5)
80003b04:	9782                	jalr	a5
80003b06:	b7e5                	j	80003aee <__libc_fini_array+0x1c>

80003b08 <__libc_init_array>:
__libc_init_array():
80003b08:	1141                	addi	sp,sp,-16
80003b0a:	c422                	sw	s0,8(sp)
80003b0c:	c226                	sw	s1,4(sp)
80003b0e:	00006417          	auipc	s0,0x6
80003b12:	c4640413          	addi	s0,s0,-954 # 80009754 <__fsymtab_end>
80003b16:	00006497          	auipc	s1,0x6
80003b1a:	c3e48493          	addi	s1,s1,-962 # 80009754 <__fsymtab_end>
80003b1e:	8c81                	sub	s1,s1,s0
80003b20:	c04a                	sw	s2,0(sp)
80003b22:	c606                	sw	ra,12(sp)
80003b24:	8489                	srai	s1,s1,0x2
80003b26:	4901                	li	s2,0
80003b28:	02991563          	bne	s2,s1,80003b52 <__libc_init_array+0x4a>
80003b2c:	00006417          	auipc	s0,0x6
80003b30:	c2840413          	addi	s0,s0,-984 # 80009754 <__fsymtab_end>
80003b34:	00006497          	auipc	s1,0x6
80003b38:	c2048493          	addi	s1,s1,-992 # 80009754 <__fsymtab_end>
80003b3c:	8c81                	sub	s1,s1,s0
80003b3e:	8489                	srai	s1,s1,0x2
80003b40:	4901                	li	s2,0
80003b42:	00991d63          	bne	s2,s1,80003b5c <__libc_init_array+0x54>
80003b46:	40b2                	lw	ra,12(sp)
80003b48:	4422                	lw	s0,8(sp)
80003b4a:	4492                	lw	s1,4(sp)
80003b4c:	4902                	lw	s2,0(sp)
80003b4e:	0141                	addi	sp,sp,16
80003b50:	8082                	ret
80003b52:	401c                	lw	a5,0(s0)
80003b54:	0905                	addi	s2,s2,1
80003b56:	0411                	addi	s0,s0,4
80003b58:	9782                	jalr	a5
80003b5a:	b7f9                	j	80003b28 <__libc_init_array+0x20>
80003b5c:	401c                	lw	a5,0(s0)
80003b5e:	0905                	addi	s2,s2,1
80003b60:	0411                	addi	s0,s0,4
80003b62:	9782                	jalr	a5
80003b64:	bff9                	j	80003b42 <__libc_init_array+0x3a>

80003b66 <__cvt>:
__cvt():
80003b66:	7179                	addi	sp,sp,-48
80003b68:	d422                	sw	s0,40(sp)
80003b6a:	d04a                	sw	s2,32(sp)
80003b6c:	cc52                	sw	s4,24(sp)
80003b6e:	ca56                	sw	s5,20(sp)
80003b70:	c85a                	sw	s6,16(sp)
80003b72:	d606                	sw	ra,44(sp)
80003b74:	d226                	sw	s1,36(sp)
80003b76:	ce4e                	sw	s3,28(sp)
80003b78:	8b3a                	mv	s6,a4
80003b7a:	8a2e                	mv	s4,a1
80003b7c:	8432                	mv	s0,a2
80003b7e:	8936                	mv	s2,a3
80003b80:	8ac2                	mv	s5,a6
80003b82:	4701                	li	a4,0
80003b84:	00065863          	bgez	a2,80003b94 <__cvt+0x2e>
80003b88:	80000737          	lui	a4,0x80000
80003b8c:	00c74433          	xor	s0,a4,a2
80003b90:	02d00713          	li	a4,45
80003b94:	00e78023          	sb	a4,0(a5) # 10000 <__stack_size+0xf800>
80003b98:	fdf8f493          	andi	s1,a7,-33
80003b9c:	04600793          	li	a5,70
80003ba0:	468d                	li	a3,3
80003ba2:	00f48863          	beq	s1,a5,80003bb2 <__cvt+0x4c>
80003ba6:	04500793          	li	a5,69
80003baa:	4689                	li	a3,2
80003bac:	00f49363          	bne	s1,a5,80003bb2 <__cvt+0x4c>
80003bb0:	0905                	addi	s2,s2,1
80003bb2:	87d6                	mv	a5,s5
80003bb4:	00c10893          	addi	a7,sp,12
80003bb8:	00810813          	addi	a6,sp,8
80003bbc:	874a                	mv	a4,s2
80003bbe:	85d2                	mv	a1,s4
80003bc0:	8622                	mv	a2,s0
80003bc2:	63d000ef          	jal	ra,800049fe <_dtoa_r>
80003bc6:	04700793          	li	a5,71
80003bca:	89aa                	mv	s3,a0
80003bcc:	00f49563          	bne	s1,a5,80003bd6 <__cvt+0x70>
80003bd0:	001b7613          	andi	a2,s6,1
80003bd4:	ca29                	beqz	a2,80003c26 <__cvt+0xc0>
80003bd6:	04600793          	li	a5,70
80003bda:	01298b33          	add	s6,s3,s2
80003bde:	02f49763          	bne	s1,a5,80003c0c <__cvt+0xa6>
80003be2:	0009c703          	lbu	a4,0(s3)
80003be6:	03000793          	li	a5,48
80003bea:	00f71e63          	bne	a4,a5,80003c06 <__cvt+0xa0>
80003bee:	4601                	li	a2,0
80003bf0:	4681                	li	a3,0
80003bf2:	8552                	mv	a0,s4
80003bf4:	85a2                	mv	a1,s0
80003bf6:	4cb030ef          	jal	ra,800078c0 <__eqdf2>
80003bfa:	c511                	beqz	a0,80003c06 <__cvt+0xa0>
80003bfc:	4605                	li	a2,1
80003bfe:	412606b3          	sub	a3,a2,s2
80003c02:	00daa023          	sw	a3,0(s5) # 1000 <__stack_size+0x800>
80003c06:	000aa783          	lw	a5,0(s5)
80003c0a:	9b3e                	add	s6,s6,a5
80003c0c:	4601                	li	a2,0
80003c0e:	4681                	li	a3,0
80003c10:	8552                	mv	a0,s4
80003c12:	85a2                	mv	a1,s0
80003c14:	4ad030ef          	jal	ra,800078c0 <__eqdf2>
80003c18:	e111                	bnez	a0,80003c1c <__cvt+0xb6>
80003c1a:	c65a                	sw	s6,12(sp)
80003c1c:	03000713          	li	a4,48
80003c20:	47b2                	lw	a5,12(sp)
80003c22:	0367e263          	bltu	a5,s6,80003c46 <__cvt+0xe0>
80003c26:	47b2                	lw	a5,12(sp)
80003c28:	5742                	lw	a4,48(sp)
80003c2a:	50b2                	lw	ra,44(sp)
80003c2c:	5422                	lw	s0,40(sp)
80003c2e:	413787b3          	sub	a5,a5,s3
80003c32:	c31c                	sw	a5,0(a4)
80003c34:	5492                	lw	s1,36(sp)
80003c36:	5902                	lw	s2,32(sp)
80003c38:	4a62                	lw	s4,24(sp)
80003c3a:	4ad2                	lw	s5,20(sp)
80003c3c:	4b42                	lw	s6,16(sp)
80003c3e:	854e                	mv	a0,s3
80003c40:	49f2                	lw	s3,28(sp)
80003c42:	6145                	addi	sp,sp,48
80003c44:	8082                	ret
80003c46:	00178693          	addi	a3,a5,1
80003c4a:	c636                	sw	a3,12(sp)
80003c4c:	00e78023          	sb	a4,0(a5)
80003c50:	bfc1                	j	80003c20 <__cvt+0xba>

80003c52 <__exponent>:
__exponent():
80003c52:	00c50023          	sb	a2,0(a0)
80003c56:	00250793          	addi	a5,a0,2
80003c5a:	02b00713          	li	a4,43
80003c5e:	0005d663          	bgez	a1,80003c6a <__exponent+0x18>
80003c62:	40b005b3          	neg	a1,a1
80003c66:	02d00713          	li	a4,45
80003c6a:	00e500a3          	sb	a4,1(a0)
80003c6e:	4725                	li	a4,9
80003c70:	06b75263          	bge	a4,a1,80003cd4 <__exponent+0x82>
80003c74:	1141                	addi	sp,sp,-16
80003c76:	00f10713          	addi	a4,sp,15
80003c7a:	883a                	mv	a6,a4
80003c7c:	48a9                	li	a7,10
80003c7e:	06300313          	li	t1,99
80003c82:	0315e633          	rem	a2,a1,a7
80003c86:	86ba                	mv	a3,a4
80003c88:	177d                	addi	a4,a4,-1
80003c8a:	03060613          	addi	a2,a2,48
80003c8e:	fec68fa3          	sb	a2,-1(a3)
80003c92:	862e                	mv	a2,a1
80003c94:	0315c5b3          	div	a1,a1,a7
80003c98:	fec345e3          	blt	t1,a2,80003c82 <__exponent+0x30>
80003c9c:	ffe68893          	addi	a7,a3,-2
80003ca0:	03058593          	addi	a1,a1,48
80003ca4:	feb70fa3          	sb	a1,-1(a4) # 7fffffff <_sp+0xeffeffff>
80003ca8:	863e                	mv	a2,a5
80003caa:	8746                	mv	a4,a7
80003cac:	01076d63          	bltu	a4,a6,80003cc6 <__exponent+0x74>
80003cb0:	4701                	li	a4,0
80003cb2:	01186563          	bltu	a6,a7,80003cbc <__exponent+0x6a>
80003cb6:	01110713          	addi	a4,sp,17
80003cba:	8f15                	sub	a4,a4,a3
80003cbc:	97ba                	add	a5,a5,a4
80003cbe:	40a78533          	sub	a0,a5,a0
80003cc2:	0141                	addi	sp,sp,16
80003cc4:	8082                	ret
80003cc6:	00074583          	lbu	a1,0(a4)
80003cca:	0705                	addi	a4,a4,1
80003ccc:	0605                	addi	a2,a2,1
80003cce:	feb60fa3          	sb	a1,-1(a2)
80003cd2:	bfe9                	j	80003cac <__exponent+0x5a>
80003cd4:	03000793          	li	a5,48
80003cd8:	00f50123          	sb	a5,2(a0)
80003cdc:	03058593          	addi	a1,a1,48
80003ce0:	00450793          	addi	a5,a0,4
80003ce4:	00b501a3          	sb	a1,3(a0)
80003ce8:	40a78533          	sub	a0,a5,a0
80003cec:	8082                	ret

80003cee <_printf_float>:
_printf_float():
80003cee:	7119                	addi	sp,sp,-128
80003cf0:	de86                	sw	ra,124(sp)
80003cf2:	dca2                	sw	s0,120(sp)
80003cf4:	daa6                	sw	s1,116(sp)
80003cf6:	842e                	mv	s0,a1
80003cf8:	d8ca                	sw	s2,112(sp)
80003cfa:	d6ce                	sw	s3,108(sp)
80003cfc:	d4d2                	sw	s4,104(sp)
80003cfe:	d2d6                	sw	s5,100(sp)
80003d00:	8a3a                	mv	s4,a4
80003d02:	d0da                	sw	s6,96(sp)
80003d04:	cede                	sw	s7,92(sp)
80003d06:	cce2                	sw	s8,88(sp)
80003d08:	8932                	mv	s2,a2
80003d0a:	89b6                	mv	s3,a3
80003d0c:	cae6                	sw	s9,84(sp)
80003d0e:	c8ea                	sw	s10,80(sp)
80003d10:	c6ee                	sw	s11,76(sp)
80003d12:	84aa                	mv	s1,a0
80003d14:	517010ef          	jal	ra,80005a2a <_localeconv_r>
80003d18:	00052c03          	lw	s8,0(a0)
80003d1c:	8562                	mv	a0,s8
80003d1e:	155000ef          	jal	ra,80004672 <strlen>
80003d22:	00042b03          	lw	s6,0(s0)
80003d26:	dc02                	sw	zero,56(sp)
80003d28:	01844a83          	lbu	s5,24(s0)
80003d2c:	100b7713          	andi	a4,s6,256
80003d30:	000a2783          	lw	a5,0(s4)
80003d34:	8baa                	mv	s7,a0
80003d36:	cb79                	beqz	a4,80003e0c <_printf_float+0x11e>
80003d38:	00478713          	addi	a4,a5,4
80003d3c:	00ea2023          	sw	a4,0(s4)
80003d40:	439c                	lw	a5,0(a5)
80003d42:	1008                	addi	a0,sp,32
80003d44:	4398                	lw	a4,0(a5)
80003d46:	d03a                	sw	a4,32(sp)
80003d48:	43d8                	lw	a4,4(a5)
80003d4a:	d23a                	sw	a4,36(sp)
80003d4c:	4798                	lw	a4,8(a5)
80003d4e:	d43a                	sw	a4,40(sp)
80003d50:	47dc                	lw	a5,12(a5)
80003d52:	d63e                	sw	a5,44(sp)
80003d54:	0cf040ef          	jal	ra,80008622 <__trunctfdf2>
80003d58:	c428                	sw	a0,72(s0)
80003d5a:	c46c                	sw	a1,76(s0)
80003d5c:	04c42a03          	lw	s4,76(s0)
80003d60:	0fffc717          	auipc	a4,0xfffc
80003d64:	48070713          	addi	a4,a4,1152 # 900001e0 <_impure_ptr+0x8>
80003d68:	04842c83          	lw	s9,72(s0)
80003d6c:	00072d03          	lw	s10,0(a4)
80003d70:	00472d83          	lw	s11,4(a4)
80003d74:	001a1793          	slli	a5,s4,0x1
80003d78:	8385                	srli	a5,a5,0x1
80003d7a:	866a                	mv	a2,s10
80003d7c:	86ee                	mv	a3,s11
80003d7e:	8566                	mv	a0,s9
80003d80:	85be                	mv	a1,a5
80003d82:	ce3e                	sw	a5,28(sp)
80003d84:	74c040ef          	jal	ra,800084d0 <__unorddf2>
80003d88:	ed49                	bnez	a0,80003e22 <_printf_float+0x134>
80003d8a:	47f2                	lw	a5,28(sp)
80003d8c:	866a                	mv	a2,s10
80003d8e:	86ee                	mv	a3,s11
80003d90:	8566                	mv	a0,s9
80003d92:	85be                	mv	a1,a5
80003d94:	43d030ef          	jal	ra,800079d0 <__ledf2>
80003d98:	08a05563          	blez	a0,80003e22 <_printf_float+0x134>
80003d9c:	4601                	li	a2,0
80003d9e:	4681                	li	a3,0
80003da0:	8566                	mv	a0,s9
80003da2:	85d2                	mv	a1,s4
80003da4:	42d030ef          	jal	ra,800079d0 <__ledf2>
80003da8:	00055663          	bgez	a0,80003db4 <_printf_float+0xc6>
80003dac:	02d00793          	li	a5,45
80003db0:	04f401a3          	sb	a5,67(s0)
80003db4:	04700793          	li	a5,71
80003db8:	00005a17          	auipc	s4,0x5
80003dbc:	4e8a0a13          	addi	s4,s4,1256 # 800092a0 <__clz_tab+0x100>
80003dc0:	0157f663          	bgeu	a5,s5,80003dcc <_printf_float+0xde>
80003dc4:	00005a17          	auipc	s4,0x5
80003dc8:	4e0a0a13          	addi	s4,s4,1248 # 800092a4 <__clz_tab+0x104>
80003dcc:	ffbb7b13          	andi	s6,s6,-5
80003dd0:	478d                	li	a5,3
80003dd2:	01642023          	sw	s6,0(s0)
80003dd6:	c81c                	sw	a5,16(s0)
80003dd8:	4b01                	li	s6,0
80003dda:	874e                	mv	a4,s3
80003ddc:	86ca                	mv	a3,s2
80003dde:	1870                	addi	a2,sp,60
80003de0:	85a2                	mv	a1,s0
80003de2:	8526                	mv	a0,s1
80003de4:	26cd                	jal	800041c6 <_printf_common>
80003de6:	5cfd                	li	s9,-1
80003de8:	17951563          	bne	a0,s9,80003f52 <_printf_float+0x264>
80003dec:	557d                	li	a0,-1
80003dee:	50f6                	lw	ra,124(sp)
80003df0:	5466                	lw	s0,120(sp)
80003df2:	54d6                	lw	s1,116(sp)
80003df4:	5946                	lw	s2,112(sp)
80003df6:	59b6                	lw	s3,108(sp)
80003df8:	5a26                	lw	s4,104(sp)
80003dfa:	5a96                	lw	s5,100(sp)
80003dfc:	5b06                	lw	s6,96(sp)
80003dfe:	4bf6                	lw	s7,92(sp)
80003e00:	4c66                	lw	s8,88(sp)
80003e02:	4cd6                	lw	s9,84(sp)
80003e04:	4d46                	lw	s10,80(sp)
80003e06:	4db6                	lw	s11,76(sp)
80003e08:	6109                	addi	sp,sp,128
80003e0a:	8082                	ret
80003e0c:	079d                	addi	a5,a5,7
80003e0e:	9be1                	andi	a5,a5,-8
80003e10:	00878713          	addi	a4,a5,8
80003e14:	00ea2023          	sw	a4,0(s4)
80003e18:	4398                	lw	a4,0(a5)
80003e1a:	43dc                	lw	a5,4(a5)
80003e1c:	c438                	sw	a4,72(s0)
80003e1e:	c47c                	sw	a5,76(s0)
80003e20:	bf35                	j	80003d5c <_printf_float+0x6e>
80003e22:	8666                	mv	a2,s9
80003e24:	86d2                	mv	a3,s4
80003e26:	8566                	mv	a0,s9
80003e28:	85d2                	mv	a1,s4
80003e2a:	6a6040ef          	jal	ra,800084d0 <__unorddf2>
80003e2e:	c505                	beqz	a0,80003e56 <_printf_float+0x168>
80003e30:	000a5663          	bgez	s4,80003e3c <_printf_float+0x14e>
80003e34:	02d00793          	li	a5,45
80003e38:	04f401a3          	sb	a5,67(s0)
80003e3c:	04700793          	li	a5,71
80003e40:	00005a17          	auipc	s4,0x5
80003e44:	468a0a13          	addi	s4,s4,1128 # 800092a8 <__clz_tab+0x108>
80003e48:	f957f2e3          	bgeu	a5,s5,80003dcc <_printf_float+0xde>
80003e4c:	00005a17          	auipc	s4,0x5
80003e50:	460a0a13          	addi	s4,s4,1120 # 800092ac <__clz_tab+0x10c>
80003e54:	bfa5                	j	80003dcc <_printf_float+0xde>
80003e56:	405c                	lw	a5,4(s0)
80003e58:	577d                	li	a4,-1
80003e5a:	0dfafd13          	andi	s10,s5,223
80003e5e:	08e79563          	bne	a5,a4,80003ee8 <_printf_float+0x1fa>
80003e62:	4799                	li	a5,6
80003e64:	c05c                	sw	a5,4(s0)
80003e66:	4054                	lw	a3,4(s0)
80003e68:	400b6713          	ori	a4,s6,1024
80003e6c:	183c                	addi	a5,sp,56
80003e6e:	c03e                	sw	a5,0(sp)
80003e70:	8652                	mv	a2,s4
80003e72:	03310793          	addi	a5,sp,51
80003e76:	85e6                	mv	a1,s9
80003e78:	c018                	sw	a4,0(s0)
80003e7a:	c202                	sw	zero,4(sp)
80003e7c:	88d6                	mv	a7,s5
80003e7e:	03410813          	addi	a6,sp,52
80003e82:	8526                	mv	a0,s1
80003e84:	ce3ff0ef          	jal	ra,80003b66 <__cvt>
80003e88:	04700793          	li	a5,71
80003e8c:	55d2                	lw	a1,52(sp)
80003e8e:	8a2a                	mv	s4,a0
80003e90:	00fd1b63          	bne	s10,a5,80003ea6 <_printf_float+0x1b8>
80003e94:	57f5                	li	a5,-3
80003e96:	00f5c563          	blt	a1,a5,80003ea0 <_printf_float+0x1b2>
80003e9a:	405c                	lw	a5,4(s0)
80003e9c:	08b7d863          	bge	a5,a1,80003f2c <_printf_float+0x23e>
80003ea0:	1af9                	addi	s5,s5,-2
80003ea2:	0ffafa93          	zext.b	s5,s5
80003ea6:	06500793          	li	a5,101
80003eaa:	0557e663          	bltu	a5,s5,80003ef6 <_printf_float+0x208>
80003eae:	15fd                	addi	a1,a1,-1
80003eb0:	8656                	mv	a2,s5
80003eb2:	05040513          	addi	a0,s0,80
80003eb6:	da2e                	sw	a1,52(sp)
80003eb8:	d9bff0ef          	jal	ra,80003c52 <__exponent>
80003ebc:	5762                	lw	a4,56(sp)
80003ebe:	4685                	li	a3,1
80003ec0:	8b2a                	mv	s6,a0
80003ec2:	00a707b3          	add	a5,a4,a0
80003ec6:	c81c                	sw	a5,16(s0)
80003ec8:	00e6c563          	blt	a3,a4,80003ed2 <_printf_float+0x1e4>
80003ecc:	4018                	lw	a4,0(s0)
80003ece:	8b05                	andi	a4,a4,1
80003ed0:	c319                	beqz	a4,80003ed6 <_printf_float+0x1e8>
80003ed2:	0785                	addi	a5,a5,1
80003ed4:	c81c                	sw	a5,16(s0)
80003ed6:	03314783          	lbu	a5,51(sp)
80003eda:	f00780e3          	beqz	a5,80003dda <_printf_float+0xec>
80003ede:	02d00793          	li	a5,45
80003ee2:	04f401a3          	sb	a5,67(s0)
80003ee6:	bdd5                	j	80003dda <_printf_float+0xec>
80003ee8:	04700713          	li	a4,71
80003eec:	f6ed1de3          	bne	s10,a4,80003e66 <_printf_float+0x178>
80003ef0:	fbbd                	bnez	a5,80003e66 <_printf_float+0x178>
80003ef2:	4785                	li	a5,1
80003ef4:	bf85                	j	80003e64 <_printf_float+0x176>
80003ef6:	06600793          	li	a5,102
80003efa:	02fa9b63          	bne	s5,a5,80003f30 <_printf_float+0x242>
80003efe:	405c                	lw	a5,4(s0)
80003f00:	00b05b63          	blez	a1,80003f16 <_printf_float+0x228>
80003f04:	c80c                	sw	a1,16(s0)
80003f06:	e781                	bnez	a5,80003f0e <_printf_float+0x220>
80003f08:	4018                	lw	a4,0(s0)
80003f0a:	8b05                	andi	a4,a4,1
80003f0c:	cf09                	beqz	a4,80003f26 <_printf_float+0x238>
80003f0e:	0785                	addi	a5,a5,1
80003f10:	97ae                	add	a5,a5,a1
80003f12:	c81c                	sw	a5,16(s0)
80003f14:	a809                	j	80003f26 <_printf_float+0x238>
80003f16:	e789                	bnez	a5,80003f20 <_printf_float+0x232>
80003f18:	4018                	lw	a4,0(s0)
80003f1a:	4685                	li	a3,1
80003f1c:	8b05                	andi	a4,a4,1
80003f1e:	c319                	beqz	a4,80003f24 <_printf_float+0x236>
80003f20:	00278693          	addi	a3,a5,2
80003f24:	c814                	sw	a3,16(s0)
80003f26:	cc2c                	sw	a1,88(s0)
80003f28:	4b01                	li	s6,0
80003f2a:	b775                	j	80003ed6 <_printf_float+0x1e8>
80003f2c:	06700a93          	li	s5,103
80003f30:	57e2                	lw	a5,56(sp)
80003f32:	00f5c963          	blt	a1,a5,80003f44 <_printf_float+0x256>
80003f36:	401c                	lw	a5,0(s0)
80003f38:	c80c                	sw	a1,16(s0)
80003f3a:	8b85                	andi	a5,a5,1
80003f3c:	d7ed                	beqz	a5,80003f26 <_printf_float+0x238>
80003f3e:	00158793          	addi	a5,a1,1
80003f42:	bfc1                	j	80003f12 <_printf_float+0x224>
80003f44:	4705                	li	a4,1
80003f46:	00b04463          	bgtz	a1,80003f4e <_printf_float+0x260>
80003f4a:	4709                	li	a4,2
80003f4c:	8f0d                	sub	a4,a4,a1
80003f4e:	97ba                	add	a5,a5,a4
80003f50:	b7c9                	j	80003f12 <_printf_float+0x224>
80003f52:	401c                	lw	a5,0(s0)
80003f54:	4007f713          	andi	a4,a5,1024
80003f58:	e315                	bnez	a4,80003f7c <_printf_float+0x28e>
80003f5a:	4814                	lw	a3,16(s0)
80003f5c:	8652                	mv	a2,s4
80003f5e:	85ca                	mv	a1,s2
80003f60:	8526                	mv	a0,s1
80003f62:	9982                	jalr	s3
80003f64:	e99504e3          	beq	a0,s9,80003dec <_printf_float+0xfe>
80003f68:	401c                	lw	a5,0(s0)
80003f6a:	8b89                	andi	a5,a5,2
80003f6c:	24079863          	bnez	a5,800041bc <_printf_float+0x4ce>
80003f70:	57f2                	lw	a5,60(sp)
80003f72:	4448                	lw	a0,12(s0)
80003f74:	e6f55de3          	bge	a0,a5,80003dee <_printf_float+0x100>
80003f78:	853e                	mv	a0,a5
80003f7a:	bd95                	j	80003dee <_printf_float+0x100>
80003f7c:	06500713          	li	a4,101
80003f80:	19577d63          	bgeu	a4,s5,8000411a <_printf_float+0x42c>
80003f84:	4428                	lw	a0,72(s0)
80003f86:	446c                	lw	a1,76(s0)
80003f88:	4601                	li	a2,0
80003f8a:	4681                	li	a3,0
80003f8c:	135030ef          	jal	ra,800078c0 <__eqdf2>
80003f90:	e939                	bnez	a0,80003fe6 <_printf_float+0x2f8>
80003f92:	4685                	li	a3,1
80003f94:	00005617          	auipc	a2,0x5
80003f98:	31c60613          	addi	a2,a2,796 # 800092b0 <__clz_tab+0x110>
80003f9c:	85ca                	mv	a1,s2
80003f9e:	8526                	mv	a0,s1
80003fa0:	9982                	jalr	s3
80003fa2:	e59505e3          	beq	a0,s9,80003dec <_printf_float+0xfe>
80003fa6:	5752                	lw	a4,52(sp)
80003fa8:	57e2                	lw	a5,56(sp)
80003faa:	00f74563          	blt	a4,a5,80003fb4 <_printf_float+0x2c6>
80003fae:	401c                	lw	a5,0(s0)
80003fb0:	8b85                	andi	a5,a5,1
80003fb2:	dbdd                	beqz	a5,80003f68 <_printf_float+0x27a>
80003fb4:	86de                	mv	a3,s7
80003fb6:	8662                	mv	a2,s8
80003fb8:	85ca                	mv	a1,s2
80003fba:	8526                	mv	a0,s1
80003fbc:	9982                	jalr	s3
80003fbe:	57fd                	li	a5,-1
80003fc0:	e2f506e3          	beq	a0,a5,80003dec <_printf_float+0xfe>
80003fc4:	4a01                	li	s4,0
80003fc6:	01a40a93          	addi	s5,s0,26
80003fca:	5b7d                	li	s6,-1
80003fcc:	57e2                	lw	a5,56(sp)
80003fce:	17fd                	addi	a5,a5,-1
80003fd0:	f8fa5ce3          	bge	s4,a5,80003f68 <_printf_float+0x27a>
80003fd4:	4685                	li	a3,1
80003fd6:	8656                	mv	a2,s5
80003fd8:	85ca                	mv	a1,s2
80003fda:	8526                	mv	a0,s1
80003fdc:	9982                	jalr	s3
80003fde:	e16507e3          	beq	a0,s6,80003dec <_printf_float+0xfe>
80003fe2:	0a05                	addi	s4,s4,1
80003fe4:	b7e5                	j	80003fcc <_printf_float+0x2de>
80003fe6:	57d2                	lw	a5,52(sp)
80003fe8:	06f04663          	bgtz	a5,80004054 <_printf_float+0x366>
80003fec:	4685                	li	a3,1
80003fee:	00005617          	auipc	a2,0x5
80003ff2:	2c260613          	addi	a2,a2,706 # 800092b0 <__clz_tab+0x110>
80003ff6:	85ca                	mv	a1,s2
80003ff8:	8526                	mv	a0,s1
80003ffa:	9982                	jalr	s3
80003ffc:	df9508e3          	beq	a0,s9,80003dec <_printf_float+0xfe>
80004000:	57d2                	lw	a5,52(sp)
80004002:	5762                	lw	a4,56(sp)
80004004:	8fd9                	or	a5,a5,a4
80004006:	e781                	bnez	a5,8000400e <_printf_float+0x320>
80004008:	401c                	lw	a5,0(s0)
8000400a:	8b85                	andi	a5,a5,1
8000400c:	dfb1                	beqz	a5,80003f68 <_printf_float+0x27a>
8000400e:	86de                	mv	a3,s7
80004010:	8662                	mv	a2,s8
80004012:	85ca                	mv	a1,s2
80004014:	8526                	mv	a0,s1
80004016:	9982                	jalr	s3
80004018:	57fd                	li	a5,-1
8000401a:	dcf509e3          	beq	a0,a5,80003dec <_printf_float+0xfe>
8000401e:	4a81                	li	s5,0
80004020:	01a40b13          	addi	s6,s0,26
80004024:	5bfd                	li	s7,-1
80004026:	57d2                	lw	a5,52(sp)
80004028:	40f007b3          	neg	a5,a5
8000402c:	00facb63          	blt	s5,a5,80004042 <_printf_float+0x354>
80004030:	56e2                	lw	a3,56(sp)
80004032:	8652                	mv	a2,s4
80004034:	85ca                	mv	a1,s2
80004036:	8526                	mv	a0,s1
80004038:	9982                	jalr	s3
8000403a:	57fd                	li	a5,-1
8000403c:	f2f516e3          	bne	a0,a5,80003f68 <_printf_float+0x27a>
80004040:	b375                	j	80003dec <_printf_float+0xfe>
80004042:	4685                	li	a3,1
80004044:	865a                	mv	a2,s6
80004046:	85ca                	mv	a1,s2
80004048:	8526                	mv	a0,s1
8000404a:	9982                	jalr	s3
8000404c:	db7500e3          	beq	a0,s7,80003dec <_printf_float+0xfe>
80004050:	0a85                	addi	s5,s5,1
80004052:	bfd1                	j	80004026 <_printf_float+0x338>
80004054:	4c3c                	lw	a5,88(s0)
80004056:	5ae2                	lw	s5,56(sp)
80004058:	0157d363          	bge	a5,s5,8000405e <_printf_float+0x370>
8000405c:	8abe                	mv	s5,a5
8000405e:	07504963          	bgtz	s5,800040d0 <_printf_float+0x3e2>
80004062:	4b01                	li	s6,0
80004064:	01a40d13          	addi	s10,s0,26
80004068:	5dfd                	li	s11,-1
8000406a:	05842c83          	lw	s9,88(s0)
8000406e:	87d6                	mv	a5,s5
80004070:	000ad363          	bgez	s5,80004076 <_printf_float+0x388>
80004074:	4781                	li	a5,0
80004076:	40fc87b3          	sub	a5,s9,a5
8000407a:	06fb4463          	blt	s6,a5,800040e2 <_printf_float+0x3f4>
8000407e:	5752                	lw	a4,52(sp)
80004080:	57e2                	lw	a5,56(sp)
80004082:	06f74963          	blt	a4,a5,800040f4 <_printf_float+0x406>
80004086:	401c                	lw	a5,0(s0)
80004088:	8b85                	andi	a5,a5,1
8000408a:	e7ad                	bnez	a5,800040f4 <_printf_float+0x406>
8000408c:	5ae2                	lw	s5,56(sp)
8000408e:	5752                	lw	a4,52(sp)
80004090:	419a87b3          	sub	a5,s5,s9
80004094:	40ea8ab3          	sub	s5,s5,a4
80004098:	0157d363          	bge	a5,s5,8000409e <_printf_float+0x3b0>
8000409c:	8abe                	mv	s5,a5
8000409e:	07504463          	bgtz	s5,80004106 <_printf_float+0x418>
800040a2:	4a01                	li	s4,0
800040a4:	01a40b13          	addi	s6,s0,26
800040a8:	5bfd                	li	s7,-1
800040aa:	5752                	lw	a4,52(sp)
800040ac:	57e2                	lw	a5,56(sp)
800040ae:	8f99                	sub	a5,a5,a4
800040b0:	8756                	mv	a4,s5
800040b2:	000ad363          	bgez	s5,800040b8 <_printf_float+0x3ca>
800040b6:	4701                	li	a4,0
800040b8:	8f99                	sub	a5,a5,a4
800040ba:	eafa57e3          	bge	s4,a5,80003f68 <_printf_float+0x27a>
800040be:	4685                	li	a3,1
800040c0:	865a                	mv	a2,s6
800040c2:	85ca                	mv	a1,s2
800040c4:	8526                	mv	a0,s1
800040c6:	9982                	jalr	s3
800040c8:	d37502e3          	beq	a0,s7,80003dec <_printf_float+0xfe>
800040cc:	0a05                	addi	s4,s4,1
800040ce:	bff1                	j	800040aa <_printf_float+0x3bc>
800040d0:	86d6                	mv	a3,s5
800040d2:	8652                	mv	a2,s4
800040d4:	85ca                	mv	a1,s2
800040d6:	8526                	mv	a0,s1
800040d8:	9982                	jalr	s3
800040da:	57fd                	li	a5,-1
800040dc:	f8f513e3          	bne	a0,a5,80004062 <_printf_float+0x374>
800040e0:	b331                	j	80003dec <_printf_float+0xfe>
800040e2:	4685                	li	a3,1
800040e4:	866a                	mv	a2,s10
800040e6:	85ca                	mv	a1,s2
800040e8:	8526                	mv	a0,s1
800040ea:	9982                	jalr	s3
800040ec:	d1b500e3          	beq	a0,s11,80003dec <_printf_float+0xfe>
800040f0:	0b05                	addi	s6,s6,1
800040f2:	bfa5                	j	8000406a <_printf_float+0x37c>
800040f4:	86de                	mv	a3,s7
800040f6:	8662                	mv	a2,s8
800040f8:	85ca                	mv	a1,s2
800040fa:	8526                	mv	a0,s1
800040fc:	9982                	jalr	s3
800040fe:	57fd                	li	a5,-1
80004100:	f8f516e3          	bne	a0,a5,8000408c <_printf_float+0x39e>
80004104:	b1e5                	j	80003dec <_printf_float+0xfe>
80004106:	86d6                	mv	a3,s5
80004108:	019a0633          	add	a2,s4,s9
8000410c:	85ca                	mv	a1,s2
8000410e:	8526                	mv	a0,s1
80004110:	9982                	jalr	s3
80004112:	57fd                	li	a5,-1
80004114:	f8f517e3          	bne	a0,a5,800040a2 <_printf_float+0x3b4>
80004118:	b9d1                	j	80003dec <_printf_float+0xfe>
8000411a:	56e2                	lw	a3,56(sp)
8000411c:	4705                	li	a4,1
8000411e:	00d74463          	blt	a4,a3,80004126 <_printf_float+0x438>
80004122:	8b85                	andi	a5,a5,1
80004124:	c7b5                	beqz	a5,80004190 <_printf_float+0x4a2>
80004126:	4685                	li	a3,1
80004128:	8652                	mv	a2,s4
8000412a:	85ca                	mv	a1,s2
8000412c:	8526                	mv	a0,s1
8000412e:	9982                	jalr	s3
80004130:	5afd                	li	s5,-1
80004132:	cb550de3          	beq	a0,s5,80003dec <_printf_float+0xfe>
80004136:	86de                	mv	a3,s7
80004138:	8662                	mv	a2,s8
8000413a:	85ca                	mv	a1,s2
8000413c:	8526                	mv	a0,s1
8000413e:	9982                	jalr	s3
80004140:	cb5506e3          	beq	a0,s5,80003dec <_printf_float+0xfe>
80004144:	4428                	lw	a0,72(s0)
80004146:	446c                	lw	a1,76(s0)
80004148:	4601                	li	a2,0
8000414a:	4681                	li	a3,0
8000414c:	774030ef          	jal	ra,800078c0 <__eqdf2>
80004150:	c91d                	beqz	a0,80004186 <_printf_float+0x498>
80004152:	56e2                	lw	a3,56(sp)
80004154:	001a0613          	addi	a2,s4,1
80004158:	85ca                	mv	a1,s2
8000415a:	16fd                	addi	a3,a3,-1
8000415c:	8526                	mv	a0,s1
8000415e:	9982                	jalr	s3
80004160:	c95506e3          	beq	a0,s5,80003dec <_printf_float+0xfe>
80004164:	86da                	mv	a3,s6
80004166:	05040613          	addi	a2,s0,80
8000416a:	b5e9                	j	80004034 <_printf_float+0x346>
8000416c:	4685                	li	a3,1
8000416e:	8656                	mv	a2,s5
80004170:	85ca                	mv	a1,s2
80004172:	8526                	mv	a0,s1
80004174:	9982                	jalr	s3
80004176:	c7750be3          	beq	a0,s7,80003dec <_printf_float+0xfe>
8000417a:	0a05                	addi	s4,s4,1
8000417c:	57e2                	lw	a5,56(sp)
8000417e:	17fd                	addi	a5,a5,-1
80004180:	fefa46e3          	blt	s4,a5,8000416c <_printf_float+0x47e>
80004184:	b7c5                	j	80004164 <_printf_float+0x476>
80004186:	4a01                	li	s4,0
80004188:	01a40a93          	addi	s5,s0,26
8000418c:	5bfd                	li	s7,-1
8000418e:	b7fd                	j	8000417c <_printf_float+0x48e>
80004190:	4685                	li	a3,1
80004192:	8652                	mv	a2,s4
80004194:	85ca                	mv	a1,s2
80004196:	8526                	mv	a0,s1
80004198:	9982                	jalr	s3
8000419a:	fd9515e3          	bne	a0,s9,80004164 <_printf_float+0x476>
8000419e:	b1b9                	j	80003dec <_printf_float+0xfe>
800041a0:	4685                	li	a3,1
800041a2:	8656                	mv	a2,s5
800041a4:	85ca                	mv	a1,s2
800041a6:	8526                	mv	a0,s1
800041a8:	9982                	jalr	s3
800041aa:	c56501e3          	beq	a0,s6,80003dec <_printf_float+0xfe>
800041ae:	0a05                	addi	s4,s4,1
800041b0:	445c                	lw	a5,12(s0)
800041b2:	5772                	lw	a4,60(sp)
800041b4:	8f99                	sub	a5,a5,a4
800041b6:	fefa45e3          	blt	s4,a5,800041a0 <_printf_float+0x4b2>
800041ba:	bb5d                	j	80003f70 <_printf_float+0x282>
800041bc:	4a01                	li	s4,0
800041be:	01940a93          	addi	s5,s0,25
800041c2:	5b7d                	li	s6,-1
800041c4:	b7f5                	j	800041b0 <_printf_float+0x4c2>

800041c6 <_printf_common>:
_printf_common():
800041c6:	7179                	addi	sp,sp,-48
800041c8:	cc52                	sw	s4,24(sp)
800041ca:	499c                	lw	a5,16(a1)
800041cc:	8a3a                	mv	s4,a4
800041ce:	4598                	lw	a4,8(a1)
800041d0:	d422                	sw	s0,40(sp)
800041d2:	d226                	sw	s1,36(sp)
800041d4:	ce4e                	sw	s3,28(sp)
800041d6:	ca56                	sw	s5,20(sp)
800041d8:	d606                	sw	ra,44(sp)
800041da:	d04a                	sw	s2,32(sp)
800041dc:	c85a                	sw	s6,16(sp)
800041de:	c65e                	sw	s7,12(sp)
800041e0:	89aa                	mv	s3,a0
800041e2:	842e                	mv	s0,a1
800041e4:	84b2                	mv	s1,a2
800041e6:	8ab6                	mv	s5,a3
800041e8:	00e7d363          	bge	a5,a4,800041ee <_printf_common+0x28>
800041ec:	87ba                	mv	a5,a4
800041ee:	c09c                	sw	a5,0(s1)
800041f0:	04344703          	lbu	a4,67(s0)
800041f4:	c319                	beqz	a4,800041fa <_printf_common+0x34>
800041f6:	0785                	addi	a5,a5,1
800041f8:	c09c                	sw	a5,0(s1)
800041fa:	401c                	lw	a5,0(s0)
800041fc:	0207f793          	andi	a5,a5,32
80004200:	c781                	beqz	a5,80004208 <_printf_common+0x42>
80004202:	409c                	lw	a5,0(s1)
80004204:	0789                	addi	a5,a5,2
80004206:	c09c                	sw	a5,0(s1)
80004208:	00042903          	lw	s2,0(s0)
8000420c:	00697913          	andi	s2,s2,6
80004210:	00091a63          	bnez	s2,80004224 <_printf_common+0x5e>
80004214:	01940b13          	addi	s6,s0,25
80004218:	5bfd                	li	s7,-1
8000421a:	445c                	lw	a5,12(s0)
8000421c:	4098                	lw	a4,0(s1)
8000421e:	8f99                	sub	a5,a5,a4
80004220:	04f94c63          	blt	s2,a5,80004278 <_printf_common+0xb2>
80004224:	04344783          	lbu	a5,67(s0)
80004228:	00f036b3          	snez	a3,a5
8000422c:	401c                	lw	a5,0(s0)
8000422e:	0207f793          	andi	a5,a5,32
80004232:	eba5                	bnez	a5,800042a2 <_printf_common+0xdc>
80004234:	04340613          	addi	a2,s0,67
80004238:	85d6                	mv	a1,s5
8000423a:	854e                	mv	a0,s3
8000423c:	9a02                	jalr	s4
8000423e:	57fd                	li	a5,-1
80004240:	04f50363          	beq	a0,a5,80004286 <_printf_common+0xc0>
80004244:	401c                	lw	a5,0(s0)
80004246:	4611                	li	a2,4
80004248:	4098                	lw	a4,0(s1)
8000424a:	8b99                	andi	a5,a5,6
8000424c:	4454                	lw	a3,12(s0)
8000424e:	4481                	li	s1,0
80004250:	00c79763          	bne	a5,a2,8000425e <_printf_common+0x98>
80004254:	40e684b3          	sub	s1,a3,a4
80004258:	0004d363          	bgez	s1,8000425e <_printf_common+0x98>
8000425c:	4481                	li	s1,0
8000425e:	441c                	lw	a5,8(s0)
80004260:	4818                	lw	a4,16(s0)
80004262:	00f75463          	bge	a4,a5,8000426a <_printf_common+0xa4>
80004266:	8f99                	sub	a5,a5,a4
80004268:	94be                	add	s1,s1,a5
8000426a:	4901                	li	s2,0
8000426c:	0469                	addi	s0,s0,26
8000426e:	5b7d                	li	s6,-1
80004270:	05249863          	bne	s1,s2,800042c0 <_printf_common+0xfa>
80004274:	4501                	li	a0,0
80004276:	a809                	j	80004288 <_printf_common+0xc2>
80004278:	4685                	li	a3,1
8000427a:	865a                	mv	a2,s6
8000427c:	85d6                	mv	a1,s5
8000427e:	854e                	mv	a0,s3
80004280:	9a02                	jalr	s4
80004282:	01751e63          	bne	a0,s7,8000429e <_printf_common+0xd8>
80004286:	557d                	li	a0,-1
80004288:	50b2                	lw	ra,44(sp)
8000428a:	5422                	lw	s0,40(sp)
8000428c:	5492                	lw	s1,36(sp)
8000428e:	5902                	lw	s2,32(sp)
80004290:	49f2                	lw	s3,28(sp)
80004292:	4a62                	lw	s4,24(sp)
80004294:	4ad2                	lw	s5,20(sp)
80004296:	4b42                	lw	s6,16(sp)
80004298:	4bb2                	lw	s7,12(sp)
8000429a:	6145                	addi	sp,sp,48
8000429c:	8082                	ret
8000429e:	0905                	addi	s2,s2,1
800042a0:	bfad                	j	8000421a <_printf_common+0x54>
800042a2:	00d40733          	add	a4,s0,a3
800042a6:	03000613          	li	a2,48
800042aa:	04c701a3          	sb	a2,67(a4)
800042ae:	04544703          	lbu	a4,69(s0)
800042b2:	00168793          	addi	a5,a3,1
800042b6:	97a2                	add	a5,a5,s0
800042b8:	0689                	addi	a3,a3,2
800042ba:	04e781a3          	sb	a4,67(a5)
800042be:	bf9d                	j	80004234 <_printf_common+0x6e>
800042c0:	4685                	li	a3,1
800042c2:	8622                	mv	a2,s0
800042c4:	85d6                	mv	a1,s5
800042c6:	854e                	mv	a0,s3
800042c8:	9a02                	jalr	s4
800042ca:	fb650ee3          	beq	a0,s6,80004286 <_printf_common+0xc0>
800042ce:	0905                	addi	s2,s2,1
800042d0:	b745                	j	80004270 <_printf_common+0xaa>

800042d2 <_printf_i>:
_printf_i():
800042d2:	7179                	addi	sp,sp,-48
800042d4:	d422                	sw	s0,40(sp)
800042d6:	d226                	sw	s1,36(sp)
800042d8:	d04a                	sw	s2,32(sp)
800042da:	ce4e                	sw	s3,28(sp)
800042dc:	d606                	sw	ra,44(sp)
800042de:	cc52                	sw	s4,24(sp)
800042e0:	ca56                	sw	s5,20(sp)
800042e2:	c85a                	sw	s6,16(sp)
800042e4:	0185c803          	lbu	a6,24(a1)
800042e8:	07800793          	li	a5,120
800042ec:	84aa                	mv	s1,a0
800042ee:	842e                	mv	s0,a1
800042f0:	8932                	mv	s2,a2
800042f2:	89b6                	mv	s3,a3
800042f4:	0107ee63          	bltu	a5,a6,80004310 <_printf_i+0x3e>
800042f8:	06200793          	li	a5,98
800042fc:	04358693          	addi	a3,a1,67
80004300:	0107ed63          	bltu	a5,a6,8000431a <_printf_i+0x48>
80004304:	1c080663          	beqz	a6,800044d0 <_printf_i+0x1fe>
80004308:	05800793          	li	a5,88
8000430c:	12f80b63          	beq	a6,a5,80004442 <_printf_i+0x170>
80004310:	04240a93          	addi	s5,s0,66
80004314:	05040123          	sb	a6,66(s0)
80004318:	a815                	j	8000434c <_printf_i+0x7a>
8000431a:	f9d80793          	addi	a5,a6,-99
8000431e:	0ff7f793          	zext.b	a5,a5
80004322:	4655                	li	a2,21
80004324:	fef666e3          	bltu	a2,a5,80004310 <_printf_i+0x3e>
80004328:	00005617          	auipc	a2,0x5
8000432c:	fb460613          	addi	a2,a2,-76 # 800092dc <__clz_tab+0x13c>
80004330:	078a                	slli	a5,a5,0x2
80004332:	97b2                	add	a5,a5,a2
80004334:	439c                	lw	a5,0(a5)
80004336:	97b2                	add	a5,a5,a2
80004338:	8782                	jr	a5
8000433a:	431c                	lw	a5,0(a4)
8000433c:	04258a93          	addi	s5,a1,66
80004340:	00478693          	addi	a3,a5,4
80004344:	439c                	lw	a5,0(a5)
80004346:	c314                	sw	a3,0(a4)
80004348:	04f58123          	sb	a5,66(a1)
8000434c:	4785                	li	a5,1
8000434e:	a26d                	j	800044f8 <_printf_i+0x226>
80004350:	419c                	lw	a5,0(a1)
80004352:	4308                	lw	a0,0(a4)
80004354:	0807f613          	andi	a2,a5,128
80004358:	00450593          	addi	a1,a0,4
8000435c:	c20d                	beqz	a2,8000437e <_printf_i+0xac>
8000435e:	411c                	lw	a5,0(a0)
80004360:	c30c                	sw	a1,0(a4)
80004362:	0007d863          	bgez	a5,80004372 <_printf_i+0xa0>
80004366:	02d00713          	li	a4,45
8000436a:	40f007b3          	neg	a5,a5
8000436e:	04e401a3          	sb	a4,67(s0)
80004372:	00005617          	auipc	a2,0x5
80004376:	f4260613          	addi	a2,a2,-190 # 800092b4 <__clz_tab+0x114>
8000437a:	4829                	li	a6,10
8000437c:	a0a1                	j	800043c4 <_printf_i+0xf2>
8000437e:	0407f613          	andi	a2,a5,64
80004382:	411c                	lw	a5,0(a0)
80004384:	c30c                	sw	a1,0(a4)
80004386:	de71                	beqz	a2,80004362 <_printf_i+0x90>
80004388:	07c2                	slli	a5,a5,0x10
8000438a:	87c1                	srai	a5,a5,0x10
8000438c:	bfd9                	j	80004362 <_printf_i+0x90>
8000438e:	4190                	lw	a2,0(a1)
80004390:	431c                	lw	a5,0(a4)
80004392:	08067513          	andi	a0,a2,128
80004396:	00478593          	addi	a1,a5,4
8000439a:	c501                	beqz	a0,800043a2 <_printf_i+0xd0>
8000439c:	c30c                	sw	a1,0(a4)
8000439e:	439c                	lw	a5,0(a5)
800043a0:	a039                	j	800043ae <_printf_i+0xdc>
800043a2:	04067613          	andi	a2,a2,64
800043a6:	c30c                	sw	a1,0(a4)
800043a8:	da7d                	beqz	a2,8000439e <_printf_i+0xcc>
800043aa:	0007d783          	lhu	a5,0(a5)
800043ae:	06f00713          	li	a4,111
800043b2:	00005617          	auipc	a2,0x5
800043b6:	f0260613          	addi	a2,a2,-254 # 800092b4 <__clz_tab+0x114>
800043ba:	0ee80563          	beq	a6,a4,800044a4 <_printf_i+0x1d2>
800043be:	4829                	li	a6,10
800043c0:	040401a3          	sb	zero,67(s0)
800043c4:	4058                	lw	a4,4(s0)
800043c6:	c418                	sw	a4,8(s0)
800043c8:	00074563          	bltz	a4,800043d2 <_printf_i+0x100>
800043cc:	400c                	lw	a1,0(s0)
800043ce:	99ed                	andi	a1,a1,-5
800043d0:	c00c                	sw	a1,0(s0)
800043d2:	e399                	bnez	a5,800043d8 <_printf_i+0x106>
800043d4:	8ab6                	mv	s5,a3
800043d6:	cf19                	beqz	a4,800043f4 <_printf_i+0x122>
800043d8:	8ab6                	mv	s5,a3
800043da:	0307f733          	remu	a4,a5,a6
800043de:	1afd                	addi	s5,s5,-1
800043e0:	9732                	add	a4,a4,a2
800043e2:	00074703          	lbu	a4,0(a4)
800043e6:	00ea8023          	sb	a4,0(s5)
800043ea:	873e                	mv	a4,a5
800043ec:	0307d7b3          	divu	a5,a5,a6
800043f0:	ff0775e3          	bgeu	a4,a6,800043da <_printf_i+0x108>
800043f4:	47a1                	li	a5,8
800043f6:	00f81e63          	bne	a6,a5,80004412 <_printf_i+0x140>
800043fa:	401c                	lw	a5,0(s0)
800043fc:	8b85                	andi	a5,a5,1
800043fe:	cb91                	beqz	a5,80004412 <_printf_i+0x140>
80004400:	4058                	lw	a4,4(s0)
80004402:	481c                	lw	a5,16(s0)
80004404:	00e7c763          	blt	a5,a4,80004412 <_printf_i+0x140>
80004408:	03000793          	li	a5,48
8000440c:	fefa8fa3          	sb	a5,-1(s5)
80004410:	1afd                	addi	s5,s5,-1
80004412:	415686b3          	sub	a3,a3,s5
80004416:	c814                	sw	a3,16(s0)
80004418:	874e                	mv	a4,s3
8000441a:	86ca                	mv	a3,s2
8000441c:	0070                	addi	a2,sp,12
8000441e:	85a2                	mv	a1,s0
80004420:	8526                	mv	a0,s1
80004422:	da5ff0ef          	jal	ra,800041c6 <_printf_common>
80004426:	5a7d                	li	s4,-1
80004428:	0d451c63          	bne	a0,s4,80004500 <_printf_i+0x22e>
8000442c:	557d                	li	a0,-1
8000442e:	50b2                	lw	ra,44(sp)
80004430:	5422                	lw	s0,40(sp)
80004432:	5492                	lw	s1,36(sp)
80004434:	5902                	lw	s2,32(sp)
80004436:	49f2                	lw	s3,28(sp)
80004438:	4a62                	lw	s4,24(sp)
8000443a:	4ad2                	lw	s5,20(sp)
8000443c:	4b42                	lw	s6,16(sp)
8000443e:	6145                	addi	sp,sp,48
80004440:	8082                	ret
80004442:	050582a3          	sb	a6,69(a1)
80004446:	00005617          	auipc	a2,0x5
8000444a:	e6e60613          	addi	a2,a2,-402 # 800092b4 <__clz_tab+0x114>
8000444e:	400c                	lw	a1,0(s0)
80004450:	4308                	lw	a0,0(a4)
80004452:	0805f813          	andi	a6,a1,128
80004456:	411c                	lw	a5,0(a0)
80004458:	0511                	addi	a0,a0,4
8000445a:	02080d63          	beqz	a6,80004494 <_printf_i+0x1c2>
8000445e:	c308                	sw	a0,0(a4)
80004460:	0015f713          	andi	a4,a1,1
80004464:	c701                	beqz	a4,8000446c <_printf_i+0x19a>
80004466:	0205e593          	ori	a1,a1,32
8000446a:	c00c                	sw	a1,0(s0)
8000446c:	4841                	li	a6,16
8000446e:	fba9                	bnez	a5,800043c0 <_printf_i+0xee>
80004470:	4018                	lw	a4,0(s0)
80004472:	fdf77713          	andi	a4,a4,-33
80004476:	c018                	sw	a4,0(s0)
80004478:	b7a1                	j	800043c0 <_printf_i+0xee>
8000447a:	419c                	lw	a5,0(a1)
8000447c:	0207e793          	ori	a5,a5,32
80004480:	c19c                	sw	a5,0(a1)
80004482:	07800793          	li	a5,120
80004486:	04f402a3          	sb	a5,69(s0)
8000448a:	00005617          	auipc	a2,0x5
8000448e:	e3e60613          	addi	a2,a2,-450 # 800092c8 <__clz_tab+0x128>
80004492:	bf75                	j	8000444e <_printf_i+0x17c>
80004494:	0405f813          	andi	a6,a1,64
80004498:	c308                	sw	a0,0(a4)
8000449a:	fc0803e3          	beqz	a6,80004460 <_printf_i+0x18e>
8000449e:	07c2                	slli	a5,a5,0x10
800044a0:	83c1                	srli	a5,a5,0x10
800044a2:	bf7d                	j	80004460 <_printf_i+0x18e>
800044a4:	4821                	li	a6,8
800044a6:	bf29                	j	800043c0 <_printf_i+0xee>
800044a8:	4190                	lw	a2,0(a1)
800044aa:	431c                	lw	a5,0(a4)
800044ac:	49cc                	lw	a1,20(a1)
800044ae:	08067813          	andi	a6,a2,128
800044b2:	00478513          	addi	a0,a5,4
800044b6:	00080663          	beqz	a6,800044c2 <_printf_i+0x1f0>
800044ba:	c308                	sw	a0,0(a4)
800044bc:	439c                	lw	a5,0(a5)
800044be:	c38c                	sw	a1,0(a5)
800044c0:	a801                	j	800044d0 <_printf_i+0x1fe>
800044c2:	c308                	sw	a0,0(a4)
800044c4:	04067613          	andi	a2,a2,64
800044c8:	439c                	lw	a5,0(a5)
800044ca:	da75                	beqz	a2,800044be <_printf_i+0x1ec>
800044cc:	00b79023          	sh	a1,0(a5)
800044d0:	00042823          	sw	zero,16(s0)
800044d4:	8ab6                	mv	s5,a3
800044d6:	b789                	j	80004418 <_printf_i+0x146>
800044d8:	431c                	lw	a5,0(a4)
800044da:	41d0                	lw	a2,4(a1)
800044dc:	4581                	li	a1,0
800044de:	00478693          	addi	a3,a5,4
800044e2:	c314                	sw	a3,0(a4)
800044e4:	0007aa83          	lw	s5,0(a5)
800044e8:	8556                	mv	a0,s5
800044ea:	656010ef          	jal	ra,80005b40 <memchr>
800044ee:	c501                	beqz	a0,800044f6 <_printf_i+0x224>
800044f0:	41550533          	sub	a0,a0,s5
800044f4:	c048                	sw	a0,4(s0)
800044f6:	405c                	lw	a5,4(s0)
800044f8:	c81c                	sw	a5,16(s0)
800044fa:	040401a3          	sb	zero,67(s0)
800044fe:	bf29                	j	80004418 <_printf_i+0x146>
80004500:	4814                	lw	a3,16(s0)
80004502:	8656                	mv	a2,s5
80004504:	85ca                	mv	a1,s2
80004506:	8526                	mv	a0,s1
80004508:	9982                	jalr	s3
8000450a:	f34501e3          	beq	a0,s4,8000442c <_printf_i+0x15a>
8000450e:	401c                	lw	a5,0(s0)
80004510:	8b89                	andi	a5,a5,2
80004512:	e78d                	bnez	a5,8000453c <_printf_i+0x26a>
80004514:	47b2                	lw	a5,12(sp)
80004516:	4448                	lw	a0,12(s0)
80004518:	f0f55be3          	bge	a0,a5,8000442e <_printf_i+0x15c>
8000451c:	853e                	mv	a0,a5
8000451e:	bf01                	j	8000442e <_printf_i+0x15c>
80004520:	4685                	li	a3,1
80004522:	8656                	mv	a2,s5
80004524:	85ca                	mv	a1,s2
80004526:	8526                	mv	a0,s1
80004528:	9982                	jalr	s3
8000452a:	f16501e3          	beq	a0,s6,8000442c <_printf_i+0x15a>
8000452e:	0a05                	addi	s4,s4,1
80004530:	445c                	lw	a5,12(s0)
80004532:	4732                	lw	a4,12(sp)
80004534:	8f99                	sub	a5,a5,a4
80004536:	fefa45e3          	blt	s4,a5,80004520 <_printf_i+0x24e>
8000453a:	bfe9                	j	80004514 <_printf_i+0x242>
8000453c:	4a01                	li	s4,0
8000453e:	01940a93          	addi	s5,s0,25
80004542:	5b7d                	li	s6,-1
80004544:	b7f5                	j	80004530 <_printf_i+0x25e>

80004546 <iprintf>:
printf():
80004546:	715d                	addi	sp,sp,-80
80004548:	d422                	sw	s0,40(sp)
8000454a:	d606                	sw	ra,44(sp)
8000454c:	842a                	mv	s0,a0
8000454e:	da2e                	sw	a1,52(sp)
80004550:	dc32                	sw	a2,56(sp)
80004552:	de36                	sw	a3,60(sp)
80004554:	c0ba                	sw	a4,64(sp)
80004556:	c2be                	sw	a5,68(sp)
80004558:	c4c2                	sw	a6,72(sp)
8000455a:	c6c6                	sw	a7,76(sp)
8000455c:	0fffc517          	auipc	a0,0xfffc
80004560:	c7c52503          	lw	a0,-900(a0) # 900001d8 <_impure_ptr>
80004564:	c519                	beqz	a0,80004572 <iprintf+0x2c>
80004566:	4d1c                	lw	a5,24(a0)
80004568:	e789                	bnez	a5,80004572 <iprintf+0x2c>
8000456a:	c62a                	sw	a0,12(sp)
8000456c:	34c010ef          	jal	ra,800058b8 <__sinit>
80004570:	4532                	lw	a0,12(sp)
80004572:	450c                	lw	a1,8(a0)
80004574:	1854                	addi	a3,sp,52
80004576:	8622                	mv	a2,s0
80004578:	ce36                	sw	a3,28(sp)
8000457a:	20e020ef          	jal	ra,80006788 <_vfiprintf_r>
8000457e:	50b2                	lw	ra,44(sp)
80004580:	5422                	lw	s0,40(sp)
80004582:	6161                	addi	sp,sp,80
80004584:	8082                	ret

80004586 <_puts_r>:
_puts_r():
80004586:	1101                	addi	sp,sp,-32
80004588:	ca26                	sw	s1,20(sp)
8000458a:	c84a                	sw	s2,16(sp)
8000458c:	ce06                	sw	ra,28(sp)
8000458e:	cc22                	sw	s0,24(sp)
80004590:	c64e                	sw	s3,12(sp)
80004592:	c452                	sw	s4,8(sp)
80004594:	84aa                	mv	s1,a0
80004596:	892e                	mv	s2,a1
80004598:	c509                	beqz	a0,800045a2 <_puts_r+0x1c>
8000459a:	4d1c                	lw	a5,24(a0)
8000459c:	e399                	bnez	a5,800045a2 <_puts_r+0x1c>
8000459e:	31a010ef          	jal	ra,800058b8 <__sinit>
800045a2:	4c9c                	lw	a5,24(s1)
800045a4:	4480                	lw	s0,8(s1)
800045a6:	e781                	bnez	a5,800045ae <_puts_r+0x28>
800045a8:	8526                	mv	a0,s1
800045aa:	30e010ef          	jal	ra,800058b8 <__sinit>
800045ae:	00005797          	auipc	a5,0x5
800045b2:	e3678793          	addi	a5,a5,-458 # 800093e4 <__sf_fake_stdin>
800045b6:	02f41c63          	bne	s0,a5,800045ee <_puts_r+0x68>
800045ba:	40c0                	lw	s0,4(s1)
800045bc:	00c45783          	lhu	a5,12(s0)
800045c0:	8ba1                	andi	a5,a5,8
800045c2:	c7b1                	beqz	a5,8000460e <_puts_r+0x88>
800045c4:	481c                	lw	a5,16(s0)
800045c6:	c7a1                	beqz	a5,8000460e <_puts_r+0x88>
800045c8:	59fd                	li	s3,-1
800045ca:	4a29                	li	s4,10
800045cc:	441c                	lw	a5,8(s0)
800045ce:	00094583          	lbu	a1,0(s2)
800045d2:	17fd                	addi	a5,a5,-1
800045d4:	e9b1                	bnez	a1,80004628 <_puts_r+0xa2>
800045d6:	c41c                	sw	a5,8(s0)
800045d8:	0607de63          	bgez	a5,80004654 <_puts_r+0xce>
800045dc:	8622                	mv	a2,s0
800045de:	45a9                	li	a1,10
800045e0:	8526                	mv	a0,s1
800045e2:	205d                	jal	80004688 <__swbuf_r>
800045e4:	57fd                	li	a5,-1
800045e6:	02f50863          	beq	a0,a5,80004616 <_puts_r+0x90>
800045ea:	4529                	li	a0,10
800045ec:	a035                	j	80004618 <_puts_r+0x92>
800045ee:	00005797          	auipc	a5,0x5
800045f2:	e1678793          	addi	a5,a5,-490 # 80009404 <__sf_fake_stdout>
800045f6:	00f41463          	bne	s0,a5,800045fe <_puts_r+0x78>
800045fa:	4480                	lw	s0,8(s1)
800045fc:	b7c1                	j	800045bc <_puts_r+0x36>
800045fe:	00005797          	auipc	a5,0x5
80004602:	dc678793          	addi	a5,a5,-570 # 800093c4 <__sf_fake_stderr>
80004606:	faf41be3          	bne	s0,a5,800045bc <_puts_r+0x36>
8000460a:	44c0                	lw	s0,12(s1)
8000460c:	bf45                	j	800045bc <_puts_r+0x36>
8000460e:	85a2                	mv	a1,s0
80004610:	8526                	mv	a0,s1
80004612:	2a35                	jal	8000474e <__swsetup_r>
80004614:	d955                	beqz	a0,800045c8 <_puts_r+0x42>
80004616:	557d                	li	a0,-1
80004618:	40f2                	lw	ra,28(sp)
8000461a:	4462                	lw	s0,24(sp)
8000461c:	44d2                	lw	s1,20(sp)
8000461e:	4942                	lw	s2,16(sp)
80004620:	49b2                	lw	s3,12(sp)
80004622:	4a22                	lw	s4,8(sp)
80004624:	6105                	addi	sp,sp,32
80004626:	8082                	ret
80004628:	c41c                	sw	a5,8(s0)
8000462a:	0905                	addi	s2,s2,1
8000462c:	0007d763          	bgez	a5,8000463a <_puts_r+0xb4>
80004630:	4c18                	lw	a4,24(s0)
80004632:	00e7cb63          	blt	a5,a4,80004648 <_puts_r+0xc2>
80004636:	01458963          	beq	a1,s4,80004648 <_puts_r+0xc2>
8000463a:	401c                	lw	a5,0(s0)
8000463c:	00178713          	addi	a4,a5,1
80004640:	c018                	sw	a4,0(s0)
80004642:	00b78023          	sb	a1,0(a5)
80004646:	b759                	j	800045cc <_puts_r+0x46>
80004648:	8622                	mv	a2,s0
8000464a:	8526                	mv	a0,s1
8000464c:	2835                	jal	80004688 <__swbuf_r>
8000464e:	f7351fe3          	bne	a0,s3,800045cc <_puts_r+0x46>
80004652:	b7d1                	j	80004616 <_puts_r+0x90>
80004654:	401c                	lw	a5,0(s0)
80004656:	00178713          	addi	a4,a5,1
8000465a:	c018                	sw	a4,0(s0)
8000465c:	4729                	li	a4,10
8000465e:	00e78023          	sb	a4,0(a5)
80004662:	b761                	j	800045ea <_puts_r+0x64>

80004664 <puts>:
puts():
80004664:	85aa                	mv	a1,a0
80004666:	0fffc517          	auipc	a0,0xfffc
8000466a:	b7252503          	lw	a0,-1166(a0) # 900001d8 <_impure_ptr>
8000466e:	f19ff06f          	j	80004586 <_puts_r>

80004672 <strlen>:
strlen():
80004672:	87aa                	mv	a5,a0
80004674:	0007c703          	lbu	a4,0(a5)
80004678:	0785                	addi	a5,a5,1
8000467a:	ff6d                	bnez	a4,80004674 <strlen+0x2>
8000467c:	40a78533          	sub	a0,a5,a0
80004680:	157d                	addi	a0,a0,-1
80004682:	8082                	ret

80004684 <isatty>:
isatty():
80004684:	ae1fb06f          	j	80000164 <_isatty>

80004688 <__swbuf_r>:
__swbuf_r():
80004688:	1101                	addi	sp,sp,-32
8000468a:	cc22                	sw	s0,24(sp)
8000468c:	ca26                	sw	s1,20(sp)
8000468e:	c84a                	sw	s2,16(sp)
80004690:	ce06                	sw	ra,28(sp)
80004692:	c64e                	sw	s3,12(sp)
80004694:	84aa                	mv	s1,a0
80004696:	892e                	mv	s2,a1
80004698:	8432                	mv	s0,a2
8000469a:	c509                	beqz	a0,800046a4 <__swbuf_r+0x1c>
8000469c:	4d1c                	lw	a5,24(a0)
8000469e:	e399                	bnez	a5,800046a4 <__swbuf_r+0x1c>
800046a0:	218010ef          	jal	ra,800058b8 <__sinit>
800046a4:	00005797          	auipc	a5,0x5
800046a8:	d4078793          	addi	a5,a5,-704 # 800093e4 <__sf_fake_stdin>
800046ac:	06f41b63          	bne	s0,a5,80004722 <__swbuf_r+0x9a>
800046b0:	40c0                	lw	s0,4(s1)
800046b2:	4c1c                	lw	a5,24(s0)
800046b4:	c41c                	sw	a5,8(s0)
800046b6:	00c45783          	lhu	a5,12(s0)
800046ba:	8ba1                	andi	a5,a5,8
800046bc:	c3d9                	beqz	a5,80004742 <__swbuf_r+0xba>
800046be:	481c                	lw	a5,16(s0)
800046c0:	c3c9                	beqz	a5,80004742 <__swbuf_r+0xba>
800046c2:	481c                	lw	a5,16(s0)
800046c4:	4008                	lw	a0,0(s0)
800046c6:	0ff97993          	zext.b	s3,s2
800046ca:	0ff97913          	zext.b	s2,s2
800046ce:	8d1d                	sub	a0,a0,a5
800046d0:	485c                	lw	a5,20(s0)
800046d2:	00f54763          	blt	a0,a5,800046e0 <__swbuf_r+0x58>
800046d6:	85a2                	mv	a1,s0
800046d8:	8526                	mv	a0,s1
800046da:	0c0010ef          	jal	ra,8000579a <_fflush_r>
800046de:	e535                	bnez	a0,8000474a <__swbuf_r+0xc2>
800046e0:	441c                	lw	a5,8(s0)
800046e2:	0505                	addi	a0,a0,1
800046e4:	17fd                	addi	a5,a5,-1
800046e6:	c41c                	sw	a5,8(s0)
800046e8:	401c                	lw	a5,0(s0)
800046ea:	00178713          	addi	a4,a5,1
800046ee:	c018                	sw	a4,0(s0)
800046f0:	01378023          	sb	s3,0(a5)
800046f4:	485c                	lw	a5,20(s0)
800046f6:	00a78963          	beq	a5,a0,80004708 <__swbuf_r+0x80>
800046fa:	00c45783          	lhu	a5,12(s0)
800046fe:	8b85                	andi	a5,a5,1
80004700:	cb89                	beqz	a5,80004712 <__swbuf_r+0x8a>
80004702:	47a9                	li	a5,10
80004704:	00f91763          	bne	s2,a5,80004712 <__swbuf_r+0x8a>
80004708:	85a2                	mv	a1,s0
8000470a:	8526                	mv	a0,s1
8000470c:	08e010ef          	jal	ra,8000579a <_fflush_r>
80004710:	ed0d                	bnez	a0,8000474a <__swbuf_r+0xc2>
80004712:	40f2                	lw	ra,28(sp)
80004714:	4462                	lw	s0,24(sp)
80004716:	44d2                	lw	s1,20(sp)
80004718:	49b2                	lw	s3,12(sp)
8000471a:	854a                	mv	a0,s2
8000471c:	4942                	lw	s2,16(sp)
8000471e:	6105                	addi	sp,sp,32
80004720:	8082                	ret
80004722:	00005797          	auipc	a5,0x5
80004726:	ce278793          	addi	a5,a5,-798 # 80009404 <__sf_fake_stdout>
8000472a:	00f41463          	bne	s0,a5,80004732 <__swbuf_r+0xaa>
8000472e:	4480                	lw	s0,8(s1)
80004730:	b749                	j	800046b2 <__swbuf_r+0x2a>
80004732:	00005797          	auipc	a5,0x5
80004736:	c9278793          	addi	a5,a5,-878 # 800093c4 <__sf_fake_stderr>
8000473a:	f6f41ce3          	bne	s0,a5,800046b2 <__swbuf_r+0x2a>
8000473e:	44c0                	lw	s0,12(s1)
80004740:	bf8d                	j	800046b2 <__swbuf_r+0x2a>
80004742:	85a2                	mv	a1,s0
80004744:	8526                	mv	a0,s1
80004746:	2021                	jal	8000474e <__swsetup_r>
80004748:	dd2d                	beqz	a0,800046c2 <__swbuf_r+0x3a>
8000474a:	597d                	li	s2,-1
8000474c:	b7d9                	j	80004712 <__swbuf_r+0x8a>

8000474e <__swsetup_r>:
__swsetup_r():
8000474e:	1141                	addi	sp,sp,-16
80004750:	c422                	sw	s0,8(sp)
80004752:	c226                	sw	s1,4(sp)
80004754:	c04a                	sw	s2,0(sp)
80004756:	c606                	sw	ra,12(sp)
80004758:	0fffc497          	auipc	s1,0xfffc
8000475c:	a804a483          	lw	s1,-1408(s1) # 900001d8 <_impure_ptr>
80004760:	892a                	mv	s2,a0
80004762:	842e                	mv	s0,a1
80004764:	c491                	beqz	s1,80004770 <__swsetup_r+0x22>
80004766:	4c9c                	lw	a5,24(s1)
80004768:	e781                	bnez	a5,80004770 <__swsetup_r+0x22>
8000476a:	8526                	mv	a0,s1
8000476c:	14c010ef          	jal	ra,800058b8 <__sinit>
80004770:	00005797          	auipc	a5,0x5
80004774:	c7478793          	addi	a5,a5,-908 # 800093e4 <__sf_fake_stdin>
80004778:	02f41763          	bne	s0,a5,800047a6 <__swsetup_r+0x58>
8000477c:	40c0                	lw	s0,4(s1)
8000477e:	00c41783          	lh	a5,12(s0)
80004782:	01079713          	slli	a4,a5,0x10
80004786:	0087f693          	andi	a3,a5,8
8000478a:	8341                	srli	a4,a4,0x10
8000478c:	eab5                	bnez	a3,80004800 <__swsetup_r+0xb2>
8000478e:	01077693          	andi	a3,a4,16
80004792:	ea95                	bnez	a3,800047c6 <__swsetup_r+0x78>
80004794:	4725                	li	a4,9
80004796:	00e92023          	sw	a4,0(s2)
8000479a:	0407e793          	ori	a5,a5,64
8000479e:	00f41623          	sh	a5,12(s0)
800047a2:	557d                	li	a0,-1
800047a4:	a045                	j	80004844 <__swsetup_r+0xf6>
800047a6:	00005797          	auipc	a5,0x5
800047aa:	c5e78793          	addi	a5,a5,-930 # 80009404 <__sf_fake_stdout>
800047ae:	00f41463          	bne	s0,a5,800047b6 <__swsetup_r+0x68>
800047b2:	4480                	lw	s0,8(s1)
800047b4:	b7e9                	j	8000477e <__swsetup_r+0x30>
800047b6:	00005797          	auipc	a5,0x5
800047ba:	c0e78793          	addi	a5,a5,-1010 # 800093c4 <__sf_fake_stderr>
800047be:	fcf410e3          	bne	s0,a5,8000477e <__swsetup_r+0x30>
800047c2:	44c0                	lw	s0,12(s1)
800047c4:	bf6d                	j	8000477e <__swsetup_r+0x30>
800047c6:	8b11                	andi	a4,a4,4
800047c8:	c715                	beqz	a4,800047f4 <__swsetup_r+0xa6>
800047ca:	584c                	lw	a1,52(s0)
800047cc:	c991                	beqz	a1,800047e0 <__swsetup_r+0x92>
800047ce:	04440793          	addi	a5,s0,68
800047d2:	00f58563          	beq	a1,a5,800047dc <__swsetup_r+0x8e>
800047d6:	854a                	mv	a0,s2
800047d8:	5d5010ef          	jal	ra,800065ac <_free_r>
800047dc:	02042a23          	sw	zero,52(s0)
800047e0:	00c45783          	lhu	a5,12(s0)
800047e4:	00042223          	sw	zero,4(s0)
800047e8:	fdb7f793          	andi	a5,a5,-37
800047ec:	00f41623          	sh	a5,12(s0)
800047f0:	481c                	lw	a5,16(s0)
800047f2:	c01c                	sw	a5,0(s0)
800047f4:	00c45783          	lhu	a5,12(s0)
800047f8:	0087e793          	ori	a5,a5,8
800047fc:	00f41623          	sh	a5,12(s0)
80004800:	481c                	lw	a5,16(s0)
80004802:	ef89                	bnez	a5,8000481c <__swsetup_r+0xce>
80004804:	00c45783          	lhu	a5,12(s0)
80004808:	20000713          	li	a4,512
8000480c:	2807f793          	andi	a5,a5,640
80004810:	00e78663          	beq	a5,a4,8000481c <__swsetup_r+0xce>
80004814:	85a2                	mv	a1,s0
80004816:	854a                	mv	a0,s2
80004818:	278010ef          	jal	ra,80005a90 <__smakebuf_r>
8000481c:	00c41783          	lh	a5,12(s0)
80004820:	01079713          	slli	a4,a5,0x10
80004824:	0017f693          	andi	a3,a5,1
80004828:	8341                	srli	a4,a4,0x10
8000482a:	c29d                	beqz	a3,80004850 <__swsetup_r+0x102>
8000482c:	4854                	lw	a3,20(s0)
8000482e:	00042423          	sw	zero,8(s0)
80004832:	40d006b3          	neg	a3,a3
80004836:	cc14                	sw	a3,24(s0)
80004838:	4814                	lw	a3,16(s0)
8000483a:	4501                	li	a0,0
8000483c:	e681                	bnez	a3,80004844 <__swsetup_r+0xf6>
8000483e:	08077713          	andi	a4,a4,128
80004842:	ff21                	bnez	a4,8000479a <__swsetup_r+0x4c>
80004844:	40b2                	lw	ra,12(sp)
80004846:	4422                	lw	s0,8(sp)
80004848:	4492                	lw	s1,4(sp)
8000484a:	4902                	lw	s2,0(sp)
8000484c:	0141                	addi	sp,sp,16
8000484e:	8082                	ret
80004850:	00277693          	andi	a3,a4,2
80004854:	4601                	li	a2,0
80004856:	e291                	bnez	a3,8000485a <__swsetup_r+0x10c>
80004858:	4850                	lw	a2,20(s0)
8000485a:	c410                	sw	a2,8(s0)
8000485c:	bff1                	j	80004838 <__swsetup_r+0xea>

8000485e <__register_exitproc>:
__register_exitproc():
8000485e:	88aa                	mv	a7,a0
80004860:	86c18513          	addi	a0,gp,-1940 # 9000023c <_global_atexit>
80004864:	411c                	lw	a5,0(a0)
80004866:	ef81                	bnez	a5,8000487e <__register_exitproc+0x20>
80004868:	91018713          	addi	a4,gp,-1776 # 900002e0 <_global_atexit0>
8000486c:	c118                	sw	a4,0(a0)
8000486e:	00000513          	li	a0,0
80004872:	87ba                	mv	a5,a4
80004874:	c509                	beqz	a0,8000487e <__register_exitproc+0x20>
80004876:	411c                	lw	a5,0(a0)
80004878:	08f72423          	sw	a5,136(a4)
8000487c:	87ba                	mv	a5,a4
8000487e:	43d8                	lw	a4,4(a5)
80004880:	487d                	li	a6,31
80004882:	557d                	li	a0,-1
80004884:	04e84663          	blt	a6,a4,800048d0 <__register_exitproc+0x72>
80004888:	02088d63          	beqz	a7,800048c2 <__register_exitproc+0x64>
8000488c:	0887a803          	lw	a6,136(a5)
80004890:	04080063          	beqz	a6,800048d0 <__register_exitproc+0x72>
80004894:	00271513          	slli	a0,a4,0x2
80004898:	9542                	add	a0,a0,a6
8000489a:	c110                	sw	a2,0(a0)
8000489c:	10082303          	lw	t1,256(a6)
800048a0:	4605                	li	a2,1
800048a2:	00e61633          	sll	a2,a2,a4
800048a6:	00c36333          	or	t1,t1,a2
800048aa:	10682023          	sw	t1,256(a6)
800048ae:	08d52023          	sw	a3,128(a0)
800048b2:	4689                	li	a3,2
800048b4:	00d89763          	bne	a7,a3,800048c2 <__register_exitproc+0x64>
800048b8:	10482683          	lw	a3,260(a6)
800048bc:	8e55                	or	a2,a2,a3
800048be:	10c82223          	sw	a2,260(a6)
800048c2:	00170693          	addi	a3,a4,1
800048c6:	070a                	slli	a4,a4,0x2
800048c8:	c3d4                	sw	a3,4(a5)
800048ca:	97ba                	add	a5,a5,a4
800048cc:	c78c                	sw	a1,8(a5)
800048ce:	4501                	li	a0,0
800048d0:	8082                	ret

800048d2 <quorem>:
quorem():
800048d2:	1101                	addi	sp,sp,-32
800048d4:	cc22                	sw	s0,24(sp)
800048d6:	491c                	lw	a5,16(a0)
800048d8:	4980                	lw	s0,16(a1)
800048da:	ce06                	sw	ra,28(sp)
800048dc:	ca26                	sw	s1,20(sp)
800048de:	c84a                	sw	s2,16(sp)
800048e0:	c64e                	sw	s3,12(sp)
800048e2:	c452                	sw	s4,8(sp)
800048e4:	c256                	sw	s5,4(sp)
800048e6:	1087ca63          	blt	a5,s0,800049fa <quorem+0x128>
800048ea:	147d                	addi	s0,s0,-1
800048ec:	00241613          	slli	a2,s0,0x2
800048f0:	01458a13          	addi	s4,a1,20
800048f4:	00ca0ab3          	add	s5,s4,a2
800048f8:	01450993          	addi	s3,a0,20
800048fc:	000aa783          	lw	a5,0(s5)
80004900:	964e                	add	a2,a2,s3
80004902:	4218                	lw	a4,0(a2)
80004904:	0785                	addi	a5,a5,1
80004906:	892a                	mv	s2,a0
80004908:	02f754b3          	divu	s1,a4,a5
8000490c:	06f76263          	bltu	a4,a5,80004970 <quorem+0x9e>
80004910:	6541                	lui	a0,0x10
80004912:	8852                	mv	a6,s4
80004914:	88ce                	mv	a7,s3
80004916:	4301                	li	t1,0
80004918:	4e01                	li	t3,0
8000491a:	157d                	addi	a0,a0,-1
8000491c:	00082683          	lw	a3,0(a6)
80004920:	0891                	addi	a7,a7,4
80004922:	0811                	addi	a6,a6,4
80004924:	00a6f7b3          	and	a5,a3,a0
80004928:	82c1                	srli	a3,a3,0x10
8000492a:	029787b3          	mul	a5,a5,s1
8000492e:	029686b3          	mul	a3,a3,s1
80004932:	979a                	add	a5,a5,t1
80004934:	0107d713          	srli	a4,a5,0x10
80004938:	8fe9                	and	a5,a5,a0
8000493a:	40fe07b3          	sub	a5,t3,a5
8000493e:	96ba                	add	a3,a3,a4
80004940:	ffc8a703          	lw	a4,-4(a7)
80004944:	0106d313          	srli	t1,a3,0x10
80004948:	8ee9                	and	a3,a3,a0
8000494a:	00a77e33          	and	t3,a4,a0
8000494e:	97f2                	add	a5,a5,t3
80004950:	8341                	srli	a4,a4,0x10
80004952:	8f15                	sub	a4,a4,a3
80004954:	4107d693          	srai	a3,a5,0x10
80004958:	9736                	add	a4,a4,a3
8000495a:	41075e13          	srai	t3,a4,0x10
8000495e:	8fe9                	and	a5,a5,a0
80004960:	0742                	slli	a4,a4,0x10
80004962:	8fd9                	or	a5,a5,a4
80004964:	fef8ae23          	sw	a5,-4(a7)
80004968:	fb0afae3          	bgeu	s5,a6,8000491c <quorem+0x4a>
8000496c:	421c                	lw	a5,0(a2)
8000496e:	c7bd                	beqz	a5,800049dc <quorem+0x10a>
80004970:	854a                	mv	a0,s2
80004972:	183010ef          	jal	ra,800062f4 <__mcmp>
80004976:	04054663          	bltz	a0,800049c2 <quorem+0xf0>
8000497a:	66c1                	lui	a3,0x10
8000497c:	0485                	addi	s1,s1,1
8000497e:	864e                	mv	a2,s3
80004980:	4581                	li	a1,0
80004982:	16fd                	addi	a3,a3,-1
80004984:	000a2503          	lw	a0,0(s4)
80004988:	421c                	lw	a5,0(a2)
8000498a:	0611                	addi	a2,a2,4
8000498c:	00d57733          	and	a4,a0,a3
80004990:	8d99                	sub	a1,a1,a4
80004992:	00d7f733          	and	a4,a5,a3
80004996:	972e                	add	a4,a4,a1
80004998:	83c1                	srli	a5,a5,0x10
8000499a:	8141                	srli	a0,a0,0x10
8000499c:	41075593          	srai	a1,a4,0x10
800049a0:	8f89                	sub	a5,a5,a0
800049a2:	97ae                	add	a5,a5,a1
800049a4:	4107d593          	srai	a1,a5,0x10
800049a8:	8f75                	and	a4,a4,a3
800049aa:	07c2                	slli	a5,a5,0x10
800049ac:	8fd9                	or	a5,a5,a4
800049ae:	0a11                	addi	s4,s4,4
800049b0:	fef62e23          	sw	a5,-4(a2)
800049b4:	fd4af8e3          	bgeu	s5,s4,80004984 <quorem+0xb2>
800049b8:	00241793          	slli	a5,s0,0x2
800049bc:	97ce                	add	a5,a5,s3
800049be:	4398                	lw	a4,0(a5)
800049c0:	c71d                	beqz	a4,800049ee <quorem+0x11c>
800049c2:	8526                	mv	a0,s1
800049c4:	40f2                	lw	ra,28(sp)
800049c6:	4462                	lw	s0,24(sp)
800049c8:	44d2                	lw	s1,20(sp)
800049ca:	4942                	lw	s2,16(sp)
800049cc:	49b2                	lw	s3,12(sp)
800049ce:	4a22                	lw	s4,8(sp)
800049d0:	4a92                	lw	s5,4(sp)
800049d2:	6105                	addi	sp,sp,32
800049d4:	8082                	ret
800049d6:	421c                	lw	a5,0(a2)
800049d8:	e789                	bnez	a5,800049e2 <quorem+0x110>
800049da:	147d                	addi	s0,s0,-1
800049dc:	1671                	addi	a2,a2,-4
800049de:	fec9ece3          	bltu	s3,a2,800049d6 <quorem+0x104>
800049e2:	00892823          	sw	s0,16(s2)
800049e6:	b769                	j	80004970 <quorem+0x9e>
800049e8:	4398                	lw	a4,0(a5)
800049ea:	e709                	bnez	a4,800049f4 <quorem+0x122>
800049ec:	147d                	addi	s0,s0,-1
800049ee:	17f1                	addi	a5,a5,-4
800049f0:	fef9ece3          	bltu	s3,a5,800049e8 <quorem+0x116>
800049f4:	00892823          	sw	s0,16(s2)
800049f8:	b7e9                	j	800049c2 <quorem+0xf0>
800049fa:	4501                	li	a0,0
800049fc:	b7e1                	j	800049c4 <quorem+0xf2>

800049fe <_dtoa_r>:
_dtoa_r():
800049fe:	7135                	addi	sp,sp,-160
80004a00:	dc3e                	sw	a5,56(sp)
80004a02:	515c                	lw	a5,36(a0)
80004a04:	cd22                	sw	s0,152(sp)
80004a06:	cb26                	sw	s1,148(sp)
80004a08:	c94a                	sw	s2,144(sp)
80004a0a:	c74e                	sw	s3,140(sp)
80004a0c:	c356                	sw	s5,132(sp)
80004a0e:	c15a                	sw	s6,128(sp)
80004a10:	cf06                	sw	ra,156(sp)
80004a12:	c552                	sw	s4,136(sp)
80004a14:	dede                	sw	s7,124(sp)
80004a16:	dce2                	sw	s8,120(sp)
80004a18:	dae6                	sw	s9,116(sp)
80004a1a:	d8ea                	sw	s10,112(sp)
80004a1c:	d6ee                	sw	s11,108(sp)
80004a1e:	ca36                	sw	a3,20(sp)
80004a20:	d03a                	sw	a4,32(sp)
80004a22:	d246                	sw	a7,36(sp)
80004a24:	84aa                	mv	s1,a0
80004a26:	8aae                	mv	s5,a1
80004a28:	8432                	mv	s0,a2
80004a2a:	8942                	mv	s2,a6
80004a2c:	89ae                	mv	s3,a1
80004a2e:	8b32                	mv	s6,a2
80004a30:	eb9d                	bnez	a5,80004a66 <_dtoa_r+0x68>
80004a32:	4541                	li	a0,16
80004a34:	0fe010ef          	jal	ra,80005b32 <malloc>
80004a38:	d0c8                	sw	a0,36(s1)
80004a3a:	ed11                	bnez	a0,80004a56 <_dtoa_r+0x58>
80004a3c:	00005697          	auipc	a3,0x5
80004a40:	90868693          	addi	a3,a3,-1784 # 80009344 <__clz_tab+0x1a4>
80004a44:	4601                	li	a2,0
80004a46:	0ea00593          	li	a1,234
80004a4a:	00005517          	auipc	a0,0x5
80004a4e:	91250513          	addi	a0,a0,-1774 # 8000935c <__clz_tab+0x1bc>
80004a52:	0e4020ef          	jal	ra,80006b36 <__assert_func>
80004a56:	00052223          	sw	zero,4(a0)
80004a5a:	00052423          	sw	zero,8(a0)
80004a5e:	00052023          	sw	zero,0(a0)
80004a62:	00052623          	sw	zero,12(a0)
80004a66:	50dc                	lw	a5,36(s1)
80004a68:	438c                	lw	a1,0(a5)
80004a6a:	cd89                	beqz	a1,80004a84 <_dtoa_r+0x86>
80004a6c:	43d8                	lw	a4,4(a5)
80004a6e:	4785                	li	a5,1
80004a70:	8526                	mv	a0,s1
80004a72:	00e797b3          	sll	a5,a5,a4
80004a76:	c59c                	sw	a5,8(a1)
80004a78:	c1d8                	sw	a4,4(a1)
80004a7a:	312010ef          	jal	ra,80005d8c <_Bfree>
80004a7e:	50dc                	lw	a5,36(s1)
80004a80:	0007a023          	sw	zero,0(a5)
80004a84:	04045263          	bgez	s0,80004ac8 <_dtoa_r+0xca>
80004a88:	4785                	li	a5,1
80004a8a:	0406                	slli	s0,s0,0x1
80004a8c:	00f92023          	sw	a5,0(s2)
80004a90:	00145b13          	srli	s6,s0,0x1
80004a94:	7ff007b7          	lui	a5,0x7ff00
80004a98:	00fb7733          	and	a4,s6,a5
80004a9c:	06f71463          	bne	a4,a5,80004b04 <_dtoa_r+0x106>
80004aa0:	5762                	lw	a4,56(sp)
80004aa2:	6789                	lui	a5,0x2
80004aa4:	0b32                	slli	s6,s6,0xc
80004aa6:	70f78793          	addi	a5,a5,1807 # 270f <__stack_size+0x1f0f>
80004aaa:	00cb5b13          	srli	s6,s6,0xc
80004aae:	c31c                	sw	a5,0(a4)
80004ab0:	015b6ab3          	or	s5,s6,s5
80004ab4:	340a82e3          	beqz	s5,800055f8 <_dtoa_r+0xbfa>
80004ab8:	5792                	lw	a5,36(sp)
80004aba:	eb91                	bnez	a5,80004ace <_dtoa_r+0xd0>
80004abc:	00005797          	auipc	a5,0x5
80004ac0:	88478793          	addi	a5,a5,-1916 # 80009340 <__clz_tab+0x1a0>
80004ac4:	c63e                	sw	a5,12(sp)
80004ac6:	a839                	j	80004ae4 <_dtoa_r+0xe6>
80004ac8:	00092023          	sw	zero,0(s2)
80004acc:	b7e1                	j	80004a94 <_dtoa_r+0x96>
80004ace:	00005797          	auipc	a5,0x5
80004ad2:	87278793          	addi	a5,a5,-1934 # 80009340 <__clz_tab+0x1a0>
80004ad6:	c63e                	sw	a5,12(sp)
80004ad8:	00005797          	auipc	a5,0x5
80004adc:	86b78793          	addi	a5,a5,-1941 # 80009343 <__clz_tab+0x1a3>
80004ae0:	5712                	lw	a4,36(sp)
80004ae2:	c31c                	sw	a5,0(a4)
80004ae4:	40fa                	lw	ra,156(sp)
80004ae6:	446a                	lw	s0,152(sp)
80004ae8:	4532                	lw	a0,12(sp)
80004aea:	44da                	lw	s1,148(sp)
80004aec:	494a                	lw	s2,144(sp)
80004aee:	49ba                	lw	s3,140(sp)
80004af0:	4a2a                	lw	s4,136(sp)
80004af2:	4a9a                	lw	s5,132(sp)
80004af4:	4b0a                	lw	s6,128(sp)
80004af6:	5bf6                	lw	s7,124(sp)
80004af8:	5c66                	lw	s8,120(sp)
80004afa:	5cd6                	lw	s9,116(sp)
80004afc:	5d46                	lw	s10,112(sp)
80004afe:	5db6                	lw	s11,108(sp)
80004b00:	610d                	addi	sp,sp,160
80004b02:	8082                	ret
80004b04:	4601                	li	a2,0
80004b06:	4681                	li	a3,0
80004b08:	8556                	mv	a0,s5
80004b0a:	85da                	mv	a1,s6
80004b0c:	d656                	sw	s5,44(sp)
80004b0e:	d85a                	sw	s6,48(sp)
80004b10:	5b1020ef          	jal	ra,800078c0 <__eqdf2>
80004b14:	e105                	bnez	a0,80004b34 <_dtoa_r+0x136>
80004b16:	5762                	lw	a4,56(sp)
80004b18:	4785                	li	a5,1
80004b1a:	c31c                	sw	a5,0(a4)
80004b1c:	00004797          	auipc	a5,0x4
80004b20:	79478793          	addi	a5,a5,1940 # 800092b0 <__clz_tab+0x110>
80004b24:	c63e                	sw	a5,12(sp)
80004b26:	5792                	lw	a5,36(sp)
80004b28:	dfd5                	beqz	a5,80004ae4 <_dtoa_r+0xe6>
80004b2a:	00004797          	auipc	a5,0x4
80004b2e:	78778793          	addi	a5,a5,1927 # 800092b1 <__clz_tab+0x111>
80004b32:	b77d                	j	80004ae0 <_dtoa_r+0xe2>
80004b34:	08b8                	addi	a4,sp,88
80004b36:	08f4                	addi	a3,sp,92
80004b38:	865a                	mv	a2,s6
80004b3a:	85d6                	mv	a1,s5
80004b3c:	8526                	mv	a0,s1
80004b3e:	014b5913          	srli	s2,s6,0x14
80004b42:	147010ef          	jal	ra,80006488 <__d2b>
80004b46:	7ff97913          	andi	s2,s2,2047
80004b4a:	4a66                	lw	s4,88(sp)
80004b4c:	842a                	mv	s0,a0
80004b4e:	12090663          	beqz	s2,80004c7a <_dtoa_r+0x27c>
80004b52:	57c2                	lw	a5,48(sp)
80004b54:	5532                	lw	a0,44(sp)
80004b56:	c0190913          	addi	s2,s2,-1023
80004b5a:	00c79593          	slli	a1,a5,0xc
80004b5e:	81b1                	srli	a1,a1,0xc
80004b60:	3ff007b7          	lui	a5,0x3ff00
80004b64:	8ddd                	or	a1,a1,a5
80004b66:	c082                	sw	zero,64(sp)
80004b68:	0fffb797          	auipc	a5,0xfffb
80004b6c:	68078793          	addi	a5,a5,1664 # 900001e8 <_impure_ptr+0x10>
80004b70:	4390                	lw	a2,0(a5)
80004b72:	43d4                	lw	a3,4(a5)
80004b74:	344030ef          	jal	ra,80007eb8 <__subdf3>
80004b78:	0fffb797          	auipc	a5,0xfffb
80004b7c:	67878793          	addi	a5,a5,1656 # 900001f0 <_impure_ptr+0x18>
80004b80:	4390                	lw	a2,0(a5)
80004b82:	43d4                	lw	a3,4(a5)
80004b84:	6f3020ef          	jal	ra,80007a76 <__muldf3>
80004b88:	0fffb797          	auipc	a5,0xfffb
80004b8c:	67078793          	addi	a5,a5,1648 # 900001f8 <_impure_ptr+0x20>
80004b90:	4390                	lw	a2,0(a5)
80004b92:	43d4                	lw	a3,4(a5)
80004b94:	1e2020ef          	jal	ra,80006d76 <__adddf3>
80004b98:	8baa                	mv	s7,a0
80004b9a:	854a                	mv	a0,s2
80004b9c:	8aae                	mv	s5,a1
80004b9e:	1d1030ef          	jal	ra,8000856e <__floatsidf>
80004ba2:	0fffb797          	auipc	a5,0xfffb
80004ba6:	65e78793          	addi	a5,a5,1630 # 90000200 <_impure_ptr+0x28>
80004baa:	4390                	lw	a2,0(a5)
80004bac:	43d4                	lw	a3,4(a5)
80004bae:	6c9020ef          	jal	ra,80007a76 <__muldf3>
80004bb2:	862a                	mv	a2,a0
80004bb4:	86ae                	mv	a3,a1
80004bb6:	855e                	mv	a0,s7
80004bb8:	85d6                	mv	a1,s5
80004bba:	1bc020ef          	jal	ra,80006d76 <__adddf3>
80004bbe:	8baa                	mv	s7,a0
80004bc0:	8aae                	mv	s5,a1
80004bc2:	149030ef          	jal	ra,8000850a <__fixdfsi>
80004bc6:	8daa                	mv	s11,a0
80004bc8:	4601                	li	a2,0
80004bca:	4681                	li	a3,0
80004bcc:	855e                	mv	a0,s7
80004bce:	85d6                	mv	a1,s5
80004bd0:	601020ef          	jal	ra,800079d0 <__ledf2>
80004bd4:	00055b63          	bgez	a0,80004bea <_dtoa_r+0x1ec>
80004bd8:	856e                	mv	a0,s11
80004bda:	195030ef          	jal	ra,8000856e <__floatsidf>
80004bde:	865e                	mv	a2,s7
80004be0:	86d6                	mv	a3,s5
80004be2:	4df020ef          	jal	ra,800078c0 <__eqdf2>
80004be6:	c111                	beqz	a0,80004bea <_dtoa_r+0x1ec>
80004be8:	1dfd                	addi	s11,s11,-1
80004bea:	4705                	li	a4,1
80004bec:	47d9                	li	a5,22
80004bee:	da3a                	sw	a4,52(sp)
80004bf0:	03b7e363          	bltu	a5,s11,80004c16 <_dtoa_r+0x218>
80004bf4:	003d9713          	slli	a4,s11,0x3
80004bf8:	00005797          	auipc	a5,0x5
80004bfc:	8a878793          	addi	a5,a5,-1880 # 800094a0 <__mprec_tens>
80004c00:	97ba                	add	a5,a5,a4
80004c02:	4390                	lw	a2,0(a5)
80004c04:	43d4                	lw	a3,4(a5)
80004c06:	5532                	lw	a0,44(sp)
80004c08:	55c2                	lw	a1,48(sp)
80004c0a:	5c7020ef          	jal	ra,800079d0 <__ledf2>
80004c0e:	00055363          	bgez	a0,80004c14 <_dtoa_r+0x216>
80004c12:	1dfd                	addi	s11,s11,-1
80004c14:	da02                	sw	zero,52(sp)
80004c16:	412a0933          	sub	s2,s4,s2
80004c1a:	fff90c13          	addi	s8,s2,-1
80004c1e:	4b81                	li	s7,0
80004c20:	000c5663          	bgez	s8,80004c2c <_dtoa_r+0x22e>
80004c24:	4b85                	li	s7,1
80004c26:	412b8bb3          	sub	s7,s7,s2
80004c2a:	4c01                	li	s8,0
80004c2c:	080dc863          	bltz	s11,80004cbc <_dtoa_r+0x2be>
80004c30:	9c6e                	add	s8,s8,s11
80004c32:	d46e                	sw	s11,40(sp)
80004c34:	4c81                	li	s9,0
80004c36:	4752                	lw	a4,20(sp)
80004c38:	47a5                	li	a5,9
80004c3a:	0ee7e563          	bltu	a5,a4,80004d24 <_dtoa_r+0x326>
80004c3e:	4795                	li	a5,5
80004c40:	4905                	li	s2,1
80004c42:	00e7d663          	bge	a5,a4,80004c4e <_dtoa_r+0x250>
80004c46:	ffc70793          	addi	a5,a4,-4
80004c4a:	ca3e                	sw	a5,20(sp)
80004c4c:	4901                	li	s2,0
80004c4e:	4752                	lw	a4,20(sp)
80004c50:	4791                	li	a5,4
80004c52:	06f70b63          	beq	a4,a5,80004cc8 <_dtoa_r+0x2ca>
80004c56:	4795                	li	a5,5
80004c58:	0af70a63          	beq	a4,a5,80004d0c <_dtoa_r+0x30e>
80004c5c:	4789                	li	a5,2
80004c5e:	0af70563          	beq	a4,a5,80004d08 <_dtoa_r+0x30a>
80004c62:	478d                	li	a5,3
80004c64:	ce02                	sw	zero,28(sp)
80004c66:	0af70563          	beq	a4,a5,80004d10 <_dtoa_r+0x312>
80004c6a:	4785                	li	a5,1
80004c6c:	ce3e                	sw	a5,28(sp)
80004c6e:	57fd                	li	a5,-1
80004c70:	c83e                	sw	a5,16(sp)
80004c72:	5d7d                	li	s10,-1
80004c74:	47c9                	li	a5,18
80004c76:	d002                	sw	zero,32(sp)
80004c78:	a095                	j	80004cdc <_dtoa_r+0x2de>
80004c7a:	4976                	lw	s2,92(sp)
80004c7c:	02000793          	li	a5,32
80004c80:	9952                	add	s2,s2,s4
80004c82:	43290593          	addi	a1,s2,1074
80004c86:	02b7d663          	bge	a5,a1,80004cb2 <_dtoa_r+0x2b4>
80004c8a:	04000513          	li	a0,64
80004c8e:	8d0d                	sub	a0,a0,a1
80004c90:	41290593          	addi	a1,s2,1042
80004c94:	00ab1533          	sll	a0,s6,a0
80004c98:	00badab3          	srl	s5,s5,a1
80004c9c:	01556533          	or	a0,a0,s5
80004ca0:	135030ef          	jal	ra,800085d4 <__floatunsidf>
80004ca4:	fe1007b7          	lui	a5,0xfe100
80004ca8:	95be                	add	a1,a1,a5
80004caa:	4785                	li	a5,1
80004cac:	197d                	addi	s2,s2,-1
80004cae:	c0be                	sw	a5,64(sp)
80004cb0:	bd65                	j	80004b68 <_dtoa_r+0x16a>
80004cb2:	40b78533          	sub	a0,a5,a1
80004cb6:	00aa9533          	sll	a0,s5,a0
80004cba:	b7dd                	j	80004ca0 <_dtoa_r+0x2a2>
80004cbc:	41bb8bb3          	sub	s7,s7,s11
80004cc0:	41b00cb3          	neg	s9,s11
80004cc4:	d402                	sw	zero,40(sp)
80004cc6:	bf85                	j	80004c36 <_dtoa_r+0x238>
80004cc8:	4785                	li	a5,1
80004cca:	ce3e                	sw	a5,28(sp)
80004ccc:	5782                	lw	a5,32(sp)
80004cce:	04f04e63          	bgtz	a5,80004d2a <_dtoa_r+0x32c>
80004cd2:	4785                	li	a5,1
80004cd4:	4705                	li	a4,1
80004cd6:	c83e                	sw	a5,16(sp)
80004cd8:	4d05                	li	s10,1
80004cda:	d03a                	sw	a4,32(sp)
80004cdc:	50d4                	lw	a3,36(s1)
80004cde:	4711                	li	a4,4
80004ce0:	0006a223          	sw	zero,4(a3)
80004ce4:	01470613          	addi	a2,a4,20
80004ce8:	42cc                	lw	a1,4(a3)
80004cea:	04c7f463          	bgeu	a5,a2,80004d32 <_dtoa_r+0x334>
80004cee:	8526                	mv	a0,s1
80004cf0:	7ef000ef          	jal	ra,80005cde <_Balloc>
80004cf4:	c62a                	sw	a0,12(sp)
80004cf6:	e131                	bnez	a0,80004d3a <_dtoa_r+0x33c>
80004cf8:	00004697          	auipc	a3,0x4
80004cfc:	6b868693          	addi	a3,a3,1720 # 800093b0 <__clz_tab+0x210>
80004d00:	4601                	li	a2,0
80004d02:	1aa00593          	li	a1,426
80004d06:	b391                	j	80004a4a <_dtoa_r+0x4c>
80004d08:	ce02                	sw	zero,28(sp)
80004d0a:	b7c9                	j	80004ccc <_dtoa_r+0x2ce>
80004d0c:	4785                	li	a5,1
80004d0e:	ce3e                	sw	a5,28(sp)
80004d10:	5782                	lw	a5,32(sp)
80004d12:	97ee                	add	a5,a5,s11
80004d14:	c83e                	sw	a5,16(sp)
80004d16:	00178d13          	addi	s10,a5,1 # fe100001 <_sp+0x6e0f0001>
80004d1a:	87ea                	mv	a5,s10
80004d1c:	fda040e3          	bgtz	s10,80004cdc <_dtoa_r+0x2de>
80004d20:	4785                	li	a5,1
80004d22:	bf6d                	j	80004cdc <_dtoa_r+0x2de>
80004d24:	4905                	li	s2,1
80004d26:	ca02                	sw	zero,20(sp)
80004d28:	b789                	j	80004c6a <_dtoa_r+0x26c>
80004d2a:	5782                	lw	a5,32(sp)
80004d2c:	c83e                	sw	a5,16(sp)
80004d2e:	8d3e                	mv	s10,a5
80004d30:	b775                	j	80004cdc <_dtoa_r+0x2de>
80004d32:	0585                	addi	a1,a1,1
80004d34:	c2cc                	sw	a1,4(a3)
80004d36:	0706                	slli	a4,a4,0x1
80004d38:	b775                	j	80004ce4 <_dtoa_r+0x2e6>
80004d3a:	50dc                	lw	a5,36(s1)
80004d3c:	4732                	lw	a4,12(sp)
80004d3e:	c398                	sw	a4,0(a5)
80004d40:	47b9                	li	a5,14
80004d42:	13a7e863          	bltu	a5,s10,80004e72 <_dtoa_r+0x474>
80004d46:	12090663          	beqz	s2,80004e72 <_dtoa_r+0x474>
80004d4a:	1bb05a63          	blez	s11,80004efe <_dtoa_r+0x500>
80004d4e:	00fdf713          	andi	a4,s11,15
80004d52:	00371793          	slli	a5,a4,0x3
80004d56:	00004717          	auipc	a4,0x4
80004d5a:	74a70713          	addi	a4,a4,1866 # 800094a0 <__mprec_tens>
80004d5e:	973e                	add	a4,a4,a5
80004d60:	404dd913          	srai	s2,s11,0x4
80004d64:	431c                	lw	a5,0(a4)
80004d66:	00472a83          	lw	s5,4(a4)
80004d6a:	01097713          	andi	a4,s2,16
80004d6e:	4a09                	li	s4,2
80004d70:	c315                	beqz	a4,80004d94 <_dtoa_r+0x396>
80004d72:	00004717          	auipc	a4,0x4
80004d76:	70670713          	addi	a4,a4,1798 # 80009478 <__mprec_bigtens>
80004d7a:	5310                	lw	a2,32(a4)
80004d7c:	5354                	lw	a3,36(a4)
80004d7e:	5532                	lw	a0,44(sp)
80004d80:	55c2                	lw	a1,48(sp)
80004d82:	cc3e                	sw	a5,24(sp)
80004d84:	00f97913          	andi	s2,s2,15
80004d88:	5f8020ef          	jal	ra,80007380 <__divdf3>
80004d8c:	47e2                	lw	a5,24(sp)
80004d8e:	89aa                	mv	s3,a0
80004d90:	8b2e                	mv	s6,a1
80004d92:	4a0d                	li	s4,3
80004d94:	00004717          	auipc	a4,0x4
80004d98:	6e470713          	addi	a4,a4,1764 # 80009478 <__mprec_bigtens>
80004d9c:	12091f63          	bnez	s2,80004eda <_dtoa_r+0x4dc>
80004da0:	854e                	mv	a0,s3
80004da2:	863e                	mv	a2,a5
80004da4:	86d6                	mv	a3,s5
80004da6:	85da                	mv	a1,s6
80004da8:	5d8020ef          	jal	ra,80007380 <__divdf3>
80004dac:	89aa                	mv	s3,a0
80004dae:	8b2e                	mv	s6,a1
80004db0:	57d2                	lw	a5,52(sp)
80004db2:	1a078b63          	beqz	a5,80004f68 <_dtoa_r+0x56a>
80004db6:	0fffb797          	auipc	a5,0xfffb
80004dba:	45278793          	addi	a5,a5,1106 # 90000208 <_impure_ptr+0x30>
80004dbe:	4390                	lw	a2,0(a5)
80004dc0:	43d4                	lw	a3,4(a5)
80004dc2:	854e                	mv	a0,s3
80004dc4:	85da                	mv	a1,s6
80004dc6:	40b020ef          	jal	ra,800079d0 <__ledf2>
80004dca:	18055f63          	bgez	a0,80004f68 <_dtoa_r+0x56a>
80004dce:	1a0d0063          	beqz	s10,80004f6e <_dtoa_r+0x570>
80004dd2:	47c2                	lw	a5,16(sp)
80004dd4:	08f05d63          	blez	a5,80004e6e <_dtoa_r+0x470>
80004dd8:	fffd8793          	addi	a5,s11,-1
80004ddc:	cc3e                	sw	a5,24(sp)
80004dde:	0fffb797          	auipc	a5,0xfffb
80004de2:	43278793          	addi	a5,a5,1074 # 90000210 <_impure_ptr+0x38>
80004de6:	4390                	lw	a2,0(a5)
80004de8:	43d4                	lw	a3,4(a5)
80004dea:	854e                	mv	a0,s3
80004dec:	85da                	mv	a1,s6
80004dee:	489020ef          	jal	ra,80007a76 <__muldf3>
80004df2:	4842                	lw	a6,16(sp)
80004df4:	89aa                	mv	s3,a0
80004df6:	8b2e                	mv	s6,a1
80004df8:	0a05                	addi	s4,s4,1
80004dfa:	8552                	mv	a0,s4
80004dfc:	c4c2                	sw	a6,72(sp)
80004dfe:	de5a                	sw	s6,60(sp)
80004e00:	c2ce                	sw	s3,68(sp)
80004e02:	76c030ef          	jal	ra,8000856e <__floatsidf>
80004e06:	86da                	mv	a3,s6
80004e08:	864e                	mv	a2,s3
80004e0a:	46d020ef          	jal	ra,80007a76 <__muldf3>
80004e0e:	0fffb697          	auipc	a3,0xfffb
80004e12:	40a68693          	addi	a3,a3,1034 # 90000218 <_impure_ptr+0x40>
80004e16:	4290                	lw	a2,0(a3)
80004e18:	42d4                	lw	a3,4(a3)
80004e1a:	895a                	mv	s2,s6
80004e1c:	8ace                	mv	s5,s3
80004e1e:	759010ef          	jal	ra,80006d76 <__adddf3>
80004e22:	4826                	lw	a6,72(sp)
80004e24:	fcc008b7          	lui	a7,0xfcc00
80004e28:	8b2a                	mv	s6,a0
80004e2a:	00b88a33          	add	s4,a7,a1
80004e2e:	14081363          	bnez	a6,80004f74 <_dtoa_r+0x576>
80004e32:	0fffb697          	auipc	a3,0xfffb
80004e36:	3ee68693          	addi	a3,a3,1006 # 90000220 <_impure_ptr+0x48>
80004e3a:	4290                	lw	a2,0(a3)
80004e3c:	42d4                	lw	a3,4(a3)
80004e3e:	854e                	mv	a0,s3
80004e40:	85ca                	mv	a1,s2
80004e42:	076030ef          	jal	ra,80007eb8 <__subdf3>
80004e46:	865a                	mv	a2,s6
80004e48:	86d2                	mv	a3,s4
80004e4a:	89aa                	mv	s3,a0
80004e4c:	892e                	mv	s2,a1
80004e4e:	2dd020ef          	jal	ra,8000792a <__gedf2>
80004e52:	5aa04b63          	bgtz	a0,80005408 <_dtoa_r+0xa0a>
80004e56:	800007b7          	lui	a5,0x80000
80004e5a:	0147c7b3          	xor	a5,a5,s4
80004e5e:	865a                	mv	a2,s6
80004e60:	86be                	mv	a3,a5
80004e62:	854e                	mv	a0,s3
80004e64:	85ca                	mv	a1,s2
80004e66:	36b020ef          	jal	ra,800079d0 <__ledf2>
80004e6a:	58054c63          	bltz	a0,80005402 <_dtoa_r+0xa04>
80004e6e:	59b2                	lw	s3,44(sp)
80004e70:	5b42                	lw	s6,48(sp)
80004e72:	47f6                	lw	a5,92(sp)
80004e74:	3607c863          	bltz	a5,800051e4 <_dtoa_r+0x7e6>
80004e78:	4739                	li	a4,14
80004e7a:	37b74563          	blt	a4,s11,800051e4 <_dtoa_r+0x7e6>
80004e7e:	003d9713          	slli	a4,s11,0x3
80004e82:	00004797          	auipc	a5,0x4
80004e86:	61e78793          	addi	a5,a5,1566 # 800094a0 <__mprec_tens>
80004e8a:	97ba                	add	a5,a5,a4
80004e8c:	0007aa03          	lw	s4,0(a5)
80004e90:	0047aa83          	lw	s5,4(a5)
80004e94:	5782                	lw	a5,32(sp)
80004e96:	2607d163          	bgez	a5,800050f8 <_dtoa_r+0x6fa>
80004e9a:	25a04f63          	bgtz	s10,800050f8 <_dtoa_r+0x6fa>
80004e9e:	560d1263          	bnez	s10,80005402 <_dtoa_r+0xa04>
80004ea2:	0fffb797          	auipc	a5,0xfffb
80004ea6:	37e78793          	addi	a5,a5,894 # 90000220 <_impure_ptr+0x48>
80004eaa:	4390                	lw	a2,0(a5)
80004eac:	43d4                	lw	a3,4(a5)
80004eae:	8552                	mv	a0,s4
80004eb0:	85d6                	mv	a1,s5
80004eb2:	3c5020ef          	jal	ra,80007a76 <__muldf3>
80004eb6:	864e                	mv	a2,s3
80004eb8:	86da                	mv	a3,s6
80004eba:	271020ef          	jal	ra,8000792a <__gedf2>
80004ebe:	4a01                	li	s4,0
80004ec0:	4901                	li	s2,0
80004ec2:	50055863          	bgez	a0,800053d2 <_dtoa_r+0x9d4>
80004ec6:	47b2                	lw	a5,12(sp)
80004ec8:	4732                	lw	a4,12(sp)
80004eca:	0d85                	addi	s11,s11,1
80004ecc:	00178993          	addi	s3,a5,1
80004ed0:	03100793          	li	a5,49
80004ed4:	00f70023          	sb	a5,0(a4)
80004ed8:	a309                	j	800053da <_dtoa_r+0x9dc>
80004eda:	00197693          	andi	a3,s2,1
80004ede:	ce81                	beqz	a3,80004ef6 <_dtoa_r+0x4f8>
80004ee0:	4310                	lw	a2,0(a4)
80004ee2:	4354                	lw	a3,4(a4)
80004ee4:	853e                	mv	a0,a5
80004ee6:	85d6                	mv	a1,s5
80004ee8:	cc3a                	sw	a4,24(sp)
80004eea:	38d020ef          	jal	ra,80007a76 <__muldf3>
80004eee:	4762                	lw	a4,24(sp)
80004ef0:	0a05                	addi	s4,s4,1
80004ef2:	87aa                	mv	a5,a0
80004ef4:	8aae                	mv	s5,a1
80004ef6:	40195913          	srai	s2,s2,0x1
80004efa:	0721                	addi	a4,a4,8
80004efc:	b545                	j	80004d9c <_dtoa_r+0x39e>
80004efe:	4a09                	li	s4,2
80004f00:	ea0d88e3          	beqz	s11,80004db0 <_dtoa_r+0x3b2>
80004f04:	41b00933          	neg	s2,s11
80004f08:	00f97793          	andi	a5,s2,15
80004f0c:	00379713          	slli	a4,a5,0x3
80004f10:	00004797          	auipc	a5,0x4
80004f14:	59078793          	addi	a5,a5,1424 # 800094a0 <__mprec_tens>
80004f18:	97ba                	add	a5,a5,a4
80004f1a:	4390                	lw	a2,0(a5)
80004f1c:	43d4                	lw	a3,4(a5)
80004f1e:	5532                	lw	a0,44(sp)
80004f20:	55c2                	lw	a1,48(sp)
80004f22:	40495913          	srai	s2,s2,0x4
80004f26:	00004a97          	auipc	s5,0x4
80004f2a:	552a8a93          	addi	s5,s5,1362 # 80009478 <__mprec_bigtens>
80004f2e:	349020ef          	jal	ra,80007a76 <__muldf3>
80004f32:	87aa                	mv	a5,a0
80004f34:	89aa                	mv	s3,a0
80004f36:	8b2e                	mv	s6,a1
80004f38:	4701                	li	a4,0
80004f3a:	00091663          	bnez	s2,80004f46 <_dtoa_r+0x548>
80004f3e:	e60709e3          	beqz	a4,80004db0 <_dtoa_r+0x3b2>
80004f42:	89be                	mv	s3,a5
80004f44:	b5ad                	j	80004dae <_dtoa_r+0x3b0>
80004f46:	00197693          	andi	a3,s2,1
80004f4a:	ca99                	beqz	a3,80004f60 <_dtoa_r+0x562>
80004f4c:	000aa603          	lw	a2,0(s5)
80004f50:	004aa683          	lw	a3,4(s5)
80004f54:	853e                	mv	a0,a5
80004f56:	0a05                	addi	s4,s4,1
80004f58:	31f020ef          	jal	ra,80007a76 <__muldf3>
80004f5c:	87aa                	mv	a5,a0
80004f5e:	4705                	li	a4,1
80004f60:	40195913          	srai	s2,s2,0x1
80004f64:	0aa1                	addi	s5,s5,8
80004f66:	bfd1                	j	80004f3a <_dtoa_r+0x53c>
80004f68:	cc6e                	sw	s11,24(sp)
80004f6a:	886a                	mv	a6,s10
80004f6c:	b579                	j	80004dfa <_dtoa_r+0x3fc>
80004f6e:	cc6e                	sw	s11,24(sp)
80004f70:	4801                	li	a6,0
80004f72:	b561                	j	80004dfa <_dtoa_r+0x3fc>
80004f74:	fff80793          	addi	a5,a6,-1
80004f78:	00379713          	slli	a4,a5,0x3
80004f7c:	00004797          	auipc	a5,0x4
80004f80:	52478793          	addi	a5,a5,1316 # 800094a0 <__mprec_tens>
80004f84:	97ba                	add	a5,a5,a4
80004f86:	4390                	lw	a2,0(a5)
80004f88:	43d4                	lw	a3,4(a5)
80004f8a:	47b2                	lw	a5,12(sp)
80004f8c:	97c2                	add	a5,a5,a6
80004f8e:	de3e                	sw	a5,60(sp)
80004f90:	47f2                	lw	a5,28(sp)
80004f92:	cbc5                	beqz	a5,80005042 <_dtoa_r+0x644>
80004f94:	0fffb797          	auipc	a5,0xfffb
80004f98:	29478793          	addi	a5,a5,660 # 90000228 <_impure_ptr+0x50>
80004f9c:	43cc                	lw	a1,4(a5)
80004f9e:	c2aa                	sw	a0,68(sp)
80004fa0:	4388                	lw	a0,0(a5)
80004fa2:	3de020ef          	jal	ra,80007380 <__divdf3>
80004fa6:	865a                	mv	a2,s6
80004fa8:	86d2                	mv	a3,s4
80004faa:	70f020ef          	jal	ra,80007eb8 <__subdf3>
80004fae:	49b2                	lw	s3,12(sp)
80004fb0:	8a2a                	mv	s4,a0
80004fb2:	8b2e                	mv	s6,a1
80004fb4:	85ca                	mv	a1,s2
80004fb6:	8556                	mv	a0,s5
80004fb8:	552030ef          	jal	ra,8000850a <__fixdfsi>
80004fbc:	c2aa                	sw	a0,68(sp)
80004fbe:	5b0030ef          	jal	ra,8000856e <__floatsidf>
80004fc2:	862a                	mv	a2,a0
80004fc4:	86ae                	mv	a3,a1
80004fc6:	8556                	mv	a0,s5
80004fc8:	85ca                	mv	a1,s2
80004fca:	6ef020ef          	jal	ra,80007eb8 <__subdf3>
80004fce:	4796                	lw	a5,68(sp)
80004fd0:	0985                	addi	s3,s3,1
80004fd2:	8652                	mv	a2,s4
80004fd4:	03078793          	addi	a5,a5,48
80004fd8:	fef98fa3          	sb	a5,-1(s3)
80004fdc:	86da                	mv	a3,s6
80004fde:	892a                	mv	s2,a0
80004fe0:	8aae                	mv	s5,a1
80004fe2:	1ef020ef          	jal	ra,800079d0 <__ledf2>
80004fe6:	0e054c63          	bltz	a0,800050de <_dtoa_r+0x6e0>
80004fea:	0fffb797          	auipc	a5,0xfffb
80004fee:	21e78793          	addi	a5,a5,542 # 90000208 <_impure_ptr+0x30>
80004ff2:	4388                	lw	a0,0(a5)
80004ff4:	43cc                	lw	a1,4(a5)
80004ff6:	864a                	mv	a2,s2
80004ff8:	86d6                	mv	a3,s5
80004ffa:	6bf020ef          	jal	ra,80007eb8 <__subdf3>
80004ffe:	8652                	mv	a2,s4
80005000:	86da                	mv	a3,s6
80005002:	1cf020ef          	jal	ra,800079d0 <__ledf2>
80005006:	18054763          	bltz	a0,80005194 <_dtoa_r+0x796>
8000500a:	57f2                	lw	a5,60(sp)
8000500c:	e6f981e3          	beq	s3,a5,80004e6e <_dtoa_r+0x470>
80005010:	0fffb797          	auipc	a5,0xfffb
80005014:	20078793          	addi	a5,a5,512 # 90000210 <_impure_ptr+0x38>
80005018:	4390                	lw	a2,0(a5)
8000501a:	43d4                	lw	a3,4(a5)
8000501c:	8552                	mv	a0,s4
8000501e:	85da                	mv	a1,s6
80005020:	257020ef          	jal	ra,80007a76 <__muldf3>
80005024:	0fffb797          	auipc	a5,0xfffb
80005028:	1ec78793          	addi	a5,a5,492 # 90000210 <_impure_ptr+0x38>
8000502c:	4390                	lw	a2,0(a5)
8000502e:	43d4                	lw	a3,4(a5)
80005030:	8a2a                	mv	s4,a0
80005032:	8b2e                	mv	s6,a1
80005034:	854a                	mv	a0,s2
80005036:	85d6                	mv	a1,s5
80005038:	23f020ef          	jal	ra,80007a76 <__muldf3>
8000503c:	8aaa                	mv	s5,a0
8000503e:	892e                	mv	s2,a1
80005040:	bf95                	j	80004fb4 <_dtoa_r+0x5b6>
80005042:	85d2                	mv	a1,s4
80005044:	233020ef          	jal	ra,80007a76 <__muldf3>
80005048:	57f2                	lw	a5,60(sp)
8000504a:	49b2                	lw	s3,12(sp)
8000504c:	c4aa                	sw	a0,72(sp)
8000504e:	8b2e                	mv	s6,a1
80005050:	c2be                	sw	a5,68(sp)
80005052:	85ca                	mv	a1,s2
80005054:	8556                	mv	a0,s5
80005056:	4b4030ef          	jal	ra,8000850a <__fixdfsi>
8000505a:	c6aa                	sw	a0,76(sp)
8000505c:	512030ef          	jal	ra,8000856e <__floatsidf>
80005060:	862a                	mv	a2,a0
80005062:	86ae                	mv	a3,a1
80005064:	8556                	mv	a0,s5
80005066:	85ca                	mv	a1,s2
80005068:	651020ef          	jal	ra,80007eb8 <__subdf3>
8000506c:	47b6                	lw	a5,76(sp)
8000506e:	0985                	addi	s3,s3,1
80005070:	8a2a                	mv	s4,a0
80005072:	03078793          	addi	a5,a5,48
80005076:	fef98fa3          	sb	a5,-1(s3)
8000507a:	57f2                	lw	a5,60(sp)
8000507c:	892e                	mv	s2,a1
8000507e:	06f99263          	bne	s3,a5,800050e2 <_dtoa_r+0x6e4>
80005082:	0fffba97          	auipc	s5,0xfffb
80005086:	1a6a8a93          	addi	s5,s5,422 # 90000228 <_impure_ptr+0x50>
8000508a:	000aa603          	lw	a2,0(s5)
8000508e:	004aa683          	lw	a3,4(s5)
80005092:	4526                	lw	a0,72(sp)
80005094:	85da                	mv	a1,s6
80005096:	4e1010ef          	jal	ra,80006d76 <__adddf3>
8000509a:	862a                	mv	a2,a0
8000509c:	86ae                	mv	a3,a1
8000509e:	8552                	mv	a0,s4
800050a0:	85ca                	mv	a1,s2
800050a2:	089020ef          	jal	ra,8000792a <__gedf2>
800050a6:	0ea04763          	bgtz	a0,80005194 <_dtoa_r+0x796>
800050aa:	4626                	lw	a2,72(sp)
800050ac:	000aa503          	lw	a0,0(s5)
800050b0:	004aa583          	lw	a1,4(s5)
800050b4:	86da                	mv	a3,s6
800050b6:	603020ef          	jal	ra,80007eb8 <__subdf3>
800050ba:	862a                	mv	a2,a0
800050bc:	86ae                	mv	a3,a1
800050be:	8552                	mv	a0,s4
800050c0:	85ca                	mv	a1,s2
800050c2:	10f020ef          	jal	ra,800079d0 <__ledf2>
800050c6:	da0554e3          	bgez	a0,80004e6e <_dtoa_r+0x470>
800050ca:	03000793          	li	a5,48
800050ce:	4996                	lw	s3,68(sp)
800050d0:	fff98713          	addi	a4,s3,-1
800050d4:	c2ba                	sw	a4,68(sp)
800050d6:	fff9c703          	lbu	a4,-1(s3)
800050da:	fef70ae3          	beq	a4,a5,800050ce <_dtoa_r+0x6d0>
800050de:	4de2                	lw	s11,24(sp)
800050e0:	a849                	j	80005172 <_dtoa_r+0x774>
800050e2:	0fffb797          	auipc	a5,0xfffb
800050e6:	12e78793          	addi	a5,a5,302 # 90000210 <_impure_ptr+0x38>
800050ea:	4390                	lw	a2,0(a5)
800050ec:	43d4                	lw	a3,4(a5)
800050ee:	189020ef          	jal	ra,80007a76 <__muldf3>
800050f2:	8aaa                	mv	s5,a0
800050f4:	892e                	mv	s2,a1
800050f6:	bfb1                	j	80005052 <_dtoa_r+0x654>
800050f8:	47b2                	lw	a5,12(sp)
800050fa:	8c5a                	mv	s8,s6
800050fc:	8cce                	mv	s9,s3
800050fe:	00178b13          	addi	s6,a5,1
80005102:	9d3e                	add	s10,s10,a5
80005104:	0fffbb97          	auipc	s7,0xfffb
80005108:	10cb8b93          	addi	s7,s7,268 # 90000210 <_impure_ptr+0x38>
8000510c:	8652                	mv	a2,s4
8000510e:	86d6                	mv	a3,s5
80005110:	8566                	mv	a0,s9
80005112:	85e2                	mv	a1,s8
80005114:	26c020ef          	jal	ra,80007380 <__divdf3>
80005118:	3f2030ef          	jal	ra,8000850a <__fixdfsi>
8000511c:	892a                	mv	s2,a0
8000511e:	450030ef          	jal	ra,8000856e <__floatsidf>
80005122:	8652                	mv	a2,s4
80005124:	86d6                	mv	a3,s5
80005126:	151020ef          	jal	ra,80007a76 <__muldf3>
8000512a:	86ae                	mv	a3,a1
8000512c:	862a                	mv	a2,a0
8000512e:	85e2                	mv	a1,s8
80005130:	8566                	mv	a0,s9
80005132:	587020ef          	jal	ra,80007eb8 <__subdf3>
80005136:	03090693          	addi	a3,s2,48
8000513a:	fedb0fa3          	sb	a3,-1(s6)
8000513e:	89da                	mv	s3,s6
80005140:	096d1363          	bne	s10,s6,800051c6 <_dtoa_r+0x7c8>
80005144:	862a                	mv	a2,a0
80005146:	86ae                	mv	a3,a1
80005148:	42f010ef          	jal	ra,80006d76 <__adddf3>
8000514c:	8652                	mv	a2,s4
8000514e:	86d6                	mv	a3,s5
80005150:	8baa                	mv	s7,a0
80005152:	8b2e                	mv	s6,a1
80005154:	7d6020ef          	jal	ra,8000792a <__gedf2>
80005158:	02a04d63          	bgtz	a0,80005192 <_dtoa_r+0x794>
8000515c:	8652                	mv	a2,s4
8000515e:	86d6                	mv	a3,s5
80005160:	855e                	mv	a0,s7
80005162:	85da                	mv	a1,s6
80005164:	75c020ef          	jal	ra,800078c0 <__eqdf2>
80005168:	e509                	bnez	a0,80005172 <_dtoa_r+0x774>
8000516a:	00197913          	andi	s2,s2,1
8000516e:	02091263          	bnez	s2,80005192 <_dtoa_r+0x794>
80005172:	8526                	mv	a0,s1
80005174:	85a2                	mv	a1,s0
80005176:	417000ef          	jal	ra,80005d8c <_Bfree>
8000517a:	57e2                	lw	a5,56(sp)
8000517c:	00098023          	sb	zero,0(s3)
80005180:	001d8513          	addi	a0,s11,1
80005184:	c388                	sw	a0,0(a5)
80005186:	5792                	lw	a5,36(sp)
80005188:	94078ee3          	beqz	a5,80004ae4 <_dtoa_r+0xe6>
8000518c:	0137a023          	sw	s3,0(a5)
80005190:	ba91                	j	80004ae4 <_dtoa_r+0xe6>
80005192:	cc6e                	sw	s11,24(sp)
80005194:	87ce                	mv	a5,s3
80005196:	03900713          	li	a4,57
8000519a:	89be                	mv	s3,a5
8000519c:	fff7c683          	lbu	a3,-1(a5)
800051a0:	17fd                	addi	a5,a5,-1
800051a2:	00e69c63          	bne	a3,a4,800051ba <_dtoa_r+0x7bc>
800051a6:	46b2                	lw	a3,12(sp)
800051a8:	fef699e3          	bne	a3,a5,8000519a <_dtoa_r+0x79c>
800051ac:	4762                	lw	a4,24(sp)
800051ae:	0705                	addi	a4,a4,1
800051b0:	cc3a                	sw	a4,24(sp)
800051b2:	03000713          	li	a4,48
800051b6:	00e68023          	sb	a4,0(a3)
800051ba:	0007c703          	lbu	a4,0(a5)
800051be:	0705                	addi	a4,a4,1
800051c0:	00e78023          	sb	a4,0(a5)
800051c4:	bf29                	j	800050de <_dtoa_r+0x6e0>
800051c6:	000ba603          	lw	a2,0(s7)
800051ca:	004ba683          	lw	a3,4(s7)
800051ce:	0b05                	addi	s6,s6,1
800051d0:	0a7020ef          	jal	ra,80007a76 <__muldf3>
800051d4:	4601                	li	a2,0
800051d6:	4681                	li	a3,0
800051d8:	8caa                	mv	s9,a0
800051da:	8c2e                	mv	s8,a1
800051dc:	6e4020ef          	jal	ra,800078c0 <__eqdf2>
800051e0:	f515                	bnez	a0,8000510c <_dtoa_r+0x70e>
800051e2:	bf41                	j	80005172 <_dtoa_r+0x774>
800051e4:	4772                	lw	a4,28(sp)
800051e6:	10070063          	beqz	a4,800052e6 <_dtoa_r+0x8e8>
800051ea:	46d2                	lw	a3,20(sp)
800051ec:	4705                	li	a4,1
800051ee:	0cd74563          	blt	a4,a3,800052b8 <_dtoa_r+0x8ba>
800051f2:	4706                	lw	a4,64(sp)
800051f4:	43378793          	addi	a5,a5,1075
800051f8:	e709                	bnez	a4,80005202 <_dtoa_r+0x804>
800051fa:	4766                	lw	a4,88(sp)
800051fc:	03600793          	li	a5,54
80005200:	8f99                	sub	a5,a5,a4
80005202:	8a66                	mv	s4,s9
80005204:	8ade                	mv	s5,s7
80005206:	4585                	li	a1,1
80005208:	8526                	mv	a0,s1
8000520a:	9bbe                	add	s7,s7,a5
8000520c:	9c3e                	add	s8,s8,a5
8000520e:	551000ef          	jal	ra,80005f5e <__i2b>
80005212:	892a                	mv	s2,a0
80005214:	01505e63          	blez	s5,80005230 <_dtoa_r+0x832>
80005218:	01805c63          	blez	s8,80005230 <_dtoa_r+0x832>
8000521c:	87d6                	mv	a5,s5
8000521e:	015c5363          	bge	s8,s5,80005224 <_dtoa_r+0x826>
80005222:	87e2                	mv	a5,s8
80005224:	40fb8bb3          	sub	s7,s7,a5
80005228:	40fa8ab3          	sub	s5,s5,a5
8000522c:	40fc0c33          	sub	s8,s8,a5
80005230:	040c8163          	beqz	s9,80005272 <_dtoa_r+0x874>
80005234:	47f2                	lw	a5,28(sp)
80005236:	cfc5                	beqz	a5,800052ee <_dtoa_r+0x8f0>
80005238:	03405463          	blez	s4,80005260 <_dtoa_r+0x862>
8000523c:	85ca                	mv	a1,s2
8000523e:	8652                	mv	a2,s4
80005240:	8526                	mv	a0,s1
80005242:	6d5000ef          	jal	ra,80006116 <__pow5mult>
80005246:	8622                	mv	a2,s0
80005248:	85aa                	mv	a1,a0
8000524a:	892a                	mv	s2,a0
8000524c:	8526                	mv	a0,s1
8000524e:	549000ef          	jal	ra,80005f96 <__multiply>
80005252:	cc2a                	sw	a0,24(sp)
80005254:	85a2                	mv	a1,s0
80005256:	8526                	mv	a0,s1
80005258:	335000ef          	jal	ra,80005d8c <_Bfree>
8000525c:	47e2                	lw	a5,24(sp)
8000525e:	843e                	mv	s0,a5
80005260:	414c8633          	sub	a2,s9,s4
80005264:	014c8763          	beq	s9,s4,80005272 <_dtoa_r+0x874>
80005268:	85a2                	mv	a1,s0
8000526a:	8526                	mv	a0,s1
8000526c:	6ab000ef          	jal	ra,80006116 <__pow5mult>
80005270:	842a                	mv	s0,a0
80005272:	4585                	li	a1,1
80005274:	8526                	mv	a0,s1
80005276:	4e9000ef          	jal	ra,80005f5e <__i2b>
8000527a:	57a2                	lw	a5,40(sp)
8000527c:	8a2a                	mv	s4,a0
8000527e:	06f05a63          	blez	a5,800052f2 <_dtoa_r+0x8f4>
80005282:	863e                	mv	a2,a5
80005284:	85aa                	mv	a1,a0
80005286:	8526                	mv	a0,s1
80005288:	68f000ef          	jal	ra,80006116 <__pow5mult>
8000528c:	4752                	lw	a4,20(sp)
8000528e:	4785                	li	a5,1
80005290:	8a2a                	mv	s4,a0
80005292:	4c81                	li	s9,0
80005294:	06e7c763          	blt	a5,a4,80005302 <_dtoa_r+0x904>
80005298:	4c81                	li	s9,0
8000529a:	06099163          	bnez	s3,800052fc <_dtoa_r+0x8fe>
8000529e:	00cb1793          	slli	a5,s6,0xc
800052a2:	efa9                	bnez	a5,800052fc <_dtoa_r+0x8fe>
800052a4:	7ff005b7          	lui	a1,0x7ff00
800052a8:	00bb7b33          	and	s6,s6,a1
800052ac:	040b0863          	beqz	s6,800052fc <_dtoa_r+0x8fe>
800052b0:	0b85                	addi	s7,s7,1
800052b2:	0c05                	addi	s8,s8,1
800052b4:	4c85                	li	s9,1
800052b6:	a099                	j	800052fc <_dtoa_r+0x8fe>
800052b8:	fffd0a13          	addi	s4,s10,-1
800052bc:	014cca63          	blt	s9,s4,800052d0 <_dtoa_r+0x8d2>
800052c0:	414c8a33          	sub	s4,s9,s4
800052c4:	000d5e63          	bgez	s10,800052e0 <_dtoa_r+0x8e2>
800052c8:	41ab8ab3          	sub	s5,s7,s10
800052cc:	4781                	li	a5,0
800052ce:	bf25                	j	80005206 <_dtoa_r+0x808>
800052d0:	57a2                	lw	a5,40(sp)
800052d2:	419a0cb3          	sub	s9,s4,s9
800052d6:	97e6                	add	a5,a5,s9
800052d8:	d43e                	sw	a5,40(sp)
800052da:	8cd2                	mv	s9,s4
800052dc:	4a01                	li	s4,0
800052de:	b7dd                	j	800052c4 <_dtoa_r+0x8c6>
800052e0:	8ade                	mv	s5,s7
800052e2:	87ea                	mv	a5,s10
800052e4:	b70d                	j	80005206 <_dtoa_r+0x808>
800052e6:	8a66                	mv	s4,s9
800052e8:	8ade                	mv	s5,s7
800052ea:	4901                	li	s2,0
800052ec:	b725                	j	80005214 <_dtoa_r+0x816>
800052ee:	8666                	mv	a2,s9
800052f0:	bfa5                	j	80005268 <_dtoa_r+0x86a>
800052f2:	4752                	lw	a4,20(sp)
800052f4:	4785                	li	a5,1
800052f6:	4c81                	li	s9,0
800052f8:	fae7d0e3          	bge	a5,a4,80005298 <_dtoa_r+0x89a>
800052fc:	57a2                	lw	a5,40(sp)
800052fe:	4505                	li	a0,1
80005300:	cf89                	beqz	a5,8000531a <_dtoa_r+0x91c>
80005302:	010a2783          	lw	a5,16(s4)
80005306:	078d                	addi	a5,a5,3
80005308:	078a                	slli	a5,a5,0x2
8000530a:	97d2                	add	a5,a5,s4
8000530c:	43c8                	lw	a0,4(a5)
8000530e:	3a1000ef          	jal	ra,80005eae <__hi0bits>
80005312:	02000793          	li	a5,32
80005316:	40a78533          	sub	a0,a5,a0
8000531a:	9562                	add	a0,a0,s8
8000531c:	897d                	andi	a0,a0,31
8000531e:	c151                	beqz	a0,800053a2 <_dtoa_r+0x9a4>
80005320:	02000793          	li	a5,32
80005324:	8f89                	sub	a5,a5,a0
80005326:	4711                	li	a4,4
80005328:	06f75a63          	bge	a4,a5,8000539c <_dtoa_r+0x99e>
8000532c:	47f1                	li	a5,28
8000532e:	40a78533          	sub	a0,a5,a0
80005332:	9baa                	add	s7,s7,a0
80005334:	9aaa                	add	s5,s5,a0
80005336:	9c2a                	add	s8,s8,a0
80005338:	01705863          	blez	s7,80005348 <_dtoa_r+0x94a>
8000533c:	85a2                	mv	a1,s0
8000533e:	865e                	mv	a2,s7
80005340:	8526                	mv	a0,s1
80005342:	6af000ef          	jal	ra,800061f0 <__lshift>
80005346:	842a                	mv	s0,a0
80005348:	01805863          	blez	s8,80005358 <_dtoa_r+0x95a>
8000534c:	85d2                	mv	a1,s4
8000534e:	8662                	mv	a2,s8
80005350:	8526                	mv	a0,s1
80005352:	69f000ef          	jal	ra,800061f0 <__lshift>
80005356:	8a2a                	mv	s4,a0
80005358:	57d2                	lw	a5,52(sp)
8000535a:	c7b1                	beqz	a5,800053a6 <_dtoa_r+0x9a8>
8000535c:	85d2                	mv	a1,s4
8000535e:	8522                	mv	a0,s0
80005360:	795000ef          	jal	ra,800062f4 <__mcmp>
80005364:	04055163          	bgez	a0,800053a6 <_dtoa_r+0x9a8>
80005368:	85a2                	mv	a1,s0
8000536a:	4681                	li	a3,0
8000536c:	4629                	li	a2,10
8000536e:	8526                	mv	a0,s1
80005370:	27f000ef          	jal	ra,80005dee <__multadd>
80005374:	47f2                	lw	a5,28(sp)
80005376:	1dfd                	addi	s11,s11,-1
80005378:	842a                	mv	s0,a0
8000537a:	28078d63          	beqz	a5,80005614 <_dtoa_r+0xc16>
8000537e:	85ca                	mv	a1,s2
80005380:	4681                	li	a3,0
80005382:	4629                	li	a2,10
80005384:	8526                	mv	a0,s1
80005386:	269000ef          	jal	ra,80005dee <__multadd>
8000538a:	47c2                	lw	a5,16(sp)
8000538c:	892a                	mv	s2,a0
8000538e:	08f04563          	bgtz	a5,80005418 <_dtoa_r+0xa1a>
80005392:	4752                	lw	a4,20(sp)
80005394:	4789                	li	a5,2
80005396:	00e7cf63          	blt	a5,a4,800053b4 <_dtoa_r+0x9b6>
8000539a:	a8bd                	j	80005418 <_dtoa_r+0xa1a>
8000539c:	f8e78ee3          	beq	a5,a4,80005338 <_dtoa_r+0x93a>
800053a0:	853e                	mv	a0,a5
800053a2:	0571                	addi	a0,a0,28
800053a4:	b779                	j	80005332 <_dtoa_r+0x934>
800053a6:	07a04563          	bgtz	s10,80005410 <_dtoa_r+0xa12>
800053aa:	4752                	lw	a4,20(sp)
800053ac:	4789                	li	a5,2
800053ae:	06e7d163          	bge	a5,a4,80005410 <_dtoa_r+0xa12>
800053b2:	c86a                	sw	s10,16(sp)
800053b4:	47c2                	lw	a5,16(sp)
800053b6:	ef91                	bnez	a5,800053d2 <_dtoa_r+0x9d4>
800053b8:	85d2                	mv	a1,s4
800053ba:	4681                	li	a3,0
800053bc:	4615                	li	a2,5
800053be:	8526                	mv	a0,s1
800053c0:	22f000ef          	jal	ra,80005dee <__multadd>
800053c4:	8a2a                	mv	s4,a0
800053c6:	85aa                	mv	a1,a0
800053c8:	8522                	mv	a0,s0
800053ca:	72b000ef          	jal	ra,800062f4 <__mcmp>
800053ce:	aea04ce3          	bgtz	a0,80004ec6 <_dtoa_r+0x4c8>
800053d2:	5782                	lw	a5,32(sp)
800053d4:	49b2                	lw	s3,12(sp)
800053d6:	fff7cd93          	not	s11,a5
800053da:	4b01                	li	s6,0
800053dc:	85d2                	mv	a1,s4
800053de:	8526                	mv	a0,s1
800053e0:	1ad000ef          	jal	ra,80005d8c <_Bfree>
800053e4:	d80907e3          	beqz	s2,80005172 <_dtoa_r+0x774>
800053e8:	000b0863          	beqz	s6,800053f8 <_dtoa_r+0x9fa>
800053ec:	012b0663          	beq	s6,s2,800053f8 <_dtoa_r+0x9fa>
800053f0:	85da                	mv	a1,s6
800053f2:	8526                	mv	a0,s1
800053f4:	199000ef          	jal	ra,80005d8c <_Bfree>
800053f8:	85ca                	mv	a1,s2
800053fa:	8526                	mv	a0,s1
800053fc:	191000ef          	jal	ra,80005d8c <_Bfree>
80005400:	bb8d                	j	80005172 <_dtoa_r+0x774>
80005402:	4a01                	li	s4,0
80005404:	4901                	li	s2,0
80005406:	b7f1                	j	800053d2 <_dtoa_r+0x9d4>
80005408:	4de2                	lw	s11,24(sp)
8000540a:	4a01                	li	s4,0
8000540c:	4901                	li	s2,0
8000540e:	bc65                	j	80004ec6 <_dtoa_r+0x4c8>
80005410:	47f2                	lw	a5,28(sp)
80005412:	c86a                	sw	s10,16(sp)
80005414:	20078763          	beqz	a5,80005622 <_dtoa_r+0xc24>
80005418:	01505863          	blez	s5,80005428 <_dtoa_r+0xa2a>
8000541c:	85ca                	mv	a1,s2
8000541e:	8656                	mv	a2,s5
80005420:	8526                	mv	a0,s1
80005422:	5cf000ef          	jal	ra,800061f0 <__lshift>
80005426:	892a                	mv	s2,a0
80005428:	854a                	mv	a0,s2
8000542a:	040c8063          	beqz	s9,8000546a <_dtoa_r+0xa6c>
8000542e:	00492583          	lw	a1,4(s2)
80005432:	8526                	mv	a0,s1
80005434:	0ab000ef          	jal	ra,80005cde <_Balloc>
80005438:	8aaa                	mv	s5,a0
8000543a:	e911                	bnez	a0,8000544e <_dtoa_r+0xa50>
8000543c:	00004697          	auipc	a3,0x4
80005440:	f7468693          	addi	a3,a3,-140 # 800093b0 <__clz_tab+0x210>
80005444:	4601                	li	a2,0
80005446:	2ea00593          	li	a1,746
8000544a:	e00ff06f          	j	80004a4a <_dtoa_r+0x4c>
8000544e:	01092603          	lw	a2,16(s2)
80005452:	00c90593          	addi	a1,s2,12
80005456:	0531                	addi	a0,a0,12
80005458:	0609                	addi	a2,a2,2
8000545a:	060a                	slli	a2,a2,0x2
8000545c:	6fe000ef          	jal	ra,80005b5a <memcpy>
80005460:	4605                	li	a2,1
80005462:	85d6                	mv	a1,s5
80005464:	8526                	mv	a0,s1
80005466:	58b000ef          	jal	ra,800061f0 <__lshift>
8000546a:	47b2                	lw	a5,12(sp)
8000546c:	4742                	lw	a4,16(sp)
8000546e:	8b4a                	mv	s6,s2
80005470:	00178c13          	addi	s8,a5,1
80005474:	97ba                	add	a5,a5,a4
80005476:	cc3e                	sw	a5,24(sp)
80005478:	0019f793          	andi	a5,s3,1
8000547c:	892a                	mv	s2,a0
8000547e:	c83e                	sw	a5,16(sp)
80005480:	85d2                	mv	a1,s4
80005482:	8522                	mv	a0,s0
80005484:	c4eff0ef          	jal	ra,800048d2 <quorem>
80005488:	85da                	mv	a1,s6
8000548a:	8caa                	mv	s9,a0
8000548c:	03050a93          	addi	s5,a0,48
80005490:	8522                	mv	a0,s0
80005492:	663000ef          	jal	ra,800062f4 <__mcmp>
80005496:	85d2                	mv	a1,s4
80005498:	8baa                	mv	s7,a0
8000549a:	864a                	mv	a2,s2
8000549c:	8526                	mv	a0,s1
8000549e:	68d000ef          	jal	ra,8000632a <__mdiff>
800054a2:	4554                	lw	a3,12(a0)
800054a4:	fffc0d13          	addi	s10,s8,-1
800054a8:	85aa                	mv	a1,a0
800054aa:	4705                	li	a4,1
800054ac:	e699                	bnez	a3,800054ba <_dtoa_r+0xabc>
800054ae:	ce2a                	sw	a0,28(sp)
800054b0:	8522                	mv	a0,s0
800054b2:	643000ef          	jal	ra,800062f4 <__mcmp>
800054b6:	45f2                	lw	a1,28(sp)
800054b8:	872a                	mv	a4,a0
800054ba:	8526                	mv	a0,s1
800054bc:	ce3a                	sw	a4,28(sp)
800054be:	0cf000ef          	jal	ra,80005d8c <_Bfree>
800054c2:	47d2                	lw	a5,20(sp)
800054c4:	4772                	lw	a4,28(sp)
800054c6:	89e2                	mv	s3,s8
800054c8:	00e7e6b3          	or	a3,a5,a4
800054cc:	47c2                	lw	a5,16(sp)
800054ce:	8edd                	or	a3,a3,a5
800054d0:	ee81                	bnez	a3,800054e8 <_dtoa_r+0xaea>
800054d2:	03900713          	li	a4,57
800054d6:	04ea8863          	beq	s5,a4,80005526 <_dtoa_r+0xb28>
800054da:	01705463          	blez	s7,800054e2 <_dtoa_r+0xae4>
800054de:	031c8a93          	addi	s5,s9,49
800054e2:	015d0023          	sb	s5,0(s10)
800054e6:	bddd                	j	800053dc <_dtoa_r+0x9de>
800054e8:	000bca63          	bltz	s7,800054fc <_dtoa_r+0xafe>
800054ec:	47d2                	lw	a5,20(sp)
800054ee:	0177ebb3          	or	s7,a5,s7
800054f2:	47c2                	lw	a5,16(sp)
800054f4:	00fbebb3          	or	s7,s7,a5
800054f8:	040b9863          	bnez	s7,80005548 <_dtoa_r+0xb4a>
800054fc:	fee053e3          	blez	a4,800054e2 <_dtoa_r+0xae4>
80005500:	85a2                	mv	a1,s0
80005502:	4605                	li	a2,1
80005504:	8526                	mv	a0,s1
80005506:	4eb000ef          	jal	ra,800061f0 <__lshift>
8000550a:	85d2                	mv	a1,s4
8000550c:	842a                	mv	s0,a0
8000550e:	5e7000ef          	jal	ra,800062f4 <__mcmp>
80005512:	00a04663          	bgtz	a0,8000551e <_dtoa_r+0xb20>
80005516:	f571                	bnez	a0,800054e2 <_dtoa_r+0xae4>
80005518:	001af713          	andi	a4,s5,1
8000551c:	d379                	beqz	a4,800054e2 <_dtoa_r+0xae4>
8000551e:	03900713          	li	a4,57
80005522:	faea9ee3          	bne	s5,a4,800054de <_dtoa_r+0xae0>
80005526:	03900793          	li	a5,57
8000552a:	00fd0023          	sb	a5,0(s10)
8000552e:	87ce                	mv	a5,s3
80005530:	03900693          	li	a3,57
80005534:	89be                	mv	s3,a5
80005536:	fff9c703          	lbu	a4,-1(s3)
8000553a:	17fd                	addi	a5,a5,-1
8000553c:	0ad70563          	beq	a4,a3,800055e6 <_dtoa_r+0xbe8>
80005540:	0705                	addi	a4,a4,1
80005542:	00e78023          	sb	a4,0(a5)
80005546:	bd59                	j	800053dc <_dtoa_r+0x9de>
80005548:	00e05b63          	blez	a4,8000555e <_dtoa_r+0xb60>
8000554c:	03900713          	li	a4,57
80005550:	fcea8be3          	beq	s5,a4,80005526 <_dtoa_r+0xb28>
80005554:	001a8793          	addi	a5,s5,1
80005558:	00fd0023          	sb	a5,0(s10)
8000555c:	b541                	j	800053dc <_dtoa_r+0x9de>
8000555e:	47e2                	lw	a5,24(sp)
80005560:	ff5c0fa3          	sb	s5,-1(s8)
80005564:	05878863          	beq	a5,s8,800055b4 <_dtoa_r+0xbb6>
80005568:	85a2                	mv	a1,s0
8000556a:	4681                	li	a3,0
8000556c:	4629                	li	a2,10
8000556e:	8526                	mv	a0,s1
80005570:	07f000ef          	jal	ra,80005dee <__multadd>
80005574:	842a                	mv	s0,a0
80005576:	4681                	li	a3,0
80005578:	4629                	li	a2,10
8000557a:	85da                	mv	a1,s6
8000557c:	8526                	mv	a0,s1
8000557e:	012b1863          	bne	s6,s2,8000558e <_dtoa_r+0xb90>
80005582:	06d000ef          	jal	ra,80005dee <__multadd>
80005586:	8b2a                	mv	s6,a0
80005588:	892a                	mv	s2,a0
8000558a:	0c05                	addi	s8,s8,1
8000558c:	bdd5                	j	80005480 <_dtoa_r+0xa82>
8000558e:	061000ef          	jal	ra,80005dee <__multadd>
80005592:	85ca                	mv	a1,s2
80005594:	8b2a                	mv	s6,a0
80005596:	4681                	li	a3,0
80005598:	4629                	li	a2,10
8000559a:	8526                	mv	a0,s1
8000559c:	053000ef          	jal	ra,80005dee <__multadd>
800055a0:	892a                	mv	s2,a0
800055a2:	b7e5                	j	8000558a <_dtoa_r+0xb8c>
800055a4:	47c2                	lw	a5,16(sp)
800055a6:	4985                	li	s3,1
800055a8:	00f05363          	blez	a5,800055ae <_dtoa_r+0xbb0>
800055ac:	89be                	mv	s3,a5
800055ae:	47b2                	lw	a5,12(sp)
800055b0:	4b01                	li	s6,0
800055b2:	99be                	add	s3,s3,a5
800055b4:	85a2                	mv	a1,s0
800055b6:	4605                	li	a2,1
800055b8:	8526                	mv	a0,s1
800055ba:	437000ef          	jal	ra,800061f0 <__lshift>
800055be:	85d2                	mv	a1,s4
800055c0:	842a                	mv	s0,a0
800055c2:	533000ef          	jal	ra,800062f4 <__mcmp>
800055c6:	f6a044e3          	bgtz	a0,8000552e <_dtoa_r+0xb30>
800055ca:	e501                	bnez	a0,800055d2 <_dtoa_r+0xbd4>
800055cc:	001af793          	andi	a5,s5,1
800055d0:	ffb9                	bnez	a5,8000552e <_dtoa_r+0xb30>
800055d2:	87ce                	mv	a5,s3
800055d4:	03000713          	li	a4,48
800055d8:	89be                	mv	s3,a5
800055da:	fff7c683          	lbu	a3,-1(a5)
800055de:	17fd                	addi	a5,a5,-1
800055e0:	fee68ce3          	beq	a3,a4,800055d8 <_dtoa_r+0xbda>
800055e4:	bbe5                	j	800053dc <_dtoa_r+0x9de>
800055e6:	4732                	lw	a4,12(sp)
800055e8:	f4f716e3          	bne	a4,a5,80005534 <_dtoa_r+0xb36>
800055ec:	03100793          	li	a5,49
800055f0:	0d85                	addi	s11,s11,1
800055f2:	00f70023          	sb	a5,0(a4)
800055f6:	b3dd                	j	800053dc <_dtoa_r+0x9de>
800055f8:	5712                	lw	a4,36(sp)
800055fa:	00004797          	auipc	a5,0x4
800055fe:	d3a78793          	addi	a5,a5,-710 # 80009334 <__clz_tab+0x194>
80005602:	c63e                	sw	a5,12(sp)
80005604:	00004797          	auipc	a5,0x4
80005608:	d3878793          	addi	a5,a5,-712 # 8000933c <__clz_tab+0x19c>
8000560c:	cc071a63          	bnez	a4,80004ae0 <_dtoa_r+0xe2>
80005610:	cd4ff06f          	j	80004ae4 <_dtoa_r+0xe6>
80005614:	47c2                	lw	a5,16(sp)
80005616:	00f04663          	bgtz	a5,80005622 <_dtoa_r+0xc24>
8000561a:	4752                	lw	a4,20(sp)
8000561c:	4789                	li	a5,2
8000561e:	d8e7cbe3          	blt	a5,a4,800053b4 <_dtoa_r+0x9b6>
80005622:	4981                	li	s3,0
80005624:	85d2                	mv	a1,s4
80005626:	8522                	mv	a0,s0
80005628:	aaaff0ef          	jal	ra,800048d2 <quorem>
8000562c:	47b2                	lw	a5,12(sp)
8000562e:	03050a93          	addi	s5,a0,48
80005632:	01378733          	add	a4,a5,s3
80005636:	47c2                	lw	a5,16(sp)
80005638:	01570023          	sb	s5,0(a4)
8000563c:	0985                	addi	s3,s3,1
8000563e:	f6f9d3e3          	bge	s3,a5,800055a4 <_dtoa_r+0xba6>
80005642:	85a2                	mv	a1,s0
80005644:	4681                	li	a3,0
80005646:	4629                	li	a2,10
80005648:	8526                	mv	a0,s1
8000564a:	7a4000ef          	jal	ra,80005dee <__multadd>
8000564e:	842a                	mv	s0,a0
80005650:	bfd1                	j	80005624 <_dtoa_r+0xc26>

80005652 <__sflush_r>:
__sflush_r():
80005652:	00c5d783          	lhu	a5,12(a1) # 7ff0000c <__stack_size+0x7feff80c>
80005656:	1101                	addi	sp,sp,-32
80005658:	cc22                	sw	s0,24(sp)
8000565a:	ca26                	sw	s1,20(sp)
8000565c:	ce06                	sw	ra,28(sp)
8000565e:	c84a                	sw	s2,16(sp)
80005660:	c64e                	sw	s3,12(sp)
80005662:	0087f713          	andi	a4,a5,8
80005666:	84aa                	mv	s1,a0
80005668:	842e                	mv	s0,a1
8000566a:	e37d                	bnez	a4,80005750 <__sflush_r+0xfe>
8000566c:	41d8                	lw	a4,4(a1)
8000566e:	00e04763          	bgtz	a4,8000567c <__sflush_r+0x2a>
80005672:	41b8                	lw	a4,64(a1)
80005674:	00e04463          	bgtz	a4,8000567c <__sflush_r+0x2a>
80005678:	4501                	li	a0,0
8000567a:	a87d                	j	80005738 <__sflush_r+0xe6>
8000567c:	5458                	lw	a4,44(s0)
8000567e:	df6d                	beqz	a4,80005678 <__sflush_r+0x26>
80005680:	6685                	lui	a3,0x1
80005682:	0004a903          	lw	s2,0(s1)
80005686:	8ff5                	and	a5,a5,a3
80005688:	0004a023          	sw	zero,0(s1)
8000568c:	cfad                	beqz	a5,80005706 <__sflush_r+0xb4>
8000568e:	4868                	lw	a0,84(s0)
80005690:	00c45783          	lhu	a5,12(s0)
80005694:	8b91                	andi	a5,a5,4
80005696:	c799                	beqz	a5,800056a4 <__sflush_r+0x52>
80005698:	405c                	lw	a5,4(s0)
8000569a:	8d1d                	sub	a0,a0,a5
8000569c:	585c                	lw	a5,52(s0)
8000569e:	c399                	beqz	a5,800056a4 <__sflush_r+0x52>
800056a0:	403c                	lw	a5,64(s0)
800056a2:	8d1d                	sub	a0,a0,a5
800056a4:	545c                	lw	a5,44(s0)
800056a6:	500c                	lw	a1,32(s0)
800056a8:	862a                	mv	a2,a0
800056aa:	4681                	li	a3,0
800056ac:	8526                	mv	a0,s1
800056ae:	9782                	jalr	a5
800056b0:	57fd                	li	a5,-1
800056b2:	00c45703          	lhu	a4,12(s0)
800056b6:	00f51d63          	bne	a0,a5,800056d0 <__sflush_r+0x7e>
800056ba:	4094                	lw	a3,0(s1)
800056bc:	47f5                	li	a5,29
800056be:	08d7e463          	bltu	a5,a3,80005746 <__sflush_r+0xf4>
800056c2:	204007b7          	lui	a5,0x20400
800056c6:	0785                	addi	a5,a5,1
800056c8:	00d7d7b3          	srl	a5,a5,a3
800056cc:	8b85                	andi	a5,a5,1
800056ce:	cfa5                	beqz	a5,80005746 <__sflush_r+0xf4>
800056d0:	481c                	lw	a5,16(s0)
800056d2:	00042223          	sw	zero,4(s0)
800056d6:	c01c                	sw	a5,0(s0)
800056d8:	6785                	lui	a5,0x1
800056da:	8f7d                	and	a4,a4,a5
800056dc:	c719                	beqz	a4,800056ea <__sflush_r+0x98>
800056de:	57fd                	li	a5,-1
800056e0:	00f51463          	bne	a0,a5,800056e8 <__sflush_r+0x96>
800056e4:	409c                	lw	a5,0(s1)
800056e6:	e391                	bnez	a5,800056ea <__sflush_r+0x98>
800056e8:	c868                	sw	a0,84(s0)
800056ea:	584c                	lw	a1,52(s0)
800056ec:	0124a023          	sw	s2,0(s1)
800056f0:	d5c1                	beqz	a1,80005678 <__sflush_r+0x26>
800056f2:	04440793          	addi	a5,s0,68
800056f6:	00f58563          	beq	a1,a5,80005700 <__sflush_r+0xae>
800056fa:	8526                	mv	a0,s1
800056fc:	6b1000ef          	jal	ra,800065ac <_free_r>
80005700:	02042a23          	sw	zero,52(s0)
80005704:	bf95                	j	80005678 <__sflush_r+0x26>
80005706:	500c                	lw	a1,32(s0)
80005708:	4685                	li	a3,1
8000570a:	4601                	li	a2,0
8000570c:	8526                	mv	a0,s1
8000570e:	9702                	jalr	a4
80005710:	57fd                	li	a5,-1
80005712:	f6f51fe3          	bne	a0,a5,80005690 <__sflush_r+0x3e>
80005716:	409c                	lw	a5,0(s1)
80005718:	dfa5                	beqz	a5,80005690 <__sflush_r+0x3e>
8000571a:	4775                	li	a4,29
8000571c:	00e78563          	beq	a5,a4,80005726 <__sflush_r+0xd4>
80005720:	4759                	li	a4,22
80005722:	00e79563          	bne	a5,a4,8000572c <__sflush_r+0xda>
80005726:	0124a023          	sw	s2,0(s1)
8000572a:	b7b9                	j	80005678 <__sflush_r+0x26>
8000572c:	00c45783          	lhu	a5,12(s0)
80005730:	0407e793          	ori	a5,a5,64
80005734:	00f41623          	sh	a5,12(s0)
80005738:	40f2                	lw	ra,28(sp)
8000573a:	4462                	lw	s0,24(sp)
8000573c:	44d2                	lw	s1,20(sp)
8000573e:	4942                	lw	s2,16(sp)
80005740:	49b2                	lw	s3,12(sp)
80005742:	6105                	addi	sp,sp,32
80005744:	8082                	ret
80005746:	04076713          	ori	a4,a4,64
8000574a:	00e41623          	sh	a4,12(s0)
8000574e:	b7ed                	j	80005738 <__sflush_r+0xe6>
80005750:	0105a983          	lw	s3,16(a1)
80005754:	f20982e3          	beqz	s3,80005678 <__sflush_r+0x26>
80005758:	0005a903          	lw	s2,0(a1)
8000575c:	8b8d                	andi	a5,a5,3
8000575e:	0135a023          	sw	s3,0(a1)
80005762:	41390933          	sub	s2,s2,s3
80005766:	4701                	li	a4,0
80005768:	e391                	bnez	a5,8000576c <__sflush_r+0x11a>
8000576a:	49d8                	lw	a4,20(a1)
8000576c:	c418                	sw	a4,8(s0)
8000576e:	f12055e3          	blez	s2,80005678 <__sflush_r+0x26>
80005772:	541c                	lw	a5,40(s0)
80005774:	500c                	lw	a1,32(s0)
80005776:	86ca                	mv	a3,s2
80005778:	864e                	mv	a2,s3
8000577a:	8526                	mv	a0,s1
8000577c:	9782                	jalr	a5
8000577e:	00a04a63          	bgtz	a0,80005792 <__sflush_r+0x140>
80005782:	00c45783          	lhu	a5,12(s0)
80005786:	557d                	li	a0,-1
80005788:	0407e793          	ori	a5,a5,64
8000578c:	00f41623          	sh	a5,12(s0)
80005790:	b765                	j	80005738 <__sflush_r+0xe6>
80005792:	99aa                	add	s3,s3,a0
80005794:	40a90933          	sub	s2,s2,a0
80005798:	bfd9                	j	8000576e <__sflush_r+0x11c>

8000579a <_fflush_r>:
_fflush_r():
8000579a:	499c                	lw	a5,16(a1)
8000579c:	c3a5                	beqz	a5,800057fc <_fflush_r+0x62>
8000579e:	1101                	addi	sp,sp,-32
800057a0:	cc22                	sw	s0,24(sp)
800057a2:	ce06                	sw	ra,28(sp)
800057a4:	842a                	mv	s0,a0
800057a6:	c511                	beqz	a0,800057b2 <_fflush_r+0x18>
800057a8:	4d1c                	lw	a5,24(a0)
800057aa:	e781                	bnez	a5,800057b2 <_fflush_r+0x18>
800057ac:	c62e                	sw	a1,12(sp)
800057ae:	2229                	jal	800058b8 <__sinit>
800057b0:	45b2                	lw	a1,12(sp)
800057b2:	00004797          	auipc	a5,0x4
800057b6:	c3278793          	addi	a5,a5,-974 # 800093e4 <__sf_fake_stdin>
800057ba:	00f59c63          	bne	a1,a5,800057d2 <_fflush_r+0x38>
800057be:	404c                	lw	a1,4(s0)
800057c0:	00c59783          	lh	a5,12(a1)
800057c4:	c79d                	beqz	a5,800057f2 <_fflush_r+0x58>
800057c6:	8522                	mv	a0,s0
800057c8:	4462                	lw	s0,24(sp)
800057ca:	40f2                	lw	ra,28(sp)
800057cc:	6105                	addi	sp,sp,32
800057ce:	e85ff06f          	j	80005652 <__sflush_r>
800057d2:	00004797          	auipc	a5,0x4
800057d6:	c3278793          	addi	a5,a5,-974 # 80009404 <__sf_fake_stdout>
800057da:	00f59463          	bne	a1,a5,800057e2 <_fflush_r+0x48>
800057de:	440c                	lw	a1,8(s0)
800057e0:	b7c5                	j	800057c0 <_fflush_r+0x26>
800057e2:	00004797          	auipc	a5,0x4
800057e6:	be278793          	addi	a5,a5,-1054 # 800093c4 <__sf_fake_stderr>
800057ea:	fcf59be3          	bne	a1,a5,800057c0 <_fflush_r+0x26>
800057ee:	444c                	lw	a1,12(s0)
800057f0:	bfc1                	j	800057c0 <_fflush_r+0x26>
800057f2:	40f2                	lw	ra,28(sp)
800057f4:	4462                	lw	s0,24(sp)
800057f6:	4501                	li	a0,0
800057f8:	6105                	addi	sp,sp,32
800057fa:	8082                	ret
800057fc:	4501                	li	a0,0
800057fe:	8082                	ret

80005800 <std>:
std():
80005800:	1141                	addi	sp,sp,-16
80005802:	c422                	sw	s0,8(sp)
80005804:	c606                	sw	ra,12(sp)
80005806:	842a                	mv	s0,a0
80005808:	00b51623          	sh	a1,12(a0)
8000580c:	00c51723          	sh	a2,14(a0)
80005810:	00052023          	sw	zero,0(a0)
80005814:	00052223          	sw	zero,4(a0)
80005818:	00052423          	sw	zero,8(a0)
8000581c:	06052223          	sw	zero,100(a0)
80005820:	00052823          	sw	zero,16(a0)
80005824:	00052a23          	sw	zero,20(a0)
80005828:	00052c23          	sw	zero,24(a0)
8000582c:	4621                	li	a2,8
8000582e:	4581                	li	a1,0
80005830:	05c50513          	addi	a0,a0,92
80005834:	2109                	jal	80005c36 <memset>
80005836:	00001797          	auipc	a5,0x1
8000583a:	21a78793          	addi	a5,a5,538 # 80006a50 <__sread>
8000583e:	d05c                	sw	a5,36(s0)
80005840:	00001797          	auipc	a5,0x1
80005844:	24078793          	addi	a5,a5,576 # 80006a80 <__swrite>
80005848:	d41c                	sw	a5,40(s0)
8000584a:	00001797          	auipc	a5,0x1
8000584e:	28478793          	addi	a5,a5,644 # 80006ace <__sseek>
80005852:	d45c                	sw	a5,44(s0)
80005854:	00001797          	auipc	a5,0x1
80005858:	2b078793          	addi	a5,a5,688 # 80006b04 <__sclose>
8000585c:	40b2                	lw	ra,12(sp)
8000585e:	d000                	sw	s0,32(s0)
80005860:	d81c                	sw	a5,48(s0)
80005862:	4422                	lw	s0,8(sp)
80005864:	0141                	addi	sp,sp,16
80005866:	8082                	ret

80005868 <_cleanup_r>:
_cleanup_r():
80005868:	00000597          	auipc	a1,0x0
8000586c:	f3258593          	addi	a1,a1,-206 # 8000579a <_fflush_r>
80005870:	aa81                	j	800059c0 <_fwalk_reent>

80005872 <__sfmoreglue>:
__sfmoreglue():
80005872:	1141                	addi	sp,sp,-16
80005874:	c226                	sw	s1,4(sp)
80005876:	06800613          	li	a2,104
8000587a:	fff58493          	addi	s1,a1,-1
8000587e:	02c484b3          	mul	s1,s1,a2
80005882:	c04a                	sw	s2,0(sp)
80005884:	892e                	mv	s2,a1
80005886:	c422                	sw	s0,8(sp)
80005888:	c606                	sw	ra,12(sp)
8000588a:	07448593          	addi	a1,s1,116
8000588e:	5bd000ef          	jal	ra,8000664a <_malloc_r>
80005892:	842a                	mv	s0,a0
80005894:	c919                	beqz	a0,800058aa <__sfmoreglue+0x38>
80005896:	00052023          	sw	zero,0(a0)
8000589a:	01252223          	sw	s2,4(a0)
8000589e:	0531                	addi	a0,a0,12
800058a0:	c408                	sw	a0,8(s0)
800058a2:	06848613          	addi	a2,s1,104
800058a6:	4581                	li	a1,0
800058a8:	2679                	jal	80005c36 <memset>
800058aa:	40b2                	lw	ra,12(sp)
800058ac:	8522                	mv	a0,s0
800058ae:	4422                	lw	s0,8(sp)
800058b0:	4492                	lw	s1,4(sp)
800058b2:	4902                	lw	s2,0(sp)
800058b4:	0141                	addi	sp,sp,16
800058b6:	8082                	ret

800058b8 <__sinit>:
__sinit():
800058b8:	4d1c                	lw	a5,24(a0)
800058ba:	e7a5                	bnez	a5,80005922 <__sinit+0x6a>
800058bc:	1141                	addi	sp,sp,-16
800058be:	c422                	sw	s0,8(sp)
800058c0:	c606                	sw	ra,12(sp)
800058c2:	00000797          	auipc	a5,0x0
800058c6:	fa678793          	addi	a5,a5,-90 # 80005868 <_cleanup_r>
800058ca:	d51c                	sw	a5,40(a0)
800058cc:	04052423          	sw	zero,72(a0)
800058d0:	04052623          	sw	zero,76(a0)
800058d4:	04052823          	sw	zero,80(a0)
800058d8:	8601a783          	lw	a5,-1952(gp) # 90000230 <_global_impure_ptr>
800058dc:	842a                	mv	s0,a0
800058de:	00f51463          	bne	a0,a5,800058e6 <__sinit+0x2e>
800058e2:	4785                	li	a5,1
800058e4:	cd1c                	sw	a5,24(a0)
800058e6:	8522                	mv	a0,s0
800058e8:	2835                	jal	80005924 <__sfp>
800058ea:	c048                	sw	a0,4(s0)
800058ec:	8522                	mv	a0,s0
800058ee:	281d                	jal	80005924 <__sfp>
800058f0:	c408                	sw	a0,8(s0)
800058f2:	8522                	mv	a0,s0
800058f4:	2805                	jal	80005924 <__sfp>
800058f6:	c448                	sw	a0,12(s0)
800058f8:	4048                	lw	a0,4(s0)
800058fa:	4601                	li	a2,0
800058fc:	4591                	li	a1,4
800058fe:	f03ff0ef          	jal	ra,80005800 <std>
80005902:	4408                	lw	a0,8(s0)
80005904:	4605                	li	a2,1
80005906:	45a5                	li	a1,9
80005908:	ef9ff0ef          	jal	ra,80005800 <std>
8000590c:	4448                	lw	a0,12(s0)
8000590e:	4609                	li	a2,2
80005910:	45c9                	li	a1,18
80005912:	eefff0ef          	jal	ra,80005800 <std>
80005916:	4785                	li	a5,1
80005918:	40b2                	lw	ra,12(sp)
8000591a:	cc1c                	sw	a5,24(s0)
8000591c:	4422                	lw	s0,8(sp)
8000591e:	0141                	addi	sp,sp,16
80005920:	8082                	ret
80005922:	8082                	ret

80005924 <__sfp>:
__sfp():
80005924:	1141                	addi	sp,sp,-16
80005926:	c226                	sw	s1,4(sp)
80005928:	8601a483          	lw	s1,-1952(gp) # 90000230 <_global_impure_ptr>
8000592c:	4c9c                	lw	a5,24(s1)
8000592e:	c04a                	sw	s2,0(sp)
80005930:	c606                	sw	ra,12(sp)
80005932:	c422                	sw	s0,8(sp)
80005934:	892a                	mv	s2,a0
80005936:	e781                	bnez	a5,8000593e <__sfp+0x1a>
80005938:	8526                	mv	a0,s1
8000593a:	f7fff0ef          	jal	ra,800058b8 <__sinit>
8000593e:	04848493          	addi	s1,s1,72
80005942:	4480                	lw	s0,8(s1)
80005944:	40dc                	lw	a5,4(s1)
80005946:	17fd                	addi	a5,a5,-1
80005948:	0007d663          	bgez	a5,80005954 <__sfp+0x30>
8000594c:	409c                	lw	a5,0(s1)
8000594e:	cfb1                	beqz	a5,800059aa <__sfp+0x86>
80005950:	4084                	lw	s1,0(s1)
80005952:	bfc5                	j	80005942 <__sfp+0x1e>
80005954:	00c41703          	lh	a4,12(s0)
80005958:	e731                	bnez	a4,800059a4 <__sfp+0x80>
8000595a:	77c1                	lui	a5,0xffff0
8000595c:	0785                	addi	a5,a5,1
8000595e:	06042223          	sw	zero,100(s0)
80005962:	00042023          	sw	zero,0(s0)
80005966:	00042223          	sw	zero,4(s0)
8000596a:	00042423          	sw	zero,8(s0)
8000596e:	c45c                	sw	a5,12(s0)
80005970:	00042823          	sw	zero,16(s0)
80005974:	00042a23          	sw	zero,20(s0)
80005978:	00042c23          	sw	zero,24(s0)
8000597c:	4621                	li	a2,8
8000597e:	4581                	li	a1,0
80005980:	05c40513          	addi	a0,s0,92
80005984:	2c4d                	jal	80005c36 <memset>
80005986:	02042a23          	sw	zero,52(s0)
8000598a:	02042c23          	sw	zero,56(s0)
8000598e:	04042423          	sw	zero,72(s0)
80005992:	04042623          	sw	zero,76(s0)
80005996:	40b2                	lw	ra,12(sp)
80005998:	8522                	mv	a0,s0
8000599a:	4422                	lw	s0,8(sp)
8000599c:	4492                	lw	s1,4(sp)
8000599e:	4902                	lw	s2,0(sp)
800059a0:	0141                	addi	sp,sp,16
800059a2:	8082                	ret
800059a4:	06840413          	addi	s0,s0,104
800059a8:	bf79                	j	80005946 <__sfp+0x22>
800059aa:	4591                	li	a1,4
800059ac:	854a                	mv	a0,s2
800059ae:	ec5ff0ef          	jal	ra,80005872 <__sfmoreglue>
800059b2:	c088                	sw	a0,0(s1)
800059b4:	842a                	mv	s0,a0
800059b6:	fd49                	bnez	a0,80005950 <__sfp+0x2c>
800059b8:	47b1                	li	a5,12
800059ba:	00f92023          	sw	a5,0(s2)
800059be:	bfe1                	j	80005996 <__sfp+0x72>

800059c0 <_fwalk_reent>:
_fwalk_reent():
800059c0:	7179                	addi	sp,sp,-48
800059c2:	d422                	sw	s0,40(sp)
800059c4:	d04a                	sw	s2,32(sp)
800059c6:	ce4e                	sw	s3,28(sp)
800059c8:	cc52                	sw	s4,24(sp)
800059ca:	c85a                	sw	s6,16(sp)
800059cc:	c65e                	sw	s7,12(sp)
800059ce:	d606                	sw	ra,44(sp)
800059d0:	d226                	sw	s1,36(sp)
800059d2:	ca56                	sw	s5,20(sp)
800059d4:	892a                	mv	s2,a0
800059d6:	8a2e                	mv	s4,a1
800059d8:	04850413          	addi	s0,a0,72
800059dc:	4981                	li	s3,0
800059de:	4b05                	li	s6,1
800059e0:	5bfd                	li	s7,-1
800059e2:	4404                	lw	s1,8(s0)
800059e4:	00442a83          	lw	s5,4(s0)
800059e8:	1afd                	addi	s5,s5,-1
800059ea:	020ad063          	bgez	s5,80005a0a <_fwalk_reent+0x4a>
800059ee:	4000                	lw	s0,0(s0)
800059f0:	f86d                	bnez	s0,800059e2 <_fwalk_reent+0x22>
800059f2:	50b2                	lw	ra,44(sp)
800059f4:	5422                	lw	s0,40(sp)
800059f6:	5492                	lw	s1,36(sp)
800059f8:	5902                	lw	s2,32(sp)
800059fa:	4a62                	lw	s4,24(sp)
800059fc:	4ad2                	lw	s5,20(sp)
800059fe:	4b42                	lw	s6,16(sp)
80005a00:	4bb2                	lw	s7,12(sp)
80005a02:	854e                	mv	a0,s3
80005a04:	49f2                	lw	s3,28(sp)
80005a06:	6145                	addi	sp,sp,48
80005a08:	8082                	ret
80005a0a:	00c4d783          	lhu	a5,12(s1)
80005a0e:	00fb7b63          	bgeu	s6,a5,80005a24 <_fwalk_reent+0x64>
80005a12:	00e49783          	lh	a5,14(s1)
80005a16:	01778763          	beq	a5,s7,80005a24 <_fwalk_reent+0x64>
80005a1a:	85a6                	mv	a1,s1
80005a1c:	854a                	mv	a0,s2
80005a1e:	9a02                	jalr	s4
80005a20:	00a9e9b3          	or	s3,s3,a0
80005a24:	06848493          	addi	s1,s1,104
80005a28:	b7c1                	j	800059e8 <_fwalk_reent+0x28>

80005a2a <_localeconv_r>:
_localeconv_r():
80005a2a:	0fffa517          	auipc	a0,0xfffa
80005a2e:	72650513          	addi	a0,a0,1830 # 90000150 <__global_locale+0xf0>
80005a32:	8082                	ret

80005a34 <__swhatbuf_r>:
__swhatbuf_r():
80005a34:	7159                	addi	sp,sp,-112
80005a36:	d0ca                	sw	s2,96(sp)
80005a38:	892e                	mv	s2,a1
80005a3a:	00e59583          	lh	a1,14(a1)
80005a3e:	d4a2                	sw	s0,104(sp)
80005a40:	d2a6                	sw	s1,100(sp)
80005a42:	d686                	sw	ra,108(sp)
80005a44:	8432                	mv	s0,a2
80005a46:	84b6                	mv	s1,a3
80005a48:	0005dc63          	bgez	a1,80005a60 <__swhatbuf_r+0x2c>
80005a4c:	00c91783          	lh	a5,12(s2)
80005a50:	0004a023          	sw	zero,0(s1)
80005a54:	0807f793          	andi	a5,a5,128
80005a58:	e395                	bnez	a5,80005a7c <__swhatbuf_r+0x48>
80005a5a:	40000793          	li	a5,1024
80005a5e:	a00d                	j	80005a80 <__swhatbuf_r+0x4c>
80005a60:	0030                	addi	a2,sp,8
80005a62:	160010ef          	jal	ra,80006bc2 <_fstat_r>
80005a66:	fe0543e3          	bltz	a0,80005a4c <__swhatbuf_r+0x18>
80005a6a:	4732                	lw	a4,12(sp)
80005a6c:	67bd                	lui	a5,0xf
80005a6e:	8ff9                	and	a5,a5,a4
80005a70:	7779                	lui	a4,0xffffe
80005a72:	97ba                	add	a5,a5,a4
80005a74:	0017b793          	seqz	a5,a5
80005a78:	c09c                	sw	a5,0(s1)
80005a7a:	b7c5                	j	80005a5a <__swhatbuf_r+0x26>
80005a7c:	04000793          	li	a5,64
80005a80:	50b6                	lw	ra,108(sp)
80005a82:	c01c                	sw	a5,0(s0)
80005a84:	5426                	lw	s0,104(sp)
80005a86:	5496                	lw	s1,100(sp)
80005a88:	5906                	lw	s2,96(sp)
80005a8a:	4501                	li	a0,0
80005a8c:	6165                	addi	sp,sp,112
80005a8e:	8082                	ret

80005a90 <__smakebuf_r>:
__smakebuf_r():
80005a90:	00c5d783          	lhu	a5,12(a1)
80005a94:	1101                	addi	sp,sp,-32
80005a96:	cc22                	sw	s0,24(sp)
80005a98:	ce06                	sw	ra,28(sp)
80005a9a:	ca26                	sw	s1,20(sp)
80005a9c:	c84a                	sw	s2,16(sp)
80005a9e:	8b89                	andi	a5,a5,2
80005aa0:	842e                	mv	s0,a1
80005aa2:	cf89                	beqz	a5,80005abc <__smakebuf_r+0x2c>
80005aa4:	04740793          	addi	a5,s0,71
80005aa8:	c01c                	sw	a5,0(s0)
80005aaa:	c81c                	sw	a5,16(s0)
80005aac:	4785                	li	a5,1
80005aae:	c85c                	sw	a5,20(s0)
80005ab0:	40f2                	lw	ra,28(sp)
80005ab2:	4462                	lw	s0,24(sp)
80005ab4:	44d2                	lw	s1,20(sp)
80005ab6:	4942                	lw	s2,16(sp)
80005ab8:	6105                	addi	sp,sp,32
80005aba:	8082                	ret
80005abc:	0074                	addi	a3,sp,12
80005abe:	0030                	addi	a2,sp,8
80005ac0:	892a                	mv	s2,a0
80005ac2:	f73ff0ef          	jal	ra,80005a34 <__swhatbuf_r>
80005ac6:	45a2                	lw	a1,8(sp)
80005ac8:	84aa                	mv	s1,a0
80005aca:	854a                	mv	a0,s2
80005acc:	37f000ef          	jal	ra,8000664a <_malloc_r>
80005ad0:	ed01                	bnez	a0,80005ae8 <__smakebuf_r+0x58>
80005ad2:	00c41783          	lh	a5,12(s0)
80005ad6:	2007f713          	andi	a4,a5,512
80005ada:	fb79                	bnez	a4,80005ab0 <__smakebuf_r+0x20>
80005adc:	9bf1                	andi	a5,a5,-4
80005ade:	0027e793          	ori	a5,a5,2
80005ae2:	00f41623          	sh	a5,12(s0)
80005ae6:	bf7d                	j	80005aa4 <__smakebuf_r+0x14>
80005ae8:	00000797          	auipc	a5,0x0
80005aec:	d8078793          	addi	a5,a5,-640 # 80005868 <_cleanup_r>
80005af0:	02f92423          	sw	a5,40(s2)
80005af4:	00c45783          	lhu	a5,12(s0)
80005af8:	c008                	sw	a0,0(s0)
80005afa:	c808                	sw	a0,16(s0)
80005afc:	0807e793          	ori	a5,a5,128
80005b00:	00f41623          	sh	a5,12(s0)
80005b04:	47a2                	lw	a5,8(sp)
80005b06:	c85c                	sw	a5,20(s0)
80005b08:	47b2                	lw	a5,12(sp)
80005b0a:	cf91                	beqz	a5,80005b26 <__smakebuf_r+0x96>
80005b0c:	00e41583          	lh	a1,14(s0)
80005b10:	854a                	mv	a0,s2
80005b12:	0da010ef          	jal	ra,80006bec <_isatty_r>
80005b16:	c901                	beqz	a0,80005b26 <__smakebuf_r+0x96>
80005b18:	00c45783          	lhu	a5,12(s0)
80005b1c:	9bf1                	andi	a5,a5,-4
80005b1e:	0017e793          	ori	a5,a5,1
80005b22:	00f41623          	sh	a5,12(s0)
80005b26:	00c45503          	lhu	a0,12(s0)
80005b2a:	8cc9                	or	s1,s1,a0
80005b2c:	00941623          	sh	s1,12(s0)
80005b30:	b741                	j	80005ab0 <__smakebuf_r+0x20>

80005b32 <malloc>:
malloc():
80005b32:	85aa                	mv	a1,a0
80005b34:	0fffa517          	auipc	a0,0xfffa
80005b38:	6a452503          	lw	a0,1700(a0) # 900001d8 <_impure_ptr>
80005b3c:	30f0006f          	j	8000664a <_malloc_r>

80005b40 <memchr>:
memchr():
80005b40:	0ff5f593          	zext.b	a1,a1
80005b44:	962a                	add	a2,a2,a0
80005b46:	00c51463          	bne	a0,a2,80005b4e <memchr+0xe>
80005b4a:	4501                	li	a0,0
80005b4c:	8082                	ret
80005b4e:	00054783          	lbu	a5,0(a0)
80005b52:	feb78de3          	beq	a5,a1,80005b4c <memchr+0xc>
80005b56:	0505                	addi	a0,a0,1
80005b58:	b7fd                	j	80005b46 <memchr+0x6>

80005b5a <memcpy>:
memcpy():
80005b5a:	00a5c7b3          	xor	a5,a1,a0
80005b5e:	8b8d                	andi	a5,a5,3
80005b60:	00c506b3          	add	a3,a0,a2
80005b64:	e781                	bnez	a5,80005b6c <memcpy+0x12>
80005b66:	478d                	li	a5,3
80005b68:	00c7ee63          	bltu	a5,a2,80005b84 <memcpy+0x2a>
80005b6c:	87aa                	mv	a5,a0
80005b6e:	06d57163          	bgeu	a0,a3,80005bd0 <memcpy+0x76>
80005b72:	0005c703          	lbu	a4,0(a1)
80005b76:	0785                	addi	a5,a5,1
80005b78:	0585                	addi	a1,a1,1
80005b7a:	fee78fa3          	sb	a4,-1(a5)
80005b7e:	fed7eae3          	bltu	a5,a3,80005b72 <memcpy+0x18>
80005b82:	8082                	ret
80005b84:	00357713          	andi	a4,a0,3
80005b88:	87aa                	mv	a5,a0
80005b8a:	cb11                	beqz	a4,80005b9e <memcpy+0x44>
80005b8c:	0005c703          	lbu	a4,0(a1)
80005b90:	0785                	addi	a5,a5,1
80005b92:	0585                	addi	a1,a1,1
80005b94:	fee78fa3          	sb	a4,-1(a5)
80005b98:	0037f713          	andi	a4,a5,3
80005b9c:	b7fd                	j	80005b8a <memcpy+0x30>
80005b9e:	ffc6f713          	andi	a4,a3,-4
80005ba2:	40f70833          	sub	a6,a4,a5
80005ba6:	02000613          	li	a2,32
80005baa:	03064463          	blt	a2,a6,80005bd2 <memcpy+0x78>
80005bae:	882e                	mv	a6,a1
80005bb0:	863e                	mv	a2,a5
80005bb2:	06e66b63          	bltu	a2,a4,80005c28 <memcpy+0xce>
80005bb6:	ffd78813          	addi	a6,a5,-3
80005bba:	4601                	li	a2,0
80005bbc:	01076663          	bltu	a4,a6,80005bc8 <memcpy+0x6e>
80005bc0:	070d                	addi	a4,a4,3
80005bc2:	8f1d                	sub	a4,a4,a5
80005bc4:	ffc77613          	andi	a2,a4,-4
80005bc8:	97b2                	add	a5,a5,a2
80005bca:	95b2                	add	a1,a1,a2
80005bcc:	fad7e3e3          	bltu	a5,a3,80005b72 <memcpy+0x18>
80005bd0:	8082                	ret
80005bd2:	0005a383          	lw	t2,0(a1)
80005bd6:	0045a283          	lw	t0,4(a1)
80005bda:	0085af83          	lw	t6,8(a1)
80005bde:	00c5af03          	lw	t5,12(a1)
80005be2:	0105ae83          	lw	t4,16(a1)
80005be6:	0145ae03          	lw	t3,20(a1)
80005bea:	0185a303          	lw	t1,24(a1)
80005bee:	01c5a883          	lw	a7,28(a1)
80005bf2:	0077a023          	sw	t2,0(a5)
80005bf6:	0057a223          	sw	t0,4(a5)
80005bfa:	0205a803          	lw	a6,32(a1)
80005bfe:	01f7a423          	sw	t6,8(a5)
80005c02:	01e7a623          	sw	t5,12(a5)
80005c06:	01d7a823          	sw	t4,16(a5)
80005c0a:	01c7aa23          	sw	t3,20(a5)
80005c0e:	0067ac23          	sw	t1,24(a5)
80005c12:	0117ae23          	sw	a7,28(a5)
80005c16:	02478793          	addi	a5,a5,36
80005c1a:	02458593          	addi	a1,a1,36
80005c1e:	ff07ae23          	sw	a6,-4(a5)
80005c22:	40f70833          	sub	a6,a4,a5
80005c26:	b751                	j	80005baa <memcpy+0x50>
80005c28:	00082883          	lw	a7,0(a6)
80005c2c:	0611                	addi	a2,a2,4
80005c2e:	0811                	addi	a6,a6,4
80005c30:	ff162e23          	sw	a7,-4(a2)
80005c34:	bfbd                	j	80005bb2 <memcpy+0x58>

80005c36 <memset>:
memset():
80005c36:	433d                	li	t1,15
80005c38:	872a                	mv	a4,a0
80005c3a:	02c37363          	bgeu	t1,a2,80005c60 <memset+0x2a>
80005c3e:	00f77793          	andi	a5,a4,15
80005c42:	efbd                	bnez	a5,80005cc0 <memset+0x8a>
80005c44:	e5ad                	bnez	a1,80005cae <memset+0x78>
80005c46:	ff067693          	andi	a3,a2,-16
80005c4a:	8a3d                	andi	a2,a2,15
80005c4c:	96ba                	add	a3,a3,a4
80005c4e:	c30c                	sw	a1,0(a4)
80005c50:	c34c                	sw	a1,4(a4)
80005c52:	c70c                	sw	a1,8(a4)
80005c54:	c74c                	sw	a1,12(a4)
80005c56:	0741                	addi	a4,a4,16
80005c58:	fed76be3          	bltu	a4,a3,80005c4e <memset+0x18>
80005c5c:	e211                	bnez	a2,80005c60 <memset+0x2a>
80005c5e:	8082                	ret
80005c60:	40c306b3          	sub	a3,t1,a2
80005c64:	068a                	slli	a3,a3,0x2
80005c66:	00000297          	auipc	t0,0x0
80005c6a:	9696                	add	a3,a3,t0
80005c6c:	00a68067          	jr	10(a3) # 100a <__stack_size+0x80a>
80005c70:	00b70723          	sb	a1,14(a4) # ffffe00e <_sp+0x6ffee00e>
80005c74:	00b706a3          	sb	a1,13(a4)
80005c78:	00b70623          	sb	a1,12(a4)
80005c7c:	00b705a3          	sb	a1,11(a4)
80005c80:	00b70523          	sb	a1,10(a4)
80005c84:	00b704a3          	sb	a1,9(a4)
80005c88:	00b70423          	sb	a1,8(a4)
80005c8c:	00b703a3          	sb	a1,7(a4)
80005c90:	00b70323          	sb	a1,6(a4)
80005c94:	00b702a3          	sb	a1,5(a4)
80005c98:	00b70223          	sb	a1,4(a4)
80005c9c:	00b701a3          	sb	a1,3(a4)
80005ca0:	00b70123          	sb	a1,2(a4)
80005ca4:	00b700a3          	sb	a1,1(a4)
80005ca8:	00b70023          	sb	a1,0(a4)
80005cac:	8082                	ret
80005cae:	0ff5f593          	zext.b	a1,a1
80005cb2:	00859693          	slli	a3,a1,0x8
80005cb6:	8dd5                	or	a1,a1,a3
80005cb8:	01059693          	slli	a3,a1,0x10
80005cbc:	8dd5                	or	a1,a1,a3
80005cbe:	b761                	j	80005c46 <memset+0x10>
80005cc0:	00279693          	slli	a3,a5,0x2
80005cc4:	00000297          	auipc	t0,0x0
80005cc8:	9696                	add	a3,a3,t0
80005cca:	8286                	mv	t0,ra
80005ccc:	fa8680e7          	jalr	-88(a3)
80005cd0:	8096                	mv	ra,t0
80005cd2:	17c1                	addi	a5,a5,-16
80005cd4:	8f1d                	sub	a4,a4,a5
80005cd6:	963e                	add	a2,a2,a5
80005cd8:	f8c374e3          	bgeu	t1,a2,80005c60 <memset+0x2a>
80005cdc:	b7a5                	j	80005c44 <memset+0xe>

80005cde <_Balloc>:
_Balloc():
80005cde:	515c                	lw	a5,36(a0)
80005ce0:	1141                	addi	sp,sp,-16
80005ce2:	c422                	sw	s0,8(sp)
80005ce4:	c226                	sw	s1,4(sp)
80005ce6:	c606                	sw	ra,12(sp)
80005ce8:	c04a                	sw	s2,0(sp)
80005cea:	842a                	mv	s0,a0
80005cec:	84ae                	mv	s1,a1
80005cee:	eb9d                	bnez	a5,80005d24 <_Balloc+0x46>
80005cf0:	4541                	li	a0,16
80005cf2:	e41ff0ef          	jal	ra,80005b32 <malloc>
80005cf6:	d048                	sw	a0,36(s0)
80005cf8:	ed11                	bnez	a0,80005d14 <_Balloc+0x36>
80005cfa:	00003697          	auipc	a3,0x3
80005cfe:	64a68693          	addi	a3,a3,1610 # 80009344 <__clz_tab+0x1a4>
80005d02:	4601                	li	a2,0
80005d04:	06600593          	li	a1,102
80005d08:	00003517          	auipc	a0,0x3
80005d0c:	71c50513          	addi	a0,a0,1820 # 80009424 <__sf_fake_stdout+0x20>
80005d10:	627000ef          	jal	ra,80006b36 <__assert_func>
80005d14:	00052223          	sw	zero,4(a0)
80005d18:	00052423          	sw	zero,8(a0)
80005d1c:	00052023          	sw	zero,0(a0)
80005d20:	00052623          	sw	zero,12(a0)
80005d24:	02442903          	lw	s2,36(s0)
80005d28:	00c92783          	lw	a5,12(s2)
80005d2c:	c79d                	beqz	a5,80005d5a <_Balloc+0x7c>
80005d2e:	5058                	lw	a4,36(s0)
80005d30:	00249793          	slli	a5,s1,0x2
80005d34:	4758                	lw	a4,12(a4)
80005d36:	97ba                	add	a5,a5,a4
80005d38:	4388                	lw	a0,0(a5)
80005d3a:	e131                	bnez	a0,80005d7e <_Balloc+0xa0>
80005d3c:	4905                	li	s2,1
80005d3e:	00991933          	sll	s2,s2,s1
80005d42:	00590613          	addi	a2,s2,5
80005d46:	060a                	slli	a2,a2,0x2
80005d48:	4585                	li	a1,1
80005d4a:	8522                	mv	a0,s0
80005d4c:	02b000ef          	jal	ra,80006576 <_calloc_r>
80005d50:	c105                	beqz	a0,80005d70 <_Balloc+0x92>
80005d52:	c144                	sw	s1,4(a0)
80005d54:	01252423          	sw	s2,8(a0)
80005d58:	a02d                	j	80005d82 <_Balloc+0xa4>
80005d5a:	02100613          	li	a2,33
80005d5e:	4591                	li	a1,4
80005d60:	8522                	mv	a0,s0
80005d62:	015000ef          	jal	ra,80006576 <_calloc_r>
80005d66:	505c                	lw	a5,36(s0)
80005d68:	00a92623          	sw	a0,12(s2)
80005d6c:	47dc                	lw	a5,12(a5)
80005d6e:	f3e1                	bnez	a5,80005d2e <_Balloc+0x50>
80005d70:	4501                	li	a0,0
80005d72:	40b2                	lw	ra,12(sp)
80005d74:	4422                	lw	s0,8(sp)
80005d76:	4492                	lw	s1,4(sp)
80005d78:	4902                	lw	s2,0(sp)
80005d7a:	0141                	addi	sp,sp,16
80005d7c:	8082                	ret
80005d7e:	4118                	lw	a4,0(a0)
80005d80:	c398                	sw	a4,0(a5)
80005d82:	00052823          	sw	zero,16(a0)
80005d86:	00052623          	sw	zero,12(a0)
80005d8a:	b7e5                	j	80005d72 <_Balloc+0x94>

80005d8c <_Bfree>:
_Bfree():
80005d8c:	515c                	lw	a5,36(a0)
80005d8e:	1141                	addi	sp,sp,-16
80005d90:	c422                	sw	s0,8(sp)
80005d92:	c226                	sw	s1,4(sp)
80005d94:	c606                	sw	ra,12(sp)
80005d96:	84aa                	mv	s1,a0
80005d98:	842e                	mv	s0,a1
80005d9a:	eb9d                	bnez	a5,80005dd0 <_Bfree+0x44>
80005d9c:	4541                	li	a0,16
80005d9e:	d95ff0ef          	jal	ra,80005b32 <malloc>
80005da2:	d0c8                	sw	a0,36(s1)
80005da4:	ed11                	bnez	a0,80005dc0 <_Bfree+0x34>
80005da6:	00003697          	auipc	a3,0x3
80005daa:	59e68693          	addi	a3,a3,1438 # 80009344 <__clz_tab+0x1a4>
80005dae:	4601                	li	a2,0
80005db0:	08a00593          	li	a1,138
80005db4:	00003517          	auipc	a0,0x3
80005db8:	67050513          	addi	a0,a0,1648 # 80009424 <__sf_fake_stdout+0x20>
80005dbc:	57b000ef          	jal	ra,80006b36 <__assert_func>
80005dc0:	00052223          	sw	zero,4(a0)
80005dc4:	00052423          	sw	zero,8(a0)
80005dc8:	00052023          	sw	zero,0(a0)
80005dcc:	00052623          	sw	zero,12(a0)
80005dd0:	c811                	beqz	s0,80005de4 <_Bfree+0x58>
80005dd2:	50d4                	lw	a3,36(s1)
80005dd4:	405c                	lw	a5,4(s0)
80005dd6:	00279713          	slli	a4,a5,0x2
80005dda:	46dc                	lw	a5,12(a3)
80005ddc:	97ba                	add	a5,a5,a4
80005dde:	4398                	lw	a4,0(a5)
80005de0:	c018                	sw	a4,0(s0)
80005de2:	c380                	sw	s0,0(a5)
80005de4:	40b2                	lw	ra,12(sp)
80005de6:	4422                	lw	s0,8(sp)
80005de8:	4492                	lw	s1,4(sp)
80005dea:	0141                	addi	sp,sp,16
80005dec:	8082                	ret

80005dee <__multadd>:
__multadd():
80005dee:	1101                	addi	sp,sp,-32
80005df0:	cc22                	sw	s0,24(sp)
80005df2:	c84a                	sw	s2,16(sp)
80005df4:	c64e                	sw	s3,12(sp)
80005df6:	0105a903          	lw	s2,16(a1)
80005dfa:	842e                	mv	s0,a1
80005dfc:	89b6                	mv	s3,a3
80005dfe:	01458693          	addi	a3,a1,20
80005e02:	65c1                	lui	a1,0x10
80005e04:	ca26                	sw	s1,20(sp)
80005e06:	ce06                	sw	ra,28(sp)
80005e08:	84aa                	mv	s1,a0
80005e0a:	c452                	sw	s4,8(sp)
80005e0c:	4501                	li	a0,0
80005e0e:	15fd                	addi	a1,a1,-1
80005e10:	429c                	lw	a5,0(a3)
80005e12:	0691                	addi	a3,a3,4
80005e14:	0505                	addi	a0,a0,1
80005e16:	00b7f733          	and	a4,a5,a1
80005e1a:	02c70733          	mul	a4,a4,a2
80005e1e:	83c1                	srli	a5,a5,0x10
80005e20:	02c787b3          	mul	a5,a5,a2
80005e24:	974e                	add	a4,a4,s3
80005e26:	01075813          	srli	a6,a4,0x10
80005e2a:	8f6d                	and	a4,a4,a1
80005e2c:	97c2                	add	a5,a5,a6
80005e2e:	0107d993          	srli	s3,a5,0x10
80005e32:	07c2                	slli	a5,a5,0x10
80005e34:	97ba                	add	a5,a5,a4
80005e36:	fef6ae23          	sw	a5,-4(a3)
80005e3a:	fd254be3          	blt	a0,s2,80005e10 <__multadd+0x22>
80005e3e:	04098f63          	beqz	s3,80005e9c <__multadd+0xae>
80005e42:	441c                	lw	a5,8(s0)
80005e44:	04f94363          	blt	s2,a5,80005e8a <__multadd+0x9c>
80005e48:	404c                	lw	a1,4(s0)
80005e4a:	8526                	mv	a0,s1
80005e4c:	0585                	addi	a1,a1,1
80005e4e:	e91ff0ef          	jal	ra,80005cde <_Balloc>
80005e52:	8a2a                	mv	s4,a0
80005e54:	ed11                	bnez	a0,80005e70 <__multadd+0x82>
80005e56:	00003697          	auipc	a3,0x3
80005e5a:	55a68693          	addi	a3,a3,1370 # 800093b0 <__clz_tab+0x210>
80005e5e:	4601                	li	a2,0
80005e60:	0b500593          	li	a1,181
80005e64:	00003517          	auipc	a0,0x3
80005e68:	5c050513          	addi	a0,a0,1472 # 80009424 <__sf_fake_stdout+0x20>
80005e6c:	4cb000ef          	jal	ra,80006b36 <__assert_func>
80005e70:	4810                	lw	a2,16(s0)
80005e72:	00c40593          	addi	a1,s0,12
80005e76:	0531                	addi	a0,a0,12
80005e78:	0609                	addi	a2,a2,2
80005e7a:	060a                	slli	a2,a2,0x2
80005e7c:	cdfff0ef          	jal	ra,80005b5a <memcpy>
80005e80:	85a2                	mv	a1,s0
80005e82:	8526                	mv	a0,s1
80005e84:	f09ff0ef          	jal	ra,80005d8c <_Bfree>
80005e88:	8452                	mv	s0,s4
80005e8a:	00490793          	addi	a5,s2,4
80005e8e:	078a                	slli	a5,a5,0x2
80005e90:	97a2                	add	a5,a5,s0
80005e92:	0137a223          	sw	s3,4(a5)
80005e96:	0905                	addi	s2,s2,1
80005e98:	01242823          	sw	s2,16(s0)
80005e9c:	40f2                	lw	ra,28(sp)
80005e9e:	8522                	mv	a0,s0
80005ea0:	4462                	lw	s0,24(sp)
80005ea2:	44d2                	lw	s1,20(sp)
80005ea4:	4942                	lw	s2,16(sp)
80005ea6:	49b2                	lw	s3,12(sp)
80005ea8:	4a22                	lw	s4,8(sp)
80005eaa:	6105                	addi	sp,sp,32
80005eac:	8082                	ret

80005eae <__hi0bits>:
__hi0bits():
80005eae:	7741                	lui	a4,0xffff0
80005eb0:	8f69                	and	a4,a4,a0
80005eb2:	87aa                	mv	a5,a0
80005eb4:	4501                	li	a0,0
80005eb6:	e319                	bnez	a4,80005ebc <__hi0bits+0xe>
80005eb8:	07c2                	slli	a5,a5,0x10
80005eba:	4541                	li	a0,16
80005ebc:	ff000737          	lui	a4,0xff000
80005ec0:	8f7d                	and	a4,a4,a5
80005ec2:	e319                	bnez	a4,80005ec8 <__hi0bits+0x1a>
80005ec4:	0521                	addi	a0,a0,8
80005ec6:	07a2                	slli	a5,a5,0x8
80005ec8:	f0000737          	lui	a4,0xf0000
80005ecc:	8f7d                	and	a4,a4,a5
80005ece:	e319                	bnez	a4,80005ed4 <__hi0bits+0x26>
80005ed0:	0511                	addi	a0,a0,4
80005ed2:	0792                	slli	a5,a5,0x4
80005ed4:	c0000737          	lui	a4,0xc0000
80005ed8:	8f7d                	and	a4,a4,a5
80005eda:	e319                	bnez	a4,80005ee0 <__hi0bits+0x32>
80005edc:	0509                	addi	a0,a0,2
80005ede:	078a                	slli	a5,a5,0x2
80005ee0:	0007c963          	bltz	a5,80005ef2 <__hi0bits+0x44>
80005ee4:	40000737          	lui	a4,0x40000
80005ee8:	8ff9                	and	a5,a5,a4
80005eea:	0505                	addi	a0,a0,1
80005eec:	e399                	bnez	a5,80005ef2 <__hi0bits+0x44>
80005eee:	02000513          	li	a0,32
80005ef2:	8082                	ret

80005ef4 <__lo0bits>:
__lo0bits():
80005ef4:	411c                	lw	a5,0(a0)
80005ef6:	872a                	mv	a4,a0
80005ef8:	0077f693          	andi	a3,a5,7
80005efc:	c285                	beqz	a3,80005f1c <__lo0bits+0x28>
80005efe:	0017f693          	andi	a3,a5,1
80005f02:	4501                	li	a0,0
80005f04:	eea1                	bnez	a3,80005f5c <__lo0bits+0x68>
80005f06:	0027f693          	andi	a3,a5,2
80005f0a:	c689                	beqz	a3,80005f14 <__lo0bits+0x20>
80005f0c:	8385                	srli	a5,a5,0x1
80005f0e:	c31c                	sw	a5,0(a4)
80005f10:	4505                	li	a0,1
80005f12:	8082                	ret
80005f14:	8389                	srli	a5,a5,0x2
80005f16:	c31c                	sw	a5,0(a4)
80005f18:	4509                	li	a0,2
80005f1a:	8082                	ret
80005f1c:	01079693          	slli	a3,a5,0x10
80005f20:	82c1                	srli	a3,a3,0x10
80005f22:	4501                	li	a0,0
80005f24:	e299                	bnez	a3,80005f2a <__lo0bits+0x36>
80005f26:	83c1                	srli	a5,a5,0x10
80005f28:	4541                	li	a0,16
80005f2a:	0ff7f693          	zext.b	a3,a5
80005f2e:	e299                	bnez	a3,80005f34 <__lo0bits+0x40>
80005f30:	0521                	addi	a0,a0,8
80005f32:	83a1                	srli	a5,a5,0x8
80005f34:	00f7f693          	andi	a3,a5,15
80005f38:	e299                	bnez	a3,80005f3e <__lo0bits+0x4a>
80005f3a:	0511                	addi	a0,a0,4
80005f3c:	8391                	srli	a5,a5,0x4
80005f3e:	0037f693          	andi	a3,a5,3
80005f42:	e299                	bnez	a3,80005f48 <__lo0bits+0x54>
80005f44:	0509                	addi	a0,a0,2
80005f46:	8389                	srli	a5,a5,0x2
80005f48:	0017f693          	andi	a3,a5,1
80005f4c:	e681                	bnez	a3,80005f54 <__lo0bits+0x60>
80005f4e:	8385                	srli	a5,a5,0x1
80005f50:	0505                	addi	a0,a0,1
80005f52:	c399                	beqz	a5,80005f58 <__lo0bits+0x64>
80005f54:	c31c                	sw	a5,0(a4)
80005f56:	8082                	ret
80005f58:	02000513          	li	a0,32
80005f5c:	8082                	ret

80005f5e <__i2b>:
__i2b():
80005f5e:	1141                	addi	sp,sp,-16
80005f60:	c422                	sw	s0,8(sp)
80005f62:	842e                	mv	s0,a1
80005f64:	4585                	li	a1,1
80005f66:	c606                	sw	ra,12(sp)
80005f68:	d77ff0ef          	jal	ra,80005cde <_Balloc>
80005f6c:	ed11                	bnez	a0,80005f88 <__i2b+0x2a>
80005f6e:	00003697          	auipc	a3,0x3
80005f72:	44268693          	addi	a3,a3,1090 # 800093b0 <__clz_tab+0x210>
80005f76:	4601                	li	a2,0
80005f78:	14000593          	li	a1,320
80005f7c:	00003517          	auipc	a0,0x3
80005f80:	4a850513          	addi	a0,a0,1192 # 80009424 <__sf_fake_stdout+0x20>
80005f84:	3b3000ef          	jal	ra,80006b36 <__assert_func>
80005f88:	40b2                	lw	ra,12(sp)
80005f8a:	c940                	sw	s0,20(a0)
80005f8c:	4422                	lw	s0,8(sp)
80005f8e:	4705                	li	a4,1
80005f90:	c918                	sw	a4,16(a0)
80005f92:	0141                	addi	sp,sp,16
80005f94:	8082                	ret

80005f96 <__multiply>:
__multiply():
80005f96:	4998                	lw	a4,16(a1)
80005f98:	4a1c                	lw	a5,16(a2)
80005f9a:	1101                	addi	sp,sp,-32
80005f9c:	cc22                	sw	s0,24(sp)
80005f9e:	c84a                	sw	s2,16(sp)
80005fa0:	ce06                	sw	ra,28(sp)
80005fa2:	ca26                	sw	s1,20(sp)
80005fa4:	c64e                	sw	s3,12(sp)
80005fa6:	c452                	sw	s4,8(sp)
80005fa8:	842e                	mv	s0,a1
80005faa:	8932                	mv	s2,a2
80005fac:	00f75463          	bge	a4,a5,80005fb4 <__multiply+0x1e>
80005fb0:	8432                	mv	s0,a2
80005fb2:	892e                	mv	s2,a1
80005fb4:	01042a03          	lw	s4,16(s0)
80005fb8:	01092983          	lw	s3,16(s2)
80005fbc:	441c                	lw	a5,8(s0)
80005fbe:	404c                	lw	a1,4(s0)
80005fc0:	013a04b3          	add	s1,s4,s3
80005fc4:	0097d363          	bge	a5,s1,80005fca <__multiply+0x34>
80005fc8:	0585                	addi	a1,a1,1
80005fca:	d15ff0ef          	jal	ra,80005cde <_Balloc>
80005fce:	ed11                	bnez	a0,80005fea <__multiply+0x54>
80005fd0:	00003697          	auipc	a3,0x3
80005fd4:	3e068693          	addi	a3,a3,992 # 800093b0 <__clz_tab+0x210>
80005fd8:	4601                	li	a2,0
80005fda:	15d00593          	li	a1,349
80005fde:	00003517          	auipc	a0,0x3
80005fe2:	44650513          	addi	a0,a0,1094 # 80009424 <__sf_fake_stdout+0x20>
80005fe6:	351000ef          	jal	ra,80006b36 <__assert_func>
80005fea:	01450693          	addi	a3,a0,20
80005fee:	00249813          	slli	a6,s1,0x2
80005ff2:	9836                	add	a6,a6,a3
80005ff4:	87b6                	mv	a5,a3
80005ff6:	0507ea63          	bltu	a5,a6,8000604a <__multiply+0xb4>
80005ffa:	01440313          	addi	t1,s0,20
80005ffe:	002a1593          	slli	a1,s4,0x2
80006002:	01490613          	addi	a2,s2,20
80006006:	00299893          	slli	a7,s3,0x2
8000600a:	959a                	add	a1,a1,t1
8000600c:	01540793          	addi	a5,s0,21
80006010:	98b2                	add	a7,a7,a2
80006012:	4e11                	li	t3,4
80006014:	00f5e863          	bltu	a1,a5,80006024 <__multiply+0x8e>
80006018:	40858433          	sub	s0,a1,s0
8000601c:	142d                	addi	s0,s0,-21
8000601e:	9871                	andi	s0,s0,-4
80006020:	00440e13          	addi	t3,s0,4
80006024:	6ec1                	lui	t4,0x10
80006026:	1efd                	addi	t4,t4,-1
80006028:	03166563          	bltu	a2,a7,80006052 <__multiply+0xbc>
8000602c:	00905663          	blez	s1,80006038 <__multiply+0xa2>
80006030:	ffc82783          	lw	a5,-4(a6)
80006034:	1871                	addi	a6,a6,-4
80006036:	cff1                	beqz	a5,80006112 <__multiply+0x17c>
80006038:	40f2                	lw	ra,28(sp)
8000603a:	4462                	lw	s0,24(sp)
8000603c:	c904                	sw	s1,16(a0)
8000603e:	4942                	lw	s2,16(sp)
80006040:	44d2                	lw	s1,20(sp)
80006042:	49b2                	lw	s3,12(sp)
80006044:	4a22                	lw	s4,8(sp)
80006046:	6105                	addi	sp,sp,32
80006048:	8082                	ret
8000604a:	0007a023          	sw	zero,0(a5)
8000604e:	0791                	addi	a5,a5,4
80006050:	b75d                	j	80005ff6 <__multiply+0x60>
80006052:	00062f83          	lw	t6,0(a2)
80006056:	01dfffb3          	and	t6,t6,t4
8000605a:	040f8b63          	beqz	t6,800060b0 <__multiply+0x11a>
8000605e:	83b6                	mv	t2,a3
80006060:	829a                	mv	t0,t1
80006062:	4901                	li	s2,0
80006064:	0002a703          	lw	a4,0(t0) # 80005cc4 <memset+0x8e>
80006068:	0003a403          	lw	s0,0(t2)
8000606c:	0391                	addi	t2,t2,4
8000606e:	01d77f33          	and	t5,a4,t4
80006072:	03ff0f33          	mul	t5,t5,t6
80006076:	01d477b3          	and	a5,s0,t4
8000607a:	8041                	srli	s0,s0,0x10
8000607c:	0291                	addi	t0,t0,4
8000607e:	9f3e                	add	t5,t5,a5
80006080:	01075793          	srli	a5,a4,0x10
80006084:	03f787b3          	mul	a5,a5,t6
80006088:	9f4a                	add	t5,t5,s2
8000608a:	010f5713          	srli	a4,t5,0x10
8000608e:	01df7f33          	and	t5,t5,t4
80006092:	97a2                	add	a5,a5,s0
80006094:	97ba                	add	a5,a5,a4
80006096:	0107d913          	srli	s2,a5,0x10
8000609a:	07c2                	slli	a5,a5,0x10
8000609c:	01e7e7b3          	or	a5,a5,t5
800060a0:	fef3ae23          	sw	a5,-4(t2)
800060a4:	fcb2e0e3          	bltu	t0,a1,80006064 <__multiply+0xce>
800060a8:	01c687b3          	add	a5,a3,t3
800060ac:	0127a023          	sw	s2,0(a5)
800060b0:	00265383          	lhu	t2,2(a2)
800060b4:	04038c63          	beqz	t2,8000610c <__multiply+0x176>
800060b8:	429c                	lw	a5,0(a3)
800060ba:	8fb6                	mv	t6,a3
800060bc:	8f1a                	mv	t5,t1
800060be:	4281                	li	t0,0
800060c0:	000f2703          	lw	a4,0(t5)
800060c4:	002fd403          	lhu	s0,2(t6)
800060c8:	01d7f7b3          	and	a5,a5,t4
800060cc:	01d77733          	and	a4,a4,t4
800060d0:	02770733          	mul	a4,a4,t2
800060d4:	0f91                	addi	t6,t6,4
800060d6:	0f11                	addi	t5,t5,4
800060d8:	9722                	add	a4,a4,s0
800060da:	9716                	add	a4,a4,t0
800060dc:	01071293          	slli	t0,a4,0x10
800060e0:	00f2e7b3          	or	a5,t0,a5
800060e4:	feffae23          	sw	a5,-4(t6)
800060e8:	ffef5783          	lhu	a5,-2(t5)
800060ec:	000fa283          	lw	t0,0(t6)
800060f0:	8341                	srli	a4,a4,0x10
800060f2:	027787b3          	mul	a5,a5,t2
800060f6:	01d2f2b3          	and	t0,t0,t4
800060fa:	9796                	add	a5,a5,t0
800060fc:	97ba                	add	a5,a5,a4
800060fe:	0107d293          	srli	t0,a5,0x10
80006102:	fabf6fe3          	bltu	t5,a1,800060c0 <__multiply+0x12a>
80006106:	01c68733          	add	a4,a3,t3
8000610a:	c31c                	sw	a5,0(a4)
8000610c:	0611                	addi	a2,a2,4
8000610e:	0691                	addi	a3,a3,4
80006110:	bf21                	j	80006028 <__multiply+0x92>
80006112:	14fd                	addi	s1,s1,-1
80006114:	bf21                	j	8000602c <__multiply+0x96>

80006116 <__pow5mult>:
__pow5mult():
80006116:	1101                	addi	sp,sp,-32
80006118:	ca26                	sw	s1,20(sp)
8000611a:	c84a                	sw	s2,16(sp)
8000611c:	c64e                	sw	s3,12(sp)
8000611e:	ce06                	sw	ra,28(sp)
80006120:	cc22                	sw	s0,24(sp)
80006122:	c452                	sw	s4,8(sp)
80006124:	00367793          	andi	a5,a2,3
80006128:	892a                	mv	s2,a0
8000612a:	84b2                	mv	s1,a2
8000612c:	89ae                	mv	s3,a1
8000612e:	cf89                	beqz	a5,80006148 <__pow5mult+0x32>
80006130:	17fd                	addi	a5,a5,-1
80006132:	00003717          	auipc	a4,0x3
80006136:	43670713          	addi	a4,a4,1078 # 80009568 <p05.0>
8000613a:	078a                	slli	a5,a5,0x2
8000613c:	97ba                	add	a5,a5,a4
8000613e:	4390                	lw	a2,0(a5)
80006140:	4681                	li	a3,0
80006142:	cadff0ef          	jal	ra,80005dee <__multadd>
80006146:	89aa                	mv	s3,a0
80006148:	8489                	srai	s1,s1,0x2
8000614a:	c8d1                	beqz	s1,800061de <__pow5mult+0xc8>
8000614c:	02492783          	lw	a5,36(s2)
80006150:	ef85                	bnez	a5,80006188 <__pow5mult+0x72>
80006152:	4541                	li	a0,16
80006154:	9dfff0ef          	jal	ra,80005b32 <malloc>
80006158:	02a92223          	sw	a0,36(s2)
8000615c:	ed11                	bnez	a0,80006178 <__pow5mult+0x62>
8000615e:	00003697          	auipc	a3,0x3
80006162:	1e668693          	addi	a3,a3,486 # 80009344 <__clz_tab+0x1a4>
80006166:	4601                	li	a2,0
80006168:	1ae00593          	li	a1,430
8000616c:	00003517          	auipc	a0,0x3
80006170:	2b850513          	addi	a0,a0,696 # 80009424 <__sf_fake_stdout+0x20>
80006174:	1c3000ef          	jal	ra,80006b36 <__assert_func>
80006178:	00052223          	sw	zero,4(a0)
8000617c:	00052423          	sw	zero,8(a0)
80006180:	00052023          	sw	zero,0(a0)
80006184:	00052623          	sw	zero,12(a0)
80006188:	02492a03          	lw	s4,36(s2)
8000618c:	008a2403          	lw	s0,8(s4)
80006190:	e819                	bnez	s0,800061a6 <__pow5mult+0x90>
80006192:	27100593          	li	a1,625
80006196:	854a                	mv	a0,s2
80006198:	dc7ff0ef          	jal	ra,80005f5e <__i2b>
8000619c:	00aa2423          	sw	a0,8(s4)
800061a0:	842a                	mv	s0,a0
800061a2:	00052023          	sw	zero,0(a0)
800061a6:	0014f793          	andi	a5,s1,1
800061aa:	cf81                	beqz	a5,800061c2 <__pow5mult+0xac>
800061ac:	85ce                	mv	a1,s3
800061ae:	8622                	mv	a2,s0
800061b0:	854a                	mv	a0,s2
800061b2:	de5ff0ef          	jal	ra,80005f96 <__multiply>
800061b6:	8a2a                	mv	s4,a0
800061b8:	85ce                	mv	a1,s3
800061ba:	854a                	mv	a0,s2
800061bc:	bd1ff0ef          	jal	ra,80005d8c <_Bfree>
800061c0:	89d2                	mv	s3,s4
800061c2:	8485                	srai	s1,s1,0x1
800061c4:	cc89                	beqz	s1,800061de <__pow5mult+0xc8>
800061c6:	4008                	lw	a0,0(s0)
800061c8:	e909                	bnez	a0,800061da <__pow5mult+0xc4>
800061ca:	8622                	mv	a2,s0
800061cc:	85a2                	mv	a1,s0
800061ce:	854a                	mv	a0,s2
800061d0:	dc7ff0ef          	jal	ra,80005f96 <__multiply>
800061d4:	c008                	sw	a0,0(s0)
800061d6:	00052023          	sw	zero,0(a0)
800061da:	842a                	mv	s0,a0
800061dc:	b7e9                	j	800061a6 <__pow5mult+0x90>
800061de:	40f2                	lw	ra,28(sp)
800061e0:	4462                	lw	s0,24(sp)
800061e2:	44d2                	lw	s1,20(sp)
800061e4:	4942                	lw	s2,16(sp)
800061e6:	4a22                	lw	s4,8(sp)
800061e8:	854e                	mv	a0,s3
800061ea:	49b2                	lw	s3,12(sp)
800061ec:	6105                	addi	sp,sp,32
800061ee:	8082                	ret

800061f0 <__lshift>:
__lshift():
800061f0:	1101                	addi	sp,sp,-32
800061f2:	cc22                	sw	s0,24(sp)
800061f4:	842e                	mv	s0,a1
800061f6:	c05a                	sw	s6,0(sp)
800061f8:	01042b03          	lw	s6,16(s0)
800061fc:	ca26                	sw	s1,20(sp)
800061fe:	41cc                	lw	a1,4(a1)
80006200:	40565493          	srai	s1,a2,0x5
80006204:	441c                	lw	a5,8(s0)
80006206:	9b26                	add	s6,s6,s1
80006208:	c84a                	sw	s2,16(sp)
8000620a:	c452                	sw	s4,8(sp)
8000620c:	c256                	sw	s5,4(sp)
8000620e:	ce06                	sw	ra,28(sp)
80006210:	c64e                	sw	s3,12(sp)
80006212:	8aaa                	mv	s5,a0
80006214:	8932                	mv	s2,a2
80006216:	001b0a13          	addi	s4,s6,1
8000621a:	0347c463          	blt	a5,s4,80006242 <__lshift+0x52>
8000621e:	8556                	mv	a0,s5
80006220:	abfff0ef          	jal	ra,80005cde <_Balloc>
80006224:	89aa                	mv	s3,a0
80006226:	e10d                	bnez	a0,80006248 <__lshift+0x58>
80006228:	00003697          	auipc	a3,0x3
8000622c:	18868693          	addi	a3,a3,392 # 800093b0 <__clz_tab+0x210>
80006230:	4601                	li	a2,0
80006232:	1d900593          	li	a1,473
80006236:	00003517          	auipc	a0,0x3
8000623a:	1ee50513          	addi	a0,a0,494 # 80009424 <__sf_fake_stdout+0x20>
8000623e:	0f9000ef          	jal	ra,80006b36 <__assert_func>
80006242:	0585                	addi	a1,a1,1
80006244:	0786                	slli	a5,a5,0x1
80006246:	bfd1                	j	8000621a <__lshift+0x2a>
80006248:	01450793          	addi	a5,a0,20
8000624c:	86be                	mv	a3,a5
8000624e:	4701                	li	a4,0
80006250:	0691                	addi	a3,a3,4
80006252:	08974563          	blt	a4,s1,800062dc <__lshift+0xec>
80006256:	0004d363          	bgez	s1,8000625c <__lshift+0x6c>
8000625a:	4481                	li	s1,0
8000625c:	048a                	slli	s1,s1,0x2
8000625e:	009786b3          	add	a3,a5,s1
80006262:	481c                	lw	a5,16(s0)
80006264:	01440713          	addi	a4,s0,20
80006268:	01f97613          	andi	a2,s2,31
8000626c:	078a                	slli	a5,a5,0x2
8000626e:	97ba                	add	a5,a5,a4
80006270:	ca35                	beqz	a2,800062e4 <__lshift+0xf4>
80006272:	02000813          	li	a6,32
80006276:	40c80833          	sub	a6,a6,a2
8000627a:	88b6                	mv	a7,a3
8000627c:	4581                	li	a1,0
8000627e:	4308                	lw	a0,0(a4)
80006280:	0891                	addi	a7,a7,4
80006282:	0711                	addi	a4,a4,4
80006284:	00c51533          	sll	a0,a0,a2
80006288:	8dc9                	or	a1,a1,a0
8000628a:	feb8ae23          	sw	a1,-4(a7) # fcbffffc <_sp+0x6cbefffc>
8000628e:	ffc72583          	lw	a1,-4(a4)
80006292:	0105d5b3          	srl	a1,a1,a6
80006296:	fef764e3          	bltu	a4,a5,8000627e <__lshift+0x8e>
8000629a:	01540713          	addi	a4,s0,21
8000629e:	4611                	li	a2,4
800062a0:	00e7e763          	bltu	a5,a4,800062ae <__lshift+0xbe>
800062a4:	8f81                	sub	a5,a5,s0
800062a6:	17ad                	addi	a5,a5,-21
800062a8:	9bf1                	andi	a5,a5,-4
800062aa:	00478613          	addi	a2,a5,4
800062ae:	96b2                	add	a3,a3,a2
800062b0:	c28c                	sw	a1,0(a3)
800062b2:	c199                	beqz	a1,800062b8 <__lshift+0xc8>
800062b4:	002b0a13          	addi	s4,s6,2
800062b8:	1a7d                	addi	s4,s4,-1
800062ba:	0149a823          	sw	s4,16(s3)
800062be:	8556                	mv	a0,s5
800062c0:	85a2                	mv	a1,s0
800062c2:	acbff0ef          	jal	ra,80005d8c <_Bfree>
800062c6:	40f2                	lw	ra,28(sp)
800062c8:	4462                	lw	s0,24(sp)
800062ca:	44d2                	lw	s1,20(sp)
800062cc:	4942                	lw	s2,16(sp)
800062ce:	4a22                	lw	s4,8(sp)
800062d0:	4a92                	lw	s5,4(sp)
800062d2:	4b02                	lw	s6,0(sp)
800062d4:	854e                	mv	a0,s3
800062d6:	49b2                	lw	s3,12(sp)
800062d8:	6105                	addi	sp,sp,32
800062da:	8082                	ret
800062dc:	fe06ae23          	sw	zero,-4(a3)
800062e0:	0705                	addi	a4,a4,1
800062e2:	b7bd                	j	80006250 <__lshift+0x60>
800062e4:	4310                	lw	a2,0(a4)
800062e6:	0711                	addi	a4,a4,4
800062e8:	0691                	addi	a3,a3,4
800062ea:	fec6ae23          	sw	a2,-4(a3)
800062ee:	fef76be3          	bltu	a4,a5,800062e4 <__lshift+0xf4>
800062f2:	b7d9                	j	800062b8 <__lshift+0xc8>

800062f4 <__mcmp>:
__mcmp():
800062f4:	4914                	lw	a3,16(a0)
800062f6:	4998                	lw	a4,16(a1)
800062f8:	87aa                	mv	a5,a0
800062fa:	40e68533          	sub	a0,a3,a4
800062fe:	02e69563          	bne	a3,a4,80006328 <__mcmp+0x34>
80006302:	070a                	slli	a4,a4,0x2
80006304:	07d1                	addi	a5,a5,20
80006306:	05d1                	addi	a1,a1,20
80006308:	00e786b3          	add	a3,a5,a4
8000630c:	95ba                	add	a1,a1,a4
8000630e:	16f1                	addi	a3,a3,-4
80006310:	15f1                	addi	a1,a1,-4
80006312:	4290                	lw	a2,0(a3)
80006314:	4198                	lw	a4,0(a1)
80006316:	00e60763          	beq	a2,a4,80006324 <__mcmp+0x30>
8000631a:	557d                	li	a0,-1
8000631c:	00e66663          	bltu	a2,a4,80006328 <__mcmp+0x34>
80006320:	4505                	li	a0,1
80006322:	8082                	ret
80006324:	fed7e5e3          	bltu	a5,a3,8000630e <__mcmp+0x1a>
80006328:	8082                	ret

8000632a <__mdiff>:
__mdiff():
8000632a:	1101                	addi	sp,sp,-32
8000632c:	cc22                	sw	s0,24(sp)
8000632e:	842e                	mv	s0,a1
80006330:	c84a                	sw	s2,16(sp)
80006332:	85b2                	mv	a1,a2
80006334:	892a                	mv	s2,a0
80006336:	8522                	mv	a0,s0
80006338:	ca26                	sw	s1,20(sp)
8000633a:	ce06                	sw	ra,28(sp)
8000633c:	c64e                	sw	s3,12(sp)
8000633e:	84b2                	mv	s1,a2
80006340:	fb5ff0ef          	jal	ra,800062f4 <__mcmp>
80006344:	ed15                	bnez	a0,80006380 <__mdiff+0x56>
80006346:	4581                	li	a1,0
80006348:	854a                	mv	a0,s2
8000634a:	995ff0ef          	jal	ra,80005cde <_Balloc>
8000634e:	ed11                	bnez	a0,8000636a <__mdiff+0x40>
80006350:	00003697          	auipc	a3,0x3
80006354:	06068693          	addi	a3,a3,96 # 800093b0 <__clz_tab+0x210>
80006358:	4601                	li	a2,0
8000635a:	23200593          	li	a1,562
8000635e:	00003517          	auipc	a0,0x3
80006362:	0c650513          	addi	a0,a0,198 # 80009424 <__sf_fake_stdout+0x20>
80006366:	7d0000ef          	jal	ra,80006b36 <__assert_func>
8000636a:	4785                	li	a5,1
8000636c:	c91c                	sw	a5,16(a0)
8000636e:	00052a23          	sw	zero,20(a0)
80006372:	40f2                	lw	ra,28(sp)
80006374:	4462                	lw	s0,24(sp)
80006376:	44d2                	lw	s1,20(sp)
80006378:	4942                	lw	s2,16(sp)
8000637a:	49b2                	lw	s3,12(sp)
8000637c:	6105                	addi	sp,sp,32
8000637e:	8082                	ret
80006380:	4985                	li	s3,1
80006382:	00054663          	bltz	a0,8000638e <__mdiff+0x64>
80006386:	87a6                	mv	a5,s1
80006388:	4981                	li	s3,0
8000638a:	84a2                	mv	s1,s0
8000638c:	843e                	mv	s0,a5
8000638e:	40cc                	lw	a1,4(s1)
80006390:	854a                	mv	a0,s2
80006392:	94dff0ef          	jal	ra,80005cde <_Balloc>
80006396:	e909                	bnez	a0,800063a8 <__mdiff+0x7e>
80006398:	00003697          	auipc	a3,0x3
8000639c:	01868693          	addi	a3,a3,24 # 800093b0 <__clz_tab+0x210>
800063a0:	4601                	li	a2,0
800063a2:	24000593          	li	a1,576
800063a6:	bf65                	j	8000635e <__mdiff+0x34>
800063a8:	0104a803          	lw	a6,16(s1)
800063ac:	4818                	lw	a4,16(s0)
800063ae:	01448893          	addi	a7,s1,20
800063b2:	00281693          	slli	a3,a6,0x2
800063b6:	01440793          	addi	a5,s0,20
800063ba:	070a                	slli	a4,a4,0x2
800063bc:	6ec1                	lui	t4,0x10
800063be:	01352623          	sw	s3,12(a0)
800063c2:	96c6                	add	a3,a3,a7
800063c4:	97ba                	add	a5,a5,a4
800063c6:	01450613          	addi	a2,a0,20
800063ca:	4e51                	li	t3,20
800063cc:	4301                	li	t1,0
800063ce:	1efd                	addi	t4,t4,-1
800063d0:	01c48733          	add	a4,s1,t3
800063d4:	4318                	lw	a4,0(a4)
800063d6:	01c405b3          	add	a1,s0,t3
800063da:	0005af03          	lw	t5,0(a1) # 10000 <__stack_size+0xf800>
800063de:	01d775b3          	and	a1,a4,t4
800063e2:	959a                	add	a1,a1,t1
800063e4:	01df7333          	and	t1,t5,t4
800063e8:	406585b3          	sub	a1,a1,t1
800063ec:	010f5f13          	srli	t5,t5,0x10
800063f0:	8341                	srli	a4,a4,0x10
800063f2:	4105d313          	srai	t1,a1,0x10
800063f6:	41e70733          	sub	a4,a4,t5
800063fa:	971a                	add	a4,a4,t1
800063fc:	41075313          	srai	t1,a4,0x10
80006400:	01d5f5b3          	and	a1,a1,t4
80006404:	0742                	slli	a4,a4,0x10
80006406:	01c50f33          	add	t5,a0,t3
8000640a:	8f4d                	or	a4,a4,a1
8000640c:	0e11                	addi	t3,t3,4
8000640e:	00ef2023          	sw	a4,0(t5)
80006412:	008e0733          	add	a4,t3,s0
80006416:	faf76de3          	bltu	a4,a5,800063d0 <__mdiff+0xa6>
8000641a:	01540593          	addi	a1,s0,21
8000641e:	4711                	li	a4,4
80006420:	00b7e763          	bltu	a5,a1,8000642e <__mdiff+0x104>
80006424:	8f81                	sub	a5,a5,s0
80006426:	17ad                	addi	a5,a5,-21
80006428:	9bf1                	andi	a5,a5,-4
8000642a:	00478713          	addi	a4,a5,4
8000642e:	98ba                	add	a7,a7,a4
80006430:	6e41                	lui	t3,0x10
80006432:	9732                	add	a4,a4,a2
80006434:	8eba                	mv	t4,a4
80006436:	85c6                	mv	a1,a7
80006438:	1e7d                	addi	t3,t3,-1
8000643a:	02d5e263          	bltu	a1,a3,8000645e <__mdiff+0x134>
8000643e:	ffd88613          	addi	a2,a7,-3
80006442:	4781                	li	a5,0
80006444:	00c6e663          	bltu	a3,a2,80006450 <__mdiff+0x126>
80006448:	068d                	addi	a3,a3,3
8000644a:	411687b3          	sub	a5,a3,a7
8000644e:	9bf1                	andi	a5,a5,-4
80006450:	97ba                	add	a5,a5,a4
80006452:	17f1                	addi	a5,a5,-4
80006454:	4398                	lw	a4,0(a5)
80006456:	c71d                	beqz	a4,80006484 <__mdiff+0x15a>
80006458:	01052823          	sw	a6,16(a0)
8000645c:	bf19                	j	80006372 <__mdiff+0x48>
8000645e:	419c                	lw	a5,0(a1)
80006460:	0e91                	addi	t4,t4,4
80006462:	0591                	addi	a1,a1,4
80006464:	01c7f633          	and	a2,a5,t3
80006468:	961a                	add	a2,a2,t1
8000646a:	41065313          	srai	t1,a2,0x10
8000646e:	83c1                	srli	a5,a5,0x10
80006470:	979a                	add	a5,a5,t1
80006472:	4107d313          	srai	t1,a5,0x10
80006476:	01c67633          	and	a2,a2,t3
8000647a:	07c2                	slli	a5,a5,0x10
8000647c:	8fd1                	or	a5,a5,a2
8000647e:	fefeae23          	sw	a5,-4(t4) # fffc <__stack_size+0xf7fc>
80006482:	bf65                	j	8000643a <__mdiff+0x110>
80006484:	187d                	addi	a6,a6,-1
80006486:	b7f1                	j	80006452 <__mdiff+0x128>

80006488 <__d2b>:
__d2b():
80006488:	7179                	addi	sp,sp,-48
8000648a:	d226                	sw	s1,36(sp)
8000648c:	84ae                	mv	s1,a1
8000648e:	4585                	li	a1,1
80006490:	d422                	sw	s0,40(sp)
80006492:	d04a                	sw	s2,32(sp)
80006494:	ce4e                	sw	s3,28(sp)
80006496:	d606                	sw	ra,44(sp)
80006498:	cc52                	sw	s4,24(sp)
8000649a:	8432                	mv	s0,a2
8000649c:	89b6                	mv	s3,a3
8000649e:	893a                	mv	s2,a4
800064a0:	83fff0ef          	jal	ra,80005cde <_Balloc>
800064a4:	ed09                	bnez	a0,800064be <__d2b+0x36>
800064a6:	00003697          	auipc	a3,0x3
800064aa:	f0a68693          	addi	a3,a3,-246 # 800093b0 <__clz_tab+0x210>
800064ae:	4601                	li	a2,0
800064b0:	30a00593          	li	a1,778
800064b4:	00003517          	auipc	a0,0x3
800064b8:	f7050513          	addi	a0,a0,-144 # 80009424 <__sf_fake_stdout+0x20>
800064bc:	2dad                	jal	80006b36 <__assert_func>
800064be:	00100737          	lui	a4,0x100
800064c2:	fff70793          	addi	a5,a4,-1 # fffff <__stack_size+0xff7ff>
800064c6:	8fe1                	and	a5,a5,s0
800064c8:	8051                	srli	s0,s0,0x14
800064ca:	7ff47413          	andi	s0,s0,2047
800064ce:	8a2a                	mv	s4,a0
800064d0:	e035                	bnez	s0,80006534 <__d2b+0xac>
800064d2:	c63e                	sw	a5,12(sp)
800064d4:	c4ad                	beqz	s1,8000653e <__d2b+0xb6>
800064d6:	0028                	addi	a0,sp,8
800064d8:	c426                	sw	s1,8(sp)
800064da:	a1bff0ef          	jal	ra,80005ef4 <__lo0bits>
800064de:	46a2                	lw	a3,8(sp)
800064e0:	cd21                	beqz	a0,80006538 <__d2b+0xb0>
800064e2:	4732                	lw	a4,12(sp)
800064e4:	02000793          	li	a5,32
800064e8:	8f89                	sub	a5,a5,a0
800064ea:	00f717b3          	sll	a5,a4,a5
800064ee:	8fd5                	or	a5,a5,a3
800064f0:	00a75733          	srl	a4,a4,a0
800064f4:	00fa2a23          	sw	a5,20(s4)
800064f8:	c63a                	sw	a4,12(sp)
800064fa:	44b2                	lw	s1,12(sp)
800064fc:	009a2c23          	sw	s1,24(s4)
80006500:	009034b3          	snez	s1,s1
80006504:	0485                	addi	s1,s1,1
80006506:	009a2823          	sw	s1,16(s4)
8000650a:	c439                	beqz	s0,80006558 <__d2b+0xd0>
8000650c:	bcd40413          	addi	s0,s0,-1075
80006510:	942a                	add	s0,s0,a0
80006512:	03500793          	li	a5,53
80006516:	0089a023          	sw	s0,0(s3)
8000651a:	40a78533          	sub	a0,a5,a0
8000651e:	00a92023          	sw	a0,0(s2)
80006522:	50b2                	lw	ra,44(sp)
80006524:	5422                	lw	s0,40(sp)
80006526:	5492                	lw	s1,36(sp)
80006528:	5902                	lw	s2,32(sp)
8000652a:	49f2                	lw	s3,28(sp)
8000652c:	8552                	mv	a0,s4
8000652e:	4a62                	lw	s4,24(sp)
80006530:	6145                	addi	sp,sp,48
80006532:	8082                	ret
80006534:	8fd9                	or	a5,a5,a4
80006536:	bf71                	j	800064d2 <__d2b+0x4a>
80006538:	00da2a23          	sw	a3,20(s4)
8000653c:	bf7d                	j	800064fa <__d2b+0x72>
8000653e:	0068                	addi	a0,sp,12
80006540:	9b5ff0ef          	jal	ra,80005ef4 <__lo0bits>
80006544:	47b2                	lw	a5,12(sp)
80006546:	02050513          	addi	a0,a0,32
8000654a:	4485                	li	s1,1
8000654c:	00fa2a23          	sw	a5,20(s4)
80006550:	4785                	li	a5,1
80006552:	00fa2823          	sw	a5,16(s4)
80006556:	bf55                	j	8000650a <__d2b+0x82>
80006558:	bce50793          	addi	a5,a0,-1074
8000655c:	00f9a023          	sw	a5,0(s3)
80006560:	00249793          	slli	a5,s1,0x2
80006564:	97d2                	add	a5,a5,s4
80006566:	4b88                	lw	a0,16(a5)
80006568:	0496                	slli	s1,s1,0x5
8000656a:	945ff0ef          	jal	ra,80005eae <__hi0bits>
8000656e:	8c89                	sub	s1,s1,a0
80006570:	00992023          	sw	s1,0(s2)
80006574:	b77d                	j	80006522 <__d2b+0x9a>

80006576 <_calloc_r>:
_calloc_r():
80006576:	8732                	mv	a4,a2
80006578:	02e5b7b3          	mulhu	a5,a1,a4
8000657c:	1101                	addi	sp,sp,-32
8000657e:	ce06                	sw	ra,28(sp)
80006580:	cc22                	sw	s0,24(sp)
80006582:	02c58633          	mul	a2,a1,a2
80006586:	cb89                	beqz	a5,80006598 <_calloc_r+0x22>
80006588:	47b1                	li	a5,12
8000658a:	c11c                	sw	a5,0(a0)
8000658c:	4401                	li	s0,0
8000658e:	40f2                	lw	ra,28(sp)
80006590:	8522                	mv	a0,s0
80006592:	4462                	lw	s0,24(sp)
80006594:	6105                	addi	sp,sp,32
80006596:	8082                	ret
80006598:	85b2                	mv	a1,a2
8000659a:	c632                	sw	a2,12(sp)
8000659c:	207d                	jal	8000664a <_malloc_r>
8000659e:	842a                	mv	s0,a0
800065a0:	d57d                	beqz	a0,8000658e <_calloc_r+0x18>
800065a2:	4632                	lw	a2,12(sp)
800065a4:	4581                	li	a1,0
800065a6:	e90ff0ef          	jal	ra,80005c36 <memset>
800065aa:	b7d5                	j	8000658e <_calloc_r+0x18>

800065ac <_free_r>:
_free_r():
800065ac:	cdd1                	beqz	a1,80006648 <_free_r+0x9c>
800065ae:	ffc5a783          	lw	a5,-4(a1)
800065b2:	1101                	addi	sp,sp,-32
800065b4:	cc22                	sw	s0,24(sp)
800065b6:	ce06                	sw	ra,28(sp)
800065b8:	ffc58413          	addi	s0,a1,-4
800065bc:	0007d363          	bgez	a5,800065c2 <_free_r+0x16>
800065c0:	943e                	add	s0,s0,a5
800065c2:	c62a                	sw	a0,12(sp)
800065c4:	2d5d                	jal	80006c7a <__malloc_lock>
800065c6:	87018713          	addi	a4,gp,-1936 # 90000240 <__malloc_free_list>
800065ca:	431c                	lw	a5,0(a4)
800065cc:	4532                	lw	a0,12(sp)
800065ce:	eb81                	bnez	a5,800065de <_free_r+0x32>
800065d0:	00042223          	sw	zero,4(s0)
800065d4:	c300                	sw	s0,0(a4)
800065d6:	4462                	lw	s0,24(sp)
800065d8:	40f2                	lw	ra,28(sp)
800065da:	6105                	addi	sp,sp,32
800065dc:	a545                	j	80006c7c <__malloc_unlock>
800065de:	00f47d63          	bgeu	s0,a5,800065f8 <_free_r+0x4c>
800065e2:	4010                	lw	a2,0(s0)
800065e4:	00c406b3          	add	a3,s0,a2
800065e8:	00d79663          	bne	a5,a3,800065f4 <_free_r+0x48>
800065ec:	4394                	lw	a3,0(a5)
800065ee:	43dc                	lw	a5,4(a5)
800065f0:	96b2                	add	a3,a3,a2
800065f2:	c014                	sw	a3,0(s0)
800065f4:	c05c                	sw	a5,4(s0)
800065f6:	bff9                	j	800065d4 <_free_r+0x28>
800065f8:	873e                	mv	a4,a5
800065fa:	43dc                	lw	a5,4(a5)
800065fc:	c399                	beqz	a5,80006602 <_free_r+0x56>
800065fe:	fef47de3          	bgeu	s0,a5,800065f8 <_free_r+0x4c>
80006602:	4314                	lw	a3,0(a4)
80006604:	00d70633          	add	a2,a4,a3
80006608:	00861f63          	bne	a2,s0,80006626 <_free_r+0x7a>
8000660c:	4010                	lw	a2,0(s0)
8000660e:	96b2                	add	a3,a3,a2
80006610:	c314                	sw	a3,0(a4)
80006612:	00d70633          	add	a2,a4,a3
80006616:	fcc790e3          	bne	a5,a2,800065d6 <_free_r+0x2a>
8000661a:	4390                	lw	a2,0(a5)
8000661c:	43dc                	lw	a5,4(a5)
8000661e:	96b2                	add	a3,a3,a2
80006620:	c314                	sw	a3,0(a4)
80006622:	c35c                	sw	a5,4(a4)
80006624:	bf4d                	j	800065d6 <_free_r+0x2a>
80006626:	00c47563          	bgeu	s0,a2,80006630 <_free_r+0x84>
8000662a:	47b1                	li	a5,12
8000662c:	c11c                	sw	a5,0(a0)
8000662e:	b765                	j	800065d6 <_free_r+0x2a>
80006630:	4010                	lw	a2,0(s0)
80006632:	00c406b3          	add	a3,s0,a2
80006636:	00d79663          	bne	a5,a3,80006642 <_free_r+0x96>
8000663a:	4394                	lw	a3,0(a5)
8000663c:	43dc                	lw	a5,4(a5)
8000663e:	96b2                	add	a3,a3,a2
80006640:	c014                	sw	a3,0(s0)
80006642:	c05c                	sw	a5,4(s0)
80006644:	c340                	sw	s0,4(a4)
80006646:	bf41                	j	800065d6 <_free_r+0x2a>
80006648:	8082                	ret

8000664a <_malloc_r>:
_malloc_r():
8000664a:	1101                	addi	sp,sp,-32
8000664c:	ca26                	sw	s1,20(sp)
8000664e:	00358493          	addi	s1,a1,3
80006652:	98f1                	andi	s1,s1,-4
80006654:	c84a                	sw	s2,16(sp)
80006656:	ce06                	sw	ra,28(sp)
80006658:	cc22                	sw	s0,24(sp)
8000665a:	c64e                	sw	s3,12(sp)
8000665c:	04a1                	addi	s1,s1,8
8000665e:	47b1                	li	a5,12
80006660:	892a                	mv	s2,a0
80006662:	04f4f063          	bgeu	s1,a5,800066a2 <_malloc_r+0x58>
80006666:	44b1                	li	s1,12
80006668:	02b4ef63          	bltu	s1,a1,800066a6 <_malloc_r+0x5c>
8000666c:	854a                	mv	a0,s2
8000666e:	2531                	jal	80006c7a <__malloc_lock>
80006670:	87018693          	addi	a3,gp,-1936 # 90000240 <__malloc_free_list>
80006674:	4298                	lw	a4,0(a3)
80006676:	843a                	mv	s0,a4
80006678:	e031                	bnez	s0,800066bc <_malloc_r+0x72>
8000667a:	87418413          	addi	s0,gp,-1932 # 90000244 <__malloc_sbrk_start>
8000667e:	401c                	lw	a5,0(s0)
80006680:	e789                	bnez	a5,8000668a <_malloc_r+0x40>
80006682:	4581                	li	a1,0
80006684:	854a                	mv	a0,s2
80006686:	264d                	jal	80006a28 <_sbrk_r>
80006688:	c008                	sw	a0,0(s0)
8000668a:	85a6                	mv	a1,s1
8000668c:	854a                	mv	a0,s2
8000668e:	2e69                	jal	80006a28 <_sbrk_r>
80006690:	59fd                	li	s3,-1
80006692:	07351863          	bne	a0,s3,80006702 <_malloc_r+0xb8>
80006696:	47b1                	li	a5,12
80006698:	00f92023          	sw	a5,0(s2)
8000669c:	854a                	mv	a0,s2
8000669e:	2bf9                	jal	80006c7c <__malloc_unlock>
800066a0:	a031                	j	800066ac <_malloc_r+0x62>
800066a2:	fc04d3e3          	bgez	s1,80006668 <_malloc_r+0x1e>
800066a6:	47b1                	li	a5,12
800066a8:	00f92023          	sw	a5,0(s2)
800066ac:	4501                	li	a0,0
800066ae:	40f2                	lw	ra,28(sp)
800066b0:	4462                	lw	s0,24(sp)
800066b2:	44d2                	lw	s1,20(sp)
800066b4:	4942                	lw	s2,16(sp)
800066b6:	49b2                	lw	s3,12(sp)
800066b8:	6105                	addi	sp,sp,32
800066ba:	8082                	ret
800066bc:	401c                	lw	a5,0(s0)
800066be:	8f85                	sub	a5,a5,s1
800066c0:	0207ce63          	bltz	a5,800066fc <_malloc_r+0xb2>
800066c4:	462d                	li	a2,11
800066c6:	00f67663          	bgeu	a2,a5,800066d2 <_malloc_r+0x88>
800066ca:	c01c                	sw	a5,0(s0)
800066cc:	943e                	add	s0,s0,a5
800066ce:	c004                	sw	s1,0(s0)
800066d0:	a029                	j	800066da <_malloc_r+0x90>
800066d2:	405c                	lw	a5,4(s0)
800066d4:	02871263          	bne	a4,s0,800066f8 <_malloc_r+0xae>
800066d8:	c29c                	sw	a5,0(a3)
800066da:	854a                	mv	a0,s2
800066dc:	2345                	jal	80006c7c <__malloc_unlock>
800066de:	00b40513          	addi	a0,s0,11
800066e2:	00440793          	addi	a5,s0,4
800066e6:	9961                	andi	a0,a0,-8
800066e8:	40f50733          	sub	a4,a0,a5
800066ec:	fcf501e3          	beq	a0,a5,800066ae <_malloc_r+0x64>
800066f0:	943a                	add	s0,s0,a4
800066f2:	8f89                	sub	a5,a5,a0
800066f4:	c01c                	sw	a5,0(s0)
800066f6:	bf65                	j	800066ae <_malloc_r+0x64>
800066f8:	c35c                	sw	a5,4(a4)
800066fa:	b7c5                	j	800066da <_malloc_r+0x90>
800066fc:	8722                	mv	a4,s0
800066fe:	4040                	lw	s0,4(s0)
80006700:	bfa5                	j	80006678 <_malloc_r+0x2e>
80006702:	00350413          	addi	s0,a0,3
80006706:	9871                	andi	s0,s0,-4
80006708:	fc8503e3          	beq	a0,s0,800066ce <_malloc_r+0x84>
8000670c:	40a405b3          	sub	a1,s0,a0
80006710:	854a                	mv	a0,s2
80006712:	2e19                	jal	80006a28 <_sbrk_r>
80006714:	fb351de3          	bne	a0,s3,800066ce <_malloc_r+0x84>
80006718:	bfbd                	j	80006696 <_malloc_r+0x4c>

8000671a <__sfputc_r>:
__sfputc_r():
8000671a:	461c                	lw	a5,8(a2)
8000671c:	17fd                	addi	a5,a5,-1
8000671e:	c61c                	sw	a5,8(a2)
80006720:	0007da63          	bgez	a5,80006734 <__sfputc_r+0x1a>
80006724:	4e18                	lw	a4,24(a2)
80006726:	00e7c563          	blt	a5,a4,80006730 <__sfputc_r+0x16>
8000672a:	47a9                	li	a5,10
8000672c:	00f59463          	bne	a1,a5,80006734 <__sfputc_r+0x1a>
80006730:	f59fd06f          	j	80004688 <__swbuf_r>
80006734:	421c                	lw	a5,0(a2)
80006736:	852e                	mv	a0,a1
80006738:	00178713          	addi	a4,a5,1
8000673c:	c218                	sw	a4,0(a2)
8000673e:	00b78023          	sb	a1,0(a5)
80006742:	8082                	ret

80006744 <__sfputs_r>:
__sfputs_r():
80006744:	1101                	addi	sp,sp,-32
80006746:	cc22                	sw	s0,24(sp)
80006748:	ca26                	sw	s1,20(sp)
8000674a:	c84a                	sw	s2,16(sp)
8000674c:	c64e                	sw	s3,12(sp)
8000674e:	c452                	sw	s4,8(sp)
80006750:	ce06                	sw	ra,28(sp)
80006752:	892a                	mv	s2,a0
80006754:	89ae                	mv	s3,a1
80006756:	8432                	mv	s0,a2
80006758:	00d604b3          	add	s1,a2,a3
8000675c:	5a7d                	li	s4,-1
8000675e:	00941463          	bne	s0,s1,80006766 <__sfputs_r+0x22>
80006762:	4501                	li	a0,0
80006764:	a811                	j	80006778 <__sfputs_r+0x34>
80006766:	00044583          	lbu	a1,0(s0)
8000676a:	864e                	mv	a2,s3
8000676c:	854a                	mv	a0,s2
8000676e:	fadff0ef          	jal	ra,8000671a <__sfputc_r>
80006772:	0405                	addi	s0,s0,1
80006774:	ff4515e3          	bne	a0,s4,8000675e <__sfputs_r+0x1a>
80006778:	40f2                	lw	ra,28(sp)
8000677a:	4462                	lw	s0,24(sp)
8000677c:	44d2                	lw	s1,20(sp)
8000677e:	4942                	lw	s2,16(sp)
80006780:	49b2                	lw	s3,12(sp)
80006782:	4a22                	lw	s4,8(sp)
80006784:	6105                	addi	sp,sp,32
80006786:	8082                	ret

80006788 <_vfiprintf_r>:
_vfiprintf_r():
80006788:	7135                	addi	sp,sp,-160
8000678a:	cd22                	sw	s0,152(sp)
8000678c:	cb26                	sw	s1,148(sp)
8000678e:	c94a                	sw	s2,144(sp)
80006790:	c74e                	sw	s3,140(sp)
80006792:	cf06                	sw	ra,156(sp)
80006794:	c552                	sw	s4,136(sp)
80006796:	c356                	sw	s5,132(sp)
80006798:	c15a                	sw	s6,128(sp)
8000679a:	dede                	sw	s7,124(sp)
8000679c:	dce2                	sw	s8,120(sp)
8000679e:	dae6                	sw	s9,116(sp)
800067a0:	89aa                	mv	s3,a0
800067a2:	84ae                	mv	s1,a1
800067a4:	8932                	mv	s2,a2
800067a6:	8436                	mv	s0,a3
800067a8:	c509                	beqz	a0,800067b2 <_vfiprintf_r+0x2a>
800067aa:	4d1c                	lw	a5,24(a0)
800067ac:	e399                	bnez	a5,800067b2 <_vfiprintf_r+0x2a>
800067ae:	90aff0ef          	jal	ra,800058b8 <__sinit>
800067b2:	00003797          	auipc	a5,0x3
800067b6:	c3278793          	addi	a5,a5,-974 # 800093e4 <__sf_fake_stdin>
800067ba:	0cf49d63          	bne	s1,a5,80006894 <_vfiprintf_r+0x10c>
800067be:	0049a483          	lw	s1,4(s3)
800067c2:	00c4d783          	lhu	a5,12(s1)
800067c6:	8ba1                	andi	a5,a5,8
800067c8:	cbe5                	beqz	a5,800068b8 <_vfiprintf_r+0x130>
800067ca:	489c                	lw	a5,16(s1)
800067cc:	c7f5                	beqz	a5,800068b8 <_vfiprintf_r+0x130>
800067ce:	02000793          	li	a5,32
800067d2:	02f104a3          	sb	a5,41(sp)
800067d6:	03000793          	li	a5,48
800067da:	d202                	sw	zero,36(sp)
800067dc:	02f10523          	sb	a5,42(sp)
800067e0:	c622                	sw	s0,12(sp)
800067e2:	02500b93          	li	s7,37
800067e6:	00003a97          	auipc	s5,0x3
800067ea:	d8ea8a93          	addi	s5,s5,-626 # 80009574 <p05.0+0xc>
800067ee:	4c05                	li	s8,1
800067f0:	4b29                	li	s6,10
800067f2:	844a                	mv	s0,s2
800067f4:	00044783          	lbu	a5,0(s0)
800067f8:	c399                	beqz	a5,800067fe <_vfiprintf_r+0x76>
800067fa:	0f779263          	bne	a5,s7,800068de <_vfiprintf_r+0x156>
800067fe:	41240cb3          	sub	s9,s0,s2
80006802:	01240e63          	beq	s0,s2,8000681e <_vfiprintf_r+0x96>
80006806:	86e6                	mv	a3,s9
80006808:	864a                	mv	a2,s2
8000680a:	85a6                	mv	a1,s1
8000680c:	854e                	mv	a0,s3
8000680e:	f37ff0ef          	jal	ra,80006744 <__sfputs_r>
80006812:	57fd                	li	a5,-1
80006814:	1ef50763          	beq	a0,a5,80006a02 <_vfiprintf_r+0x27a>
80006818:	5792                	lw	a5,36(sp)
8000681a:	97e6                	add	a5,a5,s9
8000681c:	d23e                	sw	a5,36(sp)
8000681e:	00044783          	lbu	a5,0(s0)
80006822:	1e078063          	beqz	a5,80006a02 <_vfiprintf_r+0x27a>
80006826:	57fd                	li	a5,-1
80006828:	00140913          	addi	s2,s0,1
8000682c:	c802                	sw	zero,16(sp)
8000682e:	ce02                	sw	zero,28(sp)
80006830:	ca3e                	sw	a5,20(sp)
80006832:	cc02                	sw	zero,24(sp)
80006834:	040109a3          	sb	zero,83(sp)
80006838:	d482                	sw	zero,104(sp)
8000683a:	00094583          	lbu	a1,0(s2)
8000683e:	4615                	li	a2,5
80006840:	8556                	mv	a0,s5
80006842:	afeff0ef          	jal	ra,80005b40 <memchr>
80006846:	47c2                	lw	a5,16(sp)
80006848:	00190413          	addi	s0,s2,1
8000684c:	e959                	bnez	a0,800068e2 <_vfiprintf_r+0x15a>
8000684e:	0107f713          	andi	a4,a5,16
80006852:	c709                	beqz	a4,8000685c <_vfiprintf_r+0xd4>
80006854:	02000713          	li	a4,32
80006858:	04e109a3          	sb	a4,83(sp)
8000685c:	0087f713          	andi	a4,a5,8
80006860:	c709                	beqz	a4,8000686a <_vfiprintf_r+0xe2>
80006862:	02b00713          	li	a4,43
80006866:	04e109a3          	sb	a4,83(sp)
8000686a:	00094683          	lbu	a3,0(s2)
8000686e:	02a00713          	li	a4,42
80006872:	08e68063          	beq	a3,a4,800068f2 <_vfiprintf_r+0x16a>
80006876:	47f2                	lw	a5,28(sp)
80006878:	844a                	mv	s0,s2
8000687a:	4681                	li	a3,0
8000687c:	4625                	li	a2,9
8000687e:	00044703          	lbu	a4,0(s0)
80006882:	00140593          	addi	a1,s0,1
80006886:	fd070713          	addi	a4,a4,-48
8000688a:	0ae67963          	bgeu	a2,a4,8000693c <_vfiprintf_r+0x1b4>
8000688e:	cab5                	beqz	a3,80006902 <_vfiprintf_r+0x17a>
80006890:	ce3e                	sw	a5,28(sp)
80006892:	a885                	j	80006902 <_vfiprintf_r+0x17a>
80006894:	00003797          	auipc	a5,0x3
80006898:	b7078793          	addi	a5,a5,-1168 # 80009404 <__sf_fake_stdout>
8000689c:	00f49563          	bne	s1,a5,800068a6 <_vfiprintf_r+0x11e>
800068a0:	0089a483          	lw	s1,8(s3)
800068a4:	bf39                	j	800067c2 <_vfiprintf_r+0x3a>
800068a6:	00003797          	auipc	a5,0x3
800068aa:	b1e78793          	addi	a5,a5,-1250 # 800093c4 <__sf_fake_stderr>
800068ae:	f0f49ae3          	bne	s1,a5,800067c2 <_vfiprintf_r+0x3a>
800068b2:	00c9a483          	lw	s1,12(s3)
800068b6:	b731                	j	800067c2 <_vfiprintf_r+0x3a>
800068b8:	85a6                	mv	a1,s1
800068ba:	854e                	mv	a0,s3
800068bc:	e93fd0ef          	jal	ra,8000474e <__swsetup_r>
800068c0:	d519                	beqz	a0,800067ce <_vfiprintf_r+0x46>
800068c2:	557d                	li	a0,-1
800068c4:	40fa                	lw	ra,156(sp)
800068c6:	446a                	lw	s0,152(sp)
800068c8:	44da                	lw	s1,148(sp)
800068ca:	494a                	lw	s2,144(sp)
800068cc:	49ba                	lw	s3,140(sp)
800068ce:	4a2a                	lw	s4,136(sp)
800068d0:	4a9a                	lw	s5,132(sp)
800068d2:	4b0a                	lw	s6,128(sp)
800068d4:	5bf6                	lw	s7,124(sp)
800068d6:	5c66                	lw	s8,120(sp)
800068d8:	5cd6                	lw	s9,116(sp)
800068da:	610d                	addi	sp,sp,160
800068dc:	8082                	ret
800068de:	0405                	addi	s0,s0,1
800068e0:	bf11                	j	800067f4 <_vfiprintf_r+0x6c>
800068e2:	41550533          	sub	a0,a0,s5
800068e6:	00ac1533          	sll	a0,s8,a0
800068ea:	8fc9                	or	a5,a5,a0
800068ec:	c83e                	sw	a5,16(sp)
800068ee:	8922                	mv	s2,s0
800068f0:	b7a9                	j	8000683a <_vfiprintf_r+0xb2>
800068f2:	4732                	lw	a4,12(sp)
800068f4:	00470693          	addi	a3,a4,4
800068f8:	4318                	lw	a4,0(a4)
800068fa:	c636                	sw	a3,12(sp)
800068fc:	02074963          	bltz	a4,8000692e <_vfiprintf_r+0x1a6>
80006900:	ce3a                	sw	a4,28(sp)
80006902:	00044703          	lbu	a4,0(s0)
80006906:	02e00793          	li	a5,46
8000690a:	04f71f63          	bne	a4,a5,80006968 <_vfiprintf_r+0x1e0>
8000690e:	00144703          	lbu	a4,1(s0)
80006912:	02a00793          	li	a5,42
80006916:	02f71b63          	bne	a4,a5,8000694c <_vfiprintf_r+0x1c4>
8000691a:	47b2                	lw	a5,12(sp)
8000691c:	0409                	addi	s0,s0,2
8000691e:	00478713          	addi	a4,a5,4
80006922:	439c                	lw	a5,0(a5)
80006924:	c63a                	sw	a4,12(sp)
80006926:	0207c163          	bltz	a5,80006948 <_vfiprintf_r+0x1c0>
8000692a:	ca3e                	sw	a5,20(sp)
8000692c:	a835                	j	80006968 <_vfiprintf_r+0x1e0>
8000692e:	40e00733          	neg	a4,a4
80006932:	0027e793          	ori	a5,a5,2
80006936:	ce3a                	sw	a4,28(sp)
80006938:	c83e                	sw	a5,16(sp)
8000693a:	b7e1                	j	80006902 <_vfiprintf_r+0x17a>
8000693c:	036787b3          	mul	a5,a5,s6
80006940:	842e                	mv	s0,a1
80006942:	4685                	li	a3,1
80006944:	97ba                	add	a5,a5,a4
80006946:	bf25                	j	8000687e <_vfiprintf_r+0xf6>
80006948:	57fd                	li	a5,-1
8000694a:	b7c5                	j	8000692a <_vfiprintf_r+0x1a2>
8000694c:	0405                	addi	s0,s0,1
8000694e:	ca02                	sw	zero,20(sp)
80006950:	4681                	li	a3,0
80006952:	4781                	li	a5,0
80006954:	4625                	li	a2,9
80006956:	00044703          	lbu	a4,0(s0)
8000695a:	00140593          	addi	a1,s0,1
8000695e:	fd070713          	addi	a4,a4,-48
80006962:	06e67863          	bgeu	a2,a4,800069d2 <_vfiprintf_r+0x24a>
80006966:	f2f1                	bnez	a3,8000692a <_vfiprintf_r+0x1a2>
80006968:	00044583          	lbu	a1,0(s0)
8000696c:	460d                	li	a2,3
8000696e:	00003517          	auipc	a0,0x3
80006972:	c0e50513          	addi	a0,a0,-1010 # 8000957c <p05.0+0x14>
80006976:	9caff0ef          	jal	ra,80005b40 <memchr>
8000697a:	cd11                	beqz	a0,80006996 <_vfiprintf_r+0x20e>
8000697c:	00003797          	auipc	a5,0x3
80006980:	c0078793          	addi	a5,a5,-1024 # 8000957c <p05.0+0x14>
80006984:	8d1d                	sub	a0,a0,a5
80006986:	04000793          	li	a5,64
8000698a:	00a797b3          	sll	a5,a5,a0
8000698e:	4542                	lw	a0,16(sp)
80006990:	0405                	addi	s0,s0,1
80006992:	8d5d                	or	a0,a0,a5
80006994:	c82a                	sw	a0,16(sp)
80006996:	00044583          	lbu	a1,0(s0)
8000699a:	4619                	li	a2,6
8000699c:	00003517          	auipc	a0,0x3
800069a0:	be450513          	addi	a0,a0,-1052 # 80009580 <p05.0+0x18>
800069a4:	00140913          	addi	s2,s0,1
800069a8:	02b10423          	sb	a1,40(sp)
800069ac:	994ff0ef          	jal	ra,80005b40 <memchr>
800069b0:	c12d                	beqz	a0,80006a12 <_vfiprintf_r+0x28a>
800069b2:	ffffd797          	auipc	a5,0xffffd
800069b6:	33c78793          	addi	a5,a5,828 # 80003cee <_printf_float>
800069ba:	e795                	bnez	a5,800069e6 <_vfiprintf_r+0x25e>
800069bc:	4742                	lw	a4,16(sp)
800069be:	47b2                	lw	a5,12(sp)
800069c0:	10077713          	andi	a4,a4,256
800069c4:	cf09                	beqz	a4,800069de <_vfiprintf_r+0x256>
800069c6:	0791                	addi	a5,a5,4
800069c8:	c63e                	sw	a5,12(sp)
800069ca:	5792                	lw	a5,36(sp)
800069cc:	97d2                	add	a5,a5,s4
800069ce:	d23e                	sw	a5,36(sp)
800069d0:	b50d                	j	800067f2 <_vfiprintf_r+0x6a>
800069d2:	036787b3          	mul	a5,a5,s6
800069d6:	842e                	mv	s0,a1
800069d8:	4685                	li	a3,1
800069da:	97ba                	add	a5,a5,a4
800069dc:	bfad                	j	80006956 <_vfiprintf_r+0x1ce>
800069de:	079d                	addi	a5,a5,7
800069e0:	9be1                	andi	a5,a5,-8
800069e2:	07a1                	addi	a5,a5,8
800069e4:	b7d5                	j	800069c8 <_vfiprintf_r+0x240>
800069e6:	0078                	addi	a4,sp,12
800069e8:	00000697          	auipc	a3,0x0
800069ec:	d5c68693          	addi	a3,a3,-676 # 80006744 <__sfputs_r>
800069f0:	8626                	mv	a2,s1
800069f2:	080c                	addi	a1,sp,16
800069f4:	854e                	mv	a0,s3
800069f6:	af8fd0ef          	jal	ra,80003cee <_printf_float>
800069fa:	57fd                	li	a5,-1
800069fc:	8a2a                	mv	s4,a0
800069fe:	fcf516e3          	bne	a0,a5,800069ca <_vfiprintf_r+0x242>
80006a02:	00c4d783          	lhu	a5,12(s1)
80006a06:	0407f793          	andi	a5,a5,64
80006a0a:	ea079ce3          	bnez	a5,800068c2 <_vfiprintf_r+0x13a>
80006a0e:	5512                	lw	a0,36(sp)
80006a10:	bd55                	j	800068c4 <_vfiprintf_r+0x13c>
80006a12:	0078                	addi	a4,sp,12
80006a14:	00000697          	auipc	a3,0x0
80006a18:	d3068693          	addi	a3,a3,-720 # 80006744 <__sfputs_r>
80006a1c:	8626                	mv	a2,s1
80006a1e:	080c                	addi	a1,sp,16
80006a20:	854e                	mv	a0,s3
80006a22:	8b1fd0ef          	jal	ra,800042d2 <_printf_i>
80006a26:	bfd1                	j	800069fa <_vfiprintf_r+0x272>

80006a28 <_sbrk_r>:
_sbrk_r():
80006a28:	1141                	addi	sp,sp,-16
80006a2a:	c422                	sw	s0,8(sp)
80006a2c:	842a                	mv	s0,a0
80006a2e:	852e                	mv	a0,a1
80006a30:	8601a423          	sw	zero,-1944(gp) # 90000238 <errno>
80006a34:	c606                	sw	ra,12(sp)
80006a36:	f72f90ef          	jal	ra,800001a8 <_sbrk>
80006a3a:	57fd                	li	a5,-1
80006a3c:	00f51663          	bne	a0,a5,80006a48 <_sbrk_r+0x20>
80006a40:	8681a783          	lw	a5,-1944(gp) # 90000238 <errno>
80006a44:	c391                	beqz	a5,80006a48 <_sbrk_r+0x20>
80006a46:	c01c                	sw	a5,0(s0)
80006a48:	40b2                	lw	ra,12(sp)
80006a4a:	4422                	lw	s0,8(sp)
80006a4c:	0141                	addi	sp,sp,16
80006a4e:	8082                	ret

80006a50 <__sread>:
__sread():
80006a50:	1141                	addi	sp,sp,-16
80006a52:	c422                	sw	s0,8(sp)
80006a54:	842e                	mv	s0,a1
80006a56:	00e59583          	lh	a1,14(a1)
80006a5a:	c606                	sw	ra,12(sp)
80006a5c:	240d                	jal	80006c7e <_read_r>
80006a5e:	00054963          	bltz	a0,80006a70 <__sread+0x20>
80006a62:	487c                	lw	a5,84(s0)
80006a64:	97aa                	add	a5,a5,a0
80006a66:	c87c                	sw	a5,84(s0)
80006a68:	40b2                	lw	ra,12(sp)
80006a6a:	4422                	lw	s0,8(sp)
80006a6c:	0141                	addi	sp,sp,16
80006a6e:	8082                	ret
80006a70:	00c45783          	lhu	a5,12(s0)
80006a74:	777d                	lui	a4,0xfffff
80006a76:	177d                	addi	a4,a4,-1
80006a78:	8ff9                	and	a5,a5,a4
80006a7a:	00f41623          	sh	a5,12(s0)
80006a7e:	b7ed                	j	80006a68 <__sread+0x18>

80006a80 <__swrite>:
__swrite():
80006a80:	00c5d783          	lhu	a5,12(a1)
80006a84:	1101                	addi	sp,sp,-32
80006a86:	cc22                	sw	s0,24(sp)
80006a88:	ca26                	sw	s1,20(sp)
80006a8a:	c84a                	sw	s2,16(sp)
80006a8c:	c64e                	sw	s3,12(sp)
80006a8e:	ce06                	sw	ra,28(sp)
80006a90:	1007f793          	andi	a5,a5,256
80006a94:	84aa                	mv	s1,a0
80006a96:	842e                	mv	s0,a1
80006a98:	8932                	mv	s2,a2
80006a9a:	89b6                	mv	s3,a3
80006a9c:	c791                	beqz	a5,80006aa8 <__swrite+0x28>
80006a9e:	00e59583          	lh	a1,14(a1)
80006aa2:	4689                	li	a3,2
80006aa4:	4601                	li	a2,0
80006aa6:	22bd                	jal	80006c14 <_lseek_r>
80006aa8:	00c45783          	lhu	a5,12(s0)
80006aac:	777d                	lui	a4,0xfffff
80006aae:	177d                	addi	a4,a4,-1
80006ab0:	8ff9                	and	a5,a5,a4
80006ab2:	00e41583          	lh	a1,14(s0)
80006ab6:	00f41623          	sh	a5,12(s0)
80006aba:	4462                	lw	s0,24(sp)
80006abc:	40f2                	lw	ra,28(sp)
80006abe:	86ce                	mv	a3,s3
80006ac0:	864a                	mv	a2,s2
80006ac2:	49b2                	lw	s3,12(sp)
80006ac4:	4942                	lw	s2,16(sp)
80006ac6:	8526                	mv	a0,s1
80006ac8:	44d2                	lw	s1,20(sp)
80006aca:	6105                	addi	sp,sp,32
80006acc:	a83d                	j	80006b0a <_write_r>

80006ace <__sseek>:
__sseek():
80006ace:	1141                	addi	sp,sp,-16
80006ad0:	c422                	sw	s0,8(sp)
80006ad2:	842e                	mv	s0,a1
80006ad4:	00e59583          	lh	a1,14(a1)
80006ad8:	c606                	sw	ra,12(sp)
80006ada:	2a2d                	jal	80006c14 <_lseek_r>
80006adc:	57fd                	li	a5,-1
80006ade:	00c45703          	lhu	a4,12(s0)
80006ae2:	00f51b63          	bne	a0,a5,80006af8 <__sseek+0x2a>
80006ae6:	77fd                	lui	a5,0xfffff
80006ae8:	17fd                	addi	a5,a5,-1
80006aea:	8ff9                	and	a5,a5,a4
80006aec:	00f41623          	sh	a5,12(s0)
80006af0:	40b2                	lw	ra,12(sp)
80006af2:	4422                	lw	s0,8(sp)
80006af4:	0141                	addi	sp,sp,16
80006af6:	8082                	ret
80006af8:	6785                	lui	a5,0x1
80006afa:	8fd9                	or	a5,a5,a4
80006afc:	00f41623          	sh	a5,12(s0)
80006b00:	c868                	sw	a0,84(s0)
80006b02:	b7fd                	j	80006af0 <__sseek+0x22>

80006b04 <__sclose>:
__sclose():
80006b04:	00e59583          	lh	a1,14(a1)
80006b08:	a0a5                	j	80006b70 <_close_r>

80006b0a <_write_r>:
_write_r():
80006b0a:	1141                	addi	sp,sp,-16
80006b0c:	c422                	sw	s0,8(sp)
80006b0e:	842a                	mv	s0,a0
80006b10:	852e                	mv	a0,a1
80006b12:	85b2                	mv	a1,a2
80006b14:	8636                	mv	a2,a3
80006b16:	8601a423          	sw	zero,-1944(gp) # 90000238 <errno>
80006b1a:	c606                	sw	ra,12(sp)
80006b1c:	ebcf90ef          	jal	ra,800001d8 <_write>
80006b20:	57fd                	li	a5,-1
80006b22:	00f51663          	bne	a0,a5,80006b2e <_write_r+0x24>
80006b26:	8681a783          	lw	a5,-1944(gp) # 90000238 <errno>
80006b2a:	c391                	beqz	a5,80006b2e <_write_r+0x24>
80006b2c:	c01c                	sw	a5,0(s0)
80006b2e:	40b2                	lw	ra,12(sp)
80006b30:	4422                	lw	s0,8(sp)
80006b32:	0141                	addi	sp,sp,16
80006b34:	8082                	ret

80006b36 <__assert_func>:
__assert_func():
80006b36:	1141                	addi	sp,sp,-16
80006b38:	0fff9797          	auipc	a5,0xfff9
80006b3c:	6a07a783          	lw	a5,1696(a5) # 900001d8 <_impure_ptr>
80006b40:	8832                	mv	a6,a2
80006b42:	c606                	sw	ra,12(sp)
80006b44:	88aa                	mv	a7,a0
80006b46:	872e                	mv	a4,a1
80006b48:	47c8                	lw	a0,12(a5)
80006b4a:	8636                	mv	a2,a3
80006b4c:	00003797          	auipc	a5,0x3
80006b50:	a3c78793          	addi	a5,a5,-1476 # 80009588 <p05.0+0x20>
80006b54:	00081763          	bnez	a6,80006b62 <__assert_func+0x2c>
80006b58:	00002797          	auipc	a5,0x2
80006b5c:	ddc78793          	addi	a5,a5,-548 # 80008934 <__clzsi2+0xd6>
80006b60:	883e                	mv	a6,a5
80006b62:	86c6                	mv	a3,a7
80006b64:	00003597          	auipc	a1,0x3
80006b68:	a3458593          	addi	a1,a1,-1484 # 80009598 <p05.0+0x30>
80006b6c:	2035                	jal	80006b98 <fiprintf>
80006b6e:	2ab1                	jal	80006cca <abort>

80006b70 <_close_r>:
_close_r():
80006b70:	1141                	addi	sp,sp,-16
80006b72:	c422                	sw	s0,8(sp)
80006b74:	842a                	mv	s0,a0
80006b76:	852e                	mv	a0,a1
80006b78:	8601a423          	sw	zero,-1944(gp) # 90000238 <errno>
80006b7c:	c606                	sw	ra,12(sp)
80006b7e:	d8ef90ef          	jal	ra,8000010c <_close>
80006b82:	57fd                	li	a5,-1
80006b84:	00f51663          	bne	a0,a5,80006b90 <_close_r+0x20>
80006b88:	8681a783          	lw	a5,-1944(gp) # 90000238 <errno>
80006b8c:	c391                	beqz	a5,80006b90 <_close_r+0x20>
80006b8e:	c01c                	sw	a5,0(s0)
80006b90:	40b2                	lw	ra,12(sp)
80006b92:	4422                	lw	s0,8(sp)
80006b94:	0141                	addi	sp,sp,16
80006b96:	8082                	ret

80006b98 <fiprintf>:
fprintf():
80006b98:	7139                	addi	sp,sp,-64
80006b9a:	d432                	sw	a2,40(sp)
80006b9c:	d636                	sw	a3,44(sp)
80006b9e:	862e                	mv	a2,a1
80006ba0:	1034                	addi	a3,sp,40
80006ba2:	85aa                	mv	a1,a0
80006ba4:	0fff9517          	auipc	a0,0xfff9
80006ba8:	63452503          	lw	a0,1588(a0) # 900001d8 <_impure_ptr>
80006bac:	ce06                	sw	ra,28(sp)
80006bae:	d83a                	sw	a4,48(sp)
80006bb0:	da3e                	sw	a5,52(sp)
80006bb2:	dc42                	sw	a6,56(sp)
80006bb4:	de46                	sw	a7,60(sp)
80006bb6:	c636                	sw	a3,12(sp)
80006bb8:	bd1ff0ef          	jal	ra,80006788 <_vfiprintf_r>
80006bbc:	40f2                	lw	ra,28(sp)
80006bbe:	6121                	addi	sp,sp,64
80006bc0:	8082                	ret

80006bc2 <_fstat_r>:
_fstat_r():
80006bc2:	1141                	addi	sp,sp,-16
80006bc4:	c422                	sw	s0,8(sp)
80006bc6:	842a                	mv	s0,a0
80006bc8:	852e                	mv	a0,a1
80006bca:	85b2                	mv	a1,a2
80006bcc:	8601a423          	sw	zero,-1944(gp) # 90000238 <errno>
80006bd0:	c606                	sw	ra,12(sp)
80006bd2:	d6af90ef          	jal	ra,8000013c <_fstat>
80006bd6:	57fd                	li	a5,-1
80006bd8:	00f51663          	bne	a0,a5,80006be4 <_fstat_r+0x22>
80006bdc:	8681a783          	lw	a5,-1944(gp) # 90000238 <errno>
80006be0:	c391                	beqz	a5,80006be4 <_fstat_r+0x22>
80006be2:	c01c                	sw	a5,0(s0)
80006be4:	40b2                	lw	ra,12(sp)
80006be6:	4422                	lw	s0,8(sp)
80006be8:	0141                	addi	sp,sp,16
80006bea:	8082                	ret

80006bec <_isatty_r>:
_isatty_r():
80006bec:	1141                	addi	sp,sp,-16
80006bee:	c422                	sw	s0,8(sp)
80006bf0:	842a                	mv	s0,a0
80006bf2:	852e                	mv	a0,a1
80006bf4:	8601a423          	sw	zero,-1944(gp) # 90000238 <errno>
80006bf8:	c606                	sw	ra,12(sp)
80006bfa:	d6af90ef          	jal	ra,80000164 <_isatty>
80006bfe:	57fd                	li	a5,-1
80006c00:	00f51663          	bne	a0,a5,80006c0c <_isatty_r+0x20>
80006c04:	8681a783          	lw	a5,-1944(gp) # 90000238 <errno>
80006c08:	c391                	beqz	a5,80006c0c <_isatty_r+0x20>
80006c0a:	c01c                	sw	a5,0(s0)
80006c0c:	40b2                	lw	ra,12(sp)
80006c0e:	4422                	lw	s0,8(sp)
80006c10:	0141                	addi	sp,sp,16
80006c12:	8082                	ret

80006c14 <_lseek_r>:
_lseek_r():
80006c14:	1141                	addi	sp,sp,-16
80006c16:	c422                	sw	s0,8(sp)
80006c18:	842a                	mv	s0,a0
80006c1a:	852e                	mv	a0,a1
80006c1c:	85b2                	mv	a1,a2
80006c1e:	8636                	mv	a2,a3
80006c20:	8601a423          	sw	zero,-1944(gp) # 90000238 <errno>
80006c24:	c606                	sw	ra,12(sp)
80006c26:	d52f90ef          	jal	ra,80000178 <_lseek>
80006c2a:	57fd                	li	a5,-1
80006c2c:	00f51663          	bne	a0,a5,80006c38 <_lseek_r+0x24>
80006c30:	8681a783          	lw	a5,-1944(gp) # 90000238 <errno>
80006c34:	c391                	beqz	a5,80006c38 <_lseek_r+0x24>
80006c36:	c01c                	sw	a5,0(s0)
80006c38:	40b2                	lw	ra,12(sp)
80006c3a:	4422                	lw	s0,8(sp)
80006c3c:	0141                	addi	sp,sp,16
80006c3e:	8082                	ret

80006c40 <__ascii_mbtowc>:
__ascii_mbtowc():
80006c40:	e185                	bnez	a1,80006c60 <__ascii_mbtowc+0x20>
80006c42:	1141                	addi	sp,sp,-16
80006c44:	006c                	addi	a1,sp,12
80006c46:	4501                	li	a0,0
80006c48:	ca11                	beqz	a2,80006c5c <__ascii_mbtowc+0x1c>
80006c4a:	5579                	li	a0,-2
80006c4c:	ca81                	beqz	a3,80006c5c <__ascii_mbtowc+0x1c>
80006c4e:	00064783          	lbu	a5,0(a2)
80006c52:	c19c                	sw	a5,0(a1)
80006c54:	00064503          	lbu	a0,0(a2)
80006c58:	00a03533          	snez	a0,a0
80006c5c:	0141                	addi	sp,sp,16
80006c5e:	8082                	ret
80006c60:	4501                	li	a0,0
80006c62:	ca19                	beqz	a2,80006c78 <__ascii_mbtowc+0x38>
80006c64:	5579                	li	a0,-2
80006c66:	ca89                	beqz	a3,80006c78 <__ascii_mbtowc+0x38>
80006c68:	00064783          	lbu	a5,0(a2)
80006c6c:	c19c                	sw	a5,0(a1)
80006c6e:	00064503          	lbu	a0,0(a2)
80006c72:	00a03533          	snez	a0,a0
80006c76:	8082                	ret
80006c78:	8082                	ret

80006c7a <__malloc_lock>:
__malloc_lock():
80006c7a:	8082                	ret

80006c7c <__malloc_unlock>:
__malloc_unlock():
80006c7c:	8082                	ret

80006c7e <_read_r>:
_read_r():
80006c7e:	1141                	addi	sp,sp,-16
80006c80:	c422                	sw	s0,8(sp)
80006c82:	842a                	mv	s0,a0
80006c84:	852e                	mv	a0,a1
80006c86:	85b2                	mv	a1,a2
80006c88:	8636                	mv	a2,a3
80006c8a:	8601a423          	sw	zero,-1944(gp) # 90000238 <errno>
80006c8e:	c606                	sw	ra,12(sp)
80006c90:	cf0f90ef          	jal	ra,80000180 <_read>
80006c94:	57fd                	li	a5,-1
80006c96:	00f51663          	bne	a0,a5,80006ca2 <_read_r+0x24>
80006c9a:	8681a783          	lw	a5,-1944(gp) # 90000238 <errno>
80006c9e:	c391                	beqz	a5,80006ca2 <_read_r+0x24>
80006ca0:	c01c                	sw	a5,0(s0)
80006ca2:	40b2                	lw	ra,12(sp)
80006ca4:	4422                	lw	s0,8(sp)
80006ca6:	0141                	addi	sp,sp,16
80006ca8:	8082                	ret

80006caa <__ascii_wctomb>:
__ascii_wctomb():
80006caa:	cd91                	beqz	a1,80006cc6 <__ascii_wctomb+0x1c>
80006cac:	0ff00793          	li	a5,255
80006cb0:	00c7f763          	bgeu	a5,a2,80006cbe <__ascii_wctomb+0x14>
80006cb4:	08a00793          	li	a5,138
80006cb8:	c11c                	sw	a5,0(a0)
80006cba:	557d                	li	a0,-1
80006cbc:	8082                	ret
80006cbe:	00c58023          	sb	a2,0(a1)
80006cc2:	4505                	li	a0,1
80006cc4:	8082                	ret
80006cc6:	4501                	li	a0,0
80006cc8:	8082                	ret

80006cca <abort>:
abort():
80006cca:	1141                	addi	sp,sp,-16
80006ccc:	4519                	li	a0,6
80006cce:	c606                	sw	ra,12(sp)
80006cd0:	20ad                	jal	80006d3a <raise>
80006cd2:	4505                	li	a0,1
80006cd4:	c44f90ef          	jal	ra,80000118 <_exit>

80006cd8 <_raise_r>:
_raise_r():
80006cd8:	1101                	addi	sp,sp,-32
80006cda:	cc22                	sw	s0,24(sp)
80006cdc:	ce06                	sw	ra,28(sp)
80006cde:	47fd                	li	a5,31
80006ce0:	842a                	mv	s0,a0
80006ce2:	00b7f963          	bgeu	a5,a1,80006cf4 <_raise_r+0x1c>
80006ce6:	47d9                	li	a5,22
80006ce8:	c11c                	sw	a5,0(a0)
80006cea:	557d                	li	a0,-1
80006cec:	40f2                	lw	ra,28(sp)
80006cee:	4462                	lw	s0,24(sp)
80006cf0:	6105                	addi	sp,sp,32
80006cf2:	8082                	ret
80006cf4:	417c                	lw	a5,68(a0)
80006cf6:	862e                	mv	a2,a1
80006cf8:	c791                	beqz	a5,80006d04 <_raise_r+0x2c>
80006cfa:	00259713          	slli	a4,a1,0x2
80006cfe:	97ba                	add	a5,a5,a4
80006d00:	4398                	lw	a4,0(a5)
80006d02:	eb19                	bnez	a4,80006d18 <_raise_r+0x40>
80006d04:	8522                	mv	a0,s0
80006d06:	c632                	sw	a2,12(sp)
80006d08:	20ad                	jal	80006d72 <_getpid_r>
80006d0a:	85aa                	mv	a1,a0
80006d0c:	8522                	mv	a0,s0
80006d0e:	4462                	lw	s0,24(sp)
80006d10:	4632                	lw	a2,12(sp)
80006d12:	40f2                	lw	ra,28(sp)
80006d14:	6105                	addi	sp,sp,32
80006d16:	a80d                	j	80006d48 <_kill_r>
80006d18:	4685                	li	a3,1
80006d1a:	4501                	li	a0,0
80006d1c:	fcd708e3          	beq	a4,a3,80006cec <_raise_r+0x14>
80006d20:	56fd                	li	a3,-1
80006d22:	00d71663          	bne	a4,a3,80006d2e <_raise_r+0x56>
80006d26:	47d9                	li	a5,22
80006d28:	c01c                	sw	a5,0(s0)
80006d2a:	4505                	li	a0,1
80006d2c:	b7c1                	j	80006cec <_raise_r+0x14>
80006d2e:	852e                	mv	a0,a1
80006d30:	0007a023          	sw	zero,0(a5)
80006d34:	9702                	jalr	a4
80006d36:	4501                	li	a0,0
80006d38:	bf55                	j	80006cec <_raise_r+0x14>

80006d3a <raise>:
raise():
80006d3a:	85aa                	mv	a1,a0
80006d3c:	0fff9517          	auipc	a0,0xfff9
80006d40:	49c52503          	lw	a0,1180(a0) # 900001d8 <_impure_ptr>
80006d44:	f95ff06f          	j	80006cd8 <_raise_r>

80006d48 <_kill_r>:
_kill_r():
80006d48:	1141                	addi	sp,sp,-16
80006d4a:	c422                	sw	s0,8(sp)
80006d4c:	842a                	mv	s0,a0
80006d4e:	852e                	mv	a0,a1
80006d50:	85b2                	mv	a1,a2
80006d52:	8601a423          	sw	zero,-1944(gp) # 90000238 <errno>
80006d56:	c606                	sw	ra,12(sp)
80006d58:	c14f90ef          	jal	ra,8000016c <_kill>
80006d5c:	57fd                	li	a5,-1
80006d5e:	00f51663          	bne	a0,a5,80006d6a <_kill_r+0x22>
80006d62:	8681a783          	lw	a5,-1944(gp) # 90000238 <errno>
80006d66:	c391                	beqz	a5,80006d6a <_kill_r+0x22>
80006d68:	c01c                	sw	a5,0(s0)
80006d6a:	40b2                	lw	ra,12(sp)
80006d6c:	4422                	lw	s0,8(sp)
80006d6e:	0141                	addi	sp,sp,16
80006d70:	8082                	ret

80006d72 <_getpid_r>:
_getpid_r():
80006d72:	beaf906f          	j	8000015c <_getpid>

80006d76 <__adddf3>:
__adddf3():
/Local/xl_ci/toolchain/riscv-gnu-toolchain/riscv-gcc/libgcc/soft-fp/adddf3.c:44
80006d76:	00100837          	lui	a6,0x100
80006d7a:	187d                	addi	a6,a6,-1
/Local/xl_ci/toolchain/riscv-gnu-toolchain/riscv-gcc/libgcc/soft-fp/adddf3.c:36
80006d7c:	1101                	addi	sp,sp,-32
/Local/xl_ci/toolchain/riscv-gnu-toolchain/riscv-gcc/libgcc/soft-fp/adddf3.c:44
80006d7e:	00b877b3          	and	a5,a6,a1
80006d82:	0145d713          	srli	a4,a1,0x14
/Local/xl_ci/toolchain/riscv-gnu-toolchain/riscv-gcc/libgcc/soft-fp/adddf3.c:45
80006d86:	00d87833          	and	a6,a6,a3
80006d8a:	0146d313          	srli	t1,a3,0x14
/Local/xl_ci/toolchain/riscv-gnu-toolchain/riscv-gcc/libgcc/soft-fp/adddf3.c:36
80006d8e:	cc22                	sw	s0,24(sp)
/Local/xl_ci/toolchain/riscv-gnu-toolchain/riscv-gcc/libgcc/soft-fp/adddf3.c:44
80006d90:	078e                	slli	a5,a5,0x3
80006d92:	7ff77413          	andi	s0,a4,2047
80006d96:	01d55713          	srli	a4,a0,0x1d
/Local/xl_ci/toolchain/riscv-gnu-toolchain/riscv-gcc/libgcc/soft-fp/adddf3.c:45
80006d9a:	080e                	slli	a6,a6,0x3
/Local/xl_ci/toolchain/riscv-gnu-toolchain/riscv-gcc/libgcc/soft-fp/adddf3.c:36
80006d9c:	ca26                	sw	s1,20(sp)
/Local/xl_ci/toolchain/riscv-gnu-toolchain/riscv-gcc/libgcc/soft-fp/adddf3.c:44
80006d9e:	8fd9                	or	a5,a5,a4
80006da0:	01f5d493          	srli	s1,a1,0x1f
/Local/xl_ci/toolchain/riscv-gnu-toolchain/riscv-gcc/libgcc/soft-fp/adddf3.c:45
80006da4:	01d65713          	srli	a4,a2,0x1d
80006da8:	7ff37313          	andi	t1,t1,2047
/Local/xl_ci/toolchain/riscv-gnu-toolchain/riscv-gcc/libgcc/soft-fp/adddf3.c:36
80006dac:	ce06                	sw	ra,28(sp)
80006dae:	c84a                	sw	s2,16(sp)
80006db0:	c64e                	sw	s3,12(sp)
/Local/xl_ci/toolchain/riscv-gnu-toolchain/riscv-gcc/libgcc/soft-fp/adddf3.c:45
80006db2:	82fd                	srli	a3,a3,0x1f
80006db4:	01076733          	or	a4,a4,a6
/Local/xl_ci/toolchain/riscv-gnu-toolchain/riscv-gcc/libgcc/soft-fp/adddf3.c:44
80006db8:	00351593          	slli	a1,a0,0x3
/Local/xl_ci/toolchain/riscv-gnu-toolchain/riscv-gcc/libgcc/soft-fp/adddf3.c:45
80006dbc:	060e                	slli	a2,a2,0x3
/Local/xl_ci/toolchain/riscv-gnu-toolchain/riscv-gcc/libgcc/soft-fp/adddf3.c:46
80006dbe:	40640833          	sub	a6,s0,t1
80006dc2:	22d49863          	bne	s1,a3,80006ff2 <__adddf3+0x27c>
/Local/xl_ci/toolchain/riscv-gnu-toolchain/riscv-gcc/libgcc/soft-fp/adddf3.c:46 (discriminator 7)
80006dc6:	0f005363          	blez	a6,80006eac <__adddf3+0x136>
/Local/xl_ci/toolchain/riscv-gnu-toolchain/riscv-gcc/libgcc/soft-fp/adddf3.c:46 (discriminator 9)
80006dca:	02031863          	bnez	t1,80006dfa <__adddf3+0x84>
/Local/xl_ci/toolchain/riscv-gnu-toolchain/riscv-gcc/libgcc/soft-fp/adddf3.c:46 (discriminator 11)
80006dce:	00c766b3          	or	a3,a4,a2
80006dd2:	58068363          	beqz	a3,80007358 <__adddf3+0x5e2>
/Local/xl_ci/toolchain/riscv-gnu-toolchain/riscv-gcc/libgcc/soft-fp/adddf3.c:46 (discriminator 14)
80006dd6:	fff80513          	addi	a0,a6,-1 # fffff <__stack_size+0xff7ff>
80006dda:	e909                	bnez	a0,80006dec <__adddf3+0x76>
/Local/xl_ci/toolchain/riscv-gnu-toolchain/riscv-gcc/libgcc/soft-fp/adddf3.c:46 (discriminator 23)
80006ddc:	962e                	add	a2,a2,a1
80006dde:	00b63533          	sltu	a0,a2,a1
80006de2:	97ba                	add	a5,a5,a4
80006de4:	97aa                	add	a5,a5,a0
80006de6:	85b2                	mv	a1,a2
/Local/xl_ci/toolchain/riscv-gnu-toolchain/riscv-gcc/libgcc/soft-fp/adddf3.c:45 (discriminator 80)
80006de8:	4405                	li	s0,1
/Local/xl_ci/toolchain/riscv-gnu-toolchain/riscv-gcc/libgcc/soft-fp/adddf3.c:46 (discriminator 80)
80006dea:	a8b9                	j	80006e48 <__adddf3+0xd2>
/Local/xl_ci/toolchain/riscv-gnu-toolchain/riscv-gcc/libgcc/soft-fp/adddf3.c:46 (discriminator 24)
80006dec:	7ff00693          	li	a3,2047
80006df0:	00d81d63          	bne	a6,a3,80006e0a <__adddf3+0x94>
/Local/xl_ci/toolchain/riscv-gnu-toolchain/riscv-gcc/libgcc/soft-fp/adddf3.c:46
80006df4:	7ff00413          	li	s0,2047
80006df8:	a24d                	j	80006f9a <__adddf3+0x224>
/Local/xl_ci/toolchain/riscv-gnu-toolchain/riscv-gcc/libgcc/soft-fp/adddf3.c:46 (discriminator 12)
80006dfa:	7ff00693          	li	a3,2047
80006dfe:	18d40e63          	beq	s0,a3,80006f9a <__adddf3+0x224>
/Local/xl_ci/toolchain/riscv-gnu-toolchain/riscv-gcc/libgcc/soft-fp/adddf3.c:46 (discriminator 38)
80006e02:	008006b7          	lui	a3,0x800
80006e06:	8f55                	or	a4,a4,a3
80006e08:	8542                	mv	a0,a6
/Local/xl_ci/toolchain/riscv-gnu-toolchain/riscv-gcc/libgcc/soft-fp/adddf3.c:46 (discriminator 47)
80006e0a:	03800693          	li	a3,56
80006e0e:	08a6cb63          	blt	a3,a0,80006ea4 <__adddf3+0x12e>
/Local/xl_ci/toolchain/riscv-gnu-toolchain/riscv-gcc/libgcc/soft-fp/adddf3.c:46 (discriminator 48)
80006e12:	46fd                	li	a3,31
80006e14:	06a6c263          	blt	a3,a0,80006e78 <__adddf3+0x102>
/Local/xl_ci/toolchain/riscv-gnu-toolchain/riscv-gcc/libgcc/soft-fp/adddf3.c:46 (discriminator 50)
80006e18:	02000813          	li	a6,32
80006e1c:	40a80833          	sub	a6,a6,a0
80006e20:	010716b3          	sll	a3,a4,a6
80006e24:	00a658b3          	srl	a7,a2,a0
80006e28:	01061633          	sll	a2,a2,a6
80006e2c:	0116e6b3          	or	a3,a3,a7
80006e30:	00c03633          	snez	a2,a2
80006e34:	8e55                	or	a2,a2,a3
80006e36:	00a75733          	srl	a4,a4,a0
/Local/xl_ci/toolchain/riscv-gnu-toolchain/riscv-gcc/libgcc/soft-fp/adddf3.c:46 (discriminator 64)
80006e3a:	962e                	add	a2,a2,a1
80006e3c:	00b63533          	sltu	a0,a2,a1
80006e40:	973e                	add	a4,a4,a5
80006e42:	00a707b3          	add	a5,a4,a0
80006e46:	85b2                	mv	a1,a2
/Local/xl_ci/toolchain/riscv-gnu-toolchain/riscv-gcc/libgcc/soft-fp/adddf3.c:46 (discriminator 122)
80006e48:	00800737          	lui	a4,0x800
80006e4c:	8f7d                	and	a4,a4,a5
80006e4e:	14070663          	beqz	a4,80006f9a <__adddf3+0x224>
/Local/xl_ci/toolchain/riscv-gnu-toolchain/riscv-gcc/libgcc/soft-fp/adddf3.c:46 (discriminator 182)
80006e52:	0405                	addi	s0,s0,1
80006e54:	7ff00713          	li	a4,2047
80006e58:	48e40d63          	beq	s0,a4,800072f2 <__adddf3+0x57c>
/Local/xl_ci/toolchain/riscv-gnu-toolchain/riscv-gcc/libgcc/soft-fp/adddf3.c:46
80006e5c:	ff800737          	lui	a4,0xff800
80006e60:	177d                	addi	a4,a4,-1
80006e62:	8ff9                	and	a5,a5,a4
80006e64:	0015f513          	andi	a0,a1,1
80006e68:	0015d713          	srli	a4,a1,0x1
80006e6c:	8d59                	or	a0,a0,a4
80006e6e:	01f79593          	slli	a1,a5,0x1f
80006e72:	8dc9                	or	a1,a1,a0
80006e74:	8385                	srli	a5,a5,0x1
80006e76:	a215                	j	80006f9a <__adddf3+0x224>
/Local/xl_ci/toolchain/riscv-gnu-toolchain/riscv-gcc/libgcc/soft-fp/adddf3.c:46 (discriminator 51)
80006e78:	fe050693          	addi	a3,a0,-32
80006e7c:	02000893          	li	a7,32
80006e80:	00d756b3          	srl	a3,a4,a3
80006e84:	4801                	li	a6,0
80006e86:	01150863          	beq	a0,a7,80006e96 <__adddf3+0x120>
/Local/xl_ci/toolchain/riscv-gnu-toolchain/riscv-gcc/libgcc/soft-fp/adddf3.c:46 (discriminator 58)
80006e8a:	04000813          	li	a6,64
80006e8e:	40a80533          	sub	a0,a6,a0
80006e92:	00a71833          	sll	a6,a4,a0
/Local/xl_ci/toolchain/riscv-gnu-toolchain/riscv-gcc/libgcc/soft-fp/adddf3.c:46 (discriminator 61)
80006e96:	00c86633          	or	a2,a6,a2
80006e9a:	00c03633          	snez	a2,a2
80006e9e:	8e55                	or	a2,a2,a3
/Local/xl_ci/toolchain/riscv-gnu-toolchain/riscv-gcc/libgcc/soft-fp/adddf3.c:46 (discriminator 49)
80006ea0:	4701                	li	a4,0
80006ea2:	bf61                	j	80006e3a <__adddf3+0xc4>
80006ea4:	8e59                	or	a2,a2,a4
80006ea6:	00c03633          	snez	a2,a2
80006eaa:	bfdd                	j	80006ea0 <__adddf3+0x12a>
/Local/xl_ci/toolchain/riscv-gnu-toolchain/riscv-gcc/libgcc/soft-fp/adddf3.c:46 (discriminator 10)
80006eac:	0a080b63          	beqz	a6,80006f62 <__adddf3+0x1ec>
/Local/xl_ci/toolchain/riscv-gnu-toolchain/riscv-gcc/libgcc/soft-fp/adddf3.c:46 (discriminator 66)
80006eb0:	40830533          	sub	a0,t1,s0
80006eb4:	e40d                	bnez	s0,80006ede <__adddf3+0x168>
/Local/xl_ci/toolchain/riscv-gnu-toolchain/riscv-gcc/libgcc/soft-fp/adddf3.c:46 (discriminator 68)
80006eb6:	00b7e6b3          	or	a3,a5,a1
80006eba:	42068363          	beqz	a3,800072e0 <__adddf3+0x56a>
/Local/xl_ci/toolchain/riscv-gnu-toolchain/riscv-gcc/libgcc/soft-fp/adddf3.c:46 (discriminator 71)
80006ebe:	fff50693          	addi	a3,a0,-1
80006ec2:	e699                	bnez	a3,80006ed0 <__adddf3+0x15a>
/Local/xl_ci/toolchain/riscv-gnu-toolchain/riscv-gcc/libgcc/soft-fp/adddf3.c:46 (discriminator 80)
80006ec4:	95b2                	add	a1,a1,a2
80006ec6:	97ba                	add	a5,a5,a4
80006ec8:	00c5b633          	sltu	a2,a1,a2
80006ecc:	97b2                	add	a5,a5,a2
80006ece:	bf29                	j	80006de8 <__adddf3+0x72>
/Local/xl_ci/toolchain/riscv-gnu-toolchain/riscv-gcc/libgcc/soft-fp/adddf3.c:46 (discriminator 81)
80006ed0:	7ff00813          	li	a6,2047
80006ed4:	01051d63          	bne	a0,a6,80006eee <__adddf3+0x178>
/Local/xl_ci/toolchain/riscv-gnu-toolchain/riscv-gcc/libgcc/soft-fp/adddf3.c:45
80006ed8:	87ba                	mv	a5,a4
80006eda:	85b2                	mv	a1,a2
80006edc:	bf21                	j	80006df4 <__adddf3+0x7e>
/Local/xl_ci/toolchain/riscv-gnu-toolchain/riscv-gcc/libgcc/soft-fp/adddf3.c:46 (discriminator 69)
80006ede:	7ff00693          	li	a3,2047
80006ee2:	fed30be3          	beq	t1,a3,80006ed8 <__adddf3+0x162>
/Local/xl_ci/toolchain/riscv-gnu-toolchain/riscv-gcc/libgcc/soft-fp/adddf3.c:46 (discriminator 95)
80006ee6:	008006b7          	lui	a3,0x800
80006eea:	8fd5                	or	a5,a5,a3
80006eec:	86aa                	mv	a3,a0
/Local/xl_ci/toolchain/riscv-gnu-toolchain/riscv-gcc/libgcc/soft-fp/adddf3.c:46 (discriminator 104)
80006eee:	03800513          	li	a0,56
80006ef2:	06d54363          	blt	a0,a3,80006f58 <__adddf3+0x1e2>
/Local/xl_ci/toolchain/riscv-gnu-toolchain/riscv-gcc/libgcc/soft-fp/adddf3.c:46 (discriminator 105)
80006ef6:	457d                	li	a0,31
80006ef8:	02d54b63          	blt	a0,a3,80006f2e <__adddf3+0x1b8>
/Local/xl_ci/toolchain/riscv-gnu-toolchain/riscv-gcc/libgcc/soft-fp/adddf3.c:46 (discriminator 107)
80006efc:	02000813          	li	a6,32
80006f00:	40d80833          	sub	a6,a6,a3
80006f04:	01079533          	sll	a0,a5,a6
80006f08:	00d5d8b3          	srl	a7,a1,a3
80006f0c:	010595b3          	sll	a1,a1,a6
80006f10:	01156533          	or	a0,a0,a7
80006f14:	00b035b3          	snez	a1,a1
80006f18:	8d4d                	or	a0,a0,a1
80006f1a:	00d7d7b3          	srl	a5,a5,a3
/Local/xl_ci/toolchain/riscv-gnu-toolchain/riscv-gcc/libgcc/soft-fp/adddf3.c:46 (discriminator 121)
80006f1e:	00c505b3          	add	a1,a0,a2
80006f22:	97ba                	add	a5,a5,a4
80006f24:	00c5b633          	sltu	a2,a1,a2
80006f28:	97b2                	add	a5,a5,a2
/Local/xl_ci/toolchain/riscv-gnu-toolchain/riscv-gcc/libgcc/soft-fp/adddf3.c:45 (discriminator 121)
80006f2a:	841a                	mv	s0,t1
80006f2c:	bf31                	j	80006e48 <__adddf3+0xd2>
/Local/xl_ci/toolchain/riscv-gnu-toolchain/riscv-gcc/libgcc/soft-fp/adddf3.c:46 (discriminator 108)
80006f2e:	fe068513          	addi	a0,a3,-32 # 7fffe0 <__stack_size+0x7ff7e0>
80006f32:	02000893          	li	a7,32
80006f36:	00a7d833          	srl	a6,a5,a0
80006f3a:	4501                	li	a0,0
80006f3c:	01168763          	beq	a3,a7,80006f4a <__adddf3+0x1d4>
/Local/xl_ci/toolchain/riscv-gnu-toolchain/riscv-gcc/libgcc/soft-fp/adddf3.c:46 (discriminator 115)
80006f40:	04000513          	li	a0,64
80006f44:	8d15                	sub	a0,a0,a3
80006f46:	00a79533          	sll	a0,a5,a0
/Local/xl_ci/toolchain/riscv-gnu-toolchain/riscv-gcc/libgcc/soft-fp/adddf3.c:46 (discriminator 118)
80006f4a:	8d4d                	or	a0,a0,a1
80006f4c:	00a03533          	snez	a0,a0
80006f50:	00a86533          	or	a0,a6,a0
/Local/xl_ci/toolchain/riscv-gnu-toolchain/riscv-gcc/libgcc/soft-fp/adddf3.c:46 (discriminator 106)
80006f54:	4781                	li	a5,0
80006f56:	b7e1                	j	80006f1e <__adddf3+0x1a8>
80006f58:	00b7e533          	or	a0,a5,a1
80006f5c:	00a03533          	snez	a0,a0
80006f60:	bfd5                	j	80006f54 <__adddf3+0x1de>
/Local/xl_ci/toolchain/riscv-gnu-toolchain/riscv-gcc/libgcc/soft-fp/adddf3.c:46 (discriminator 67)
80006f62:	00140693          	addi	a3,s0,1
80006f66:	7fe6f513          	andi	a0,a3,2046
80006f6a:	e13d                	bnez	a0,80006fd0 <__adddf3+0x25a>
/Local/xl_ci/toolchain/riscv-gnu-toolchain/riscv-gcc/libgcc/soft-fp/adddf3.c:46 (discriminator 123)
80006f6c:	00b7e6b3          	or	a3,a5,a1
80006f70:	e429                	bnez	s0,80006fba <__adddf3+0x244>
/Local/xl_ci/toolchain/riscv-gnu-toolchain/riscv-gcc/libgcc/soft-fp/adddf3.c:46 (discriminator 125)
80006f72:	36068b63          	beqz	a3,800072e8 <__adddf3+0x572>
/Local/xl_ci/toolchain/riscv-gnu-toolchain/riscv-gcc/libgcc/soft-fp/adddf3.c:46 (discriminator 128)
80006f76:	00c766b3          	or	a3,a4,a2
80006f7a:	c285                	beqz	a3,80006f9a <__adddf3+0x224>
/Local/xl_ci/toolchain/riscv-gnu-toolchain/riscv-gcc/libgcc/soft-fp/adddf3.c:46 (discriminator 134)
80006f7c:	962e                	add	a2,a2,a1
80006f7e:	97ba                	add	a5,a5,a4
80006f80:	00b63533          	sltu	a0,a2,a1
80006f84:	97aa                	add	a5,a5,a0
80006f86:	00800737          	lui	a4,0x800
80006f8a:	8f7d                	and	a4,a4,a5
80006f8c:	85b2                	mv	a1,a2
80006f8e:	c711                	beqz	a4,80006f9a <__adddf3+0x224>
/Local/xl_ci/toolchain/riscv-gnu-toolchain/riscv-gcc/libgcc/soft-fp/adddf3.c:46 (discriminator 136)
80006f90:	ff800737          	lui	a4,0xff800
80006f94:	177d                	addi	a4,a4,-1
80006f96:	8ff9                	and	a5,a5,a4
80006f98:	4405                	li	s0,1
/Local/xl_ci/toolchain/riscv-gnu-toolchain/riscv-gcc/libgcc/soft-fp/adddf3.c:47 (discriminator 421)
80006f9a:	0075f713          	andi	a4,a1,7
80006f9e:	34070c63          	beqz	a4,800072f6 <__adddf3+0x580>
/Local/xl_ci/toolchain/riscv-gnu-toolchain/riscv-gcc/libgcc/soft-fp/adddf3.c:47 (discriminator 37)
80006fa2:	00f5f713          	andi	a4,a1,15
80006fa6:	4691                	li	a3,4
80006fa8:	34d70763          	beq	a4,a3,800072f6 <__adddf3+0x580>
/Local/xl_ci/toolchain/riscv-gnu-toolchain/riscv-gcc/libgcc/soft-fp/adddf3.c:47 (discriminator 44)
80006fac:	00458713          	addi	a4,a1,4
80006fb0:	00b73533          	sltu	a0,a4,a1
80006fb4:	97aa                	add	a5,a5,a0
80006fb6:	85ba                	mv	a1,a4
80006fb8:	ae3d                	j	800072f6 <__adddf3+0x580>
/Local/xl_ci/toolchain/riscv-gnu-toolchain/riscv-gcc/libgcc/soft-fp/adddf3.c:46 (discriminator 153)
80006fba:	de99                	beqz	a3,80006ed8 <__adddf3+0x162>
/Local/xl_ci/toolchain/riscv-gnu-toolchain/riscv-gcc/libgcc/soft-fp/adddf3.c:46 (discriminator 155)
80006fbc:	8e59                	or	a2,a2,a4
80006fbe:	e2060be3          	beqz	a2,80006df4 <__adddf3+0x7e>
/Local/xl_ci/toolchain/riscv-gnu-toolchain/riscv-gcc/libgcc/soft-fp/adddf3.c:46
80006fc2:	4481                	li	s1,0
80006fc4:	004007b7          	lui	a5,0x400
80006fc8:	4581                	li	a1,0
80006fca:	7ff00413          	li	s0,2047
80006fce:	a625                	j	800072f6 <__adddf3+0x580>
/Local/xl_ci/toolchain/riscv-gnu-toolchain/riscv-gcc/libgcc/soft-fp/adddf3.c:46 (discriminator 124)
80006fd0:	7ff00513          	li	a0,2047
80006fd4:	30a68d63          	beq	a3,a0,800072ee <__adddf3+0x578>
/Local/xl_ci/toolchain/riscv-gnu-toolchain/riscv-gcc/libgcc/soft-fp/adddf3.c:46
80006fd8:	962e                	add	a2,a2,a1
80006fda:	00b63533          	sltu	a0,a2,a1
80006fde:	97ba                	add	a5,a5,a4
80006fe0:	97aa                	add	a5,a5,a0
80006fe2:	01f79513          	slli	a0,a5,0x1f
80006fe6:	8205                	srli	a2,a2,0x1
80006fe8:	00c565b3          	or	a1,a0,a2
80006fec:	8385                	srli	a5,a5,0x1
80006fee:	8436                	mv	s0,a3
80006ff0:	b76d                	j	80006f9a <__adddf3+0x224>
/Local/xl_ci/toolchain/riscv-gnu-toolchain/riscv-gcc/libgcc/soft-fp/adddf3.c:46 (discriminator 8)
80006ff2:	0d005663          	blez	a6,800070be <__adddf3+0x348>
/Local/xl_ci/toolchain/riscv-gnu-toolchain/riscv-gcc/libgcc/soft-fp/adddf3.c:46 (discriminator 200)
80006ff6:	08031163          	bnez	t1,80007078 <__adddf3+0x302>
/Local/xl_ci/toolchain/riscv-gnu-toolchain/riscv-gcc/libgcc/soft-fp/adddf3.c:46 (discriminator 202)
80006ffa:	00c766b3          	or	a3,a4,a2
80006ffe:	34068d63          	beqz	a3,80007358 <__adddf3+0x5e2>
/Local/xl_ci/toolchain/riscv-gnu-toolchain/riscv-gcc/libgcc/soft-fp/adddf3.c:46 (discriminator 205)
80007002:	fff80513          	addi	a0,a6,-1
80007006:	e911                	bnez	a0,8000701a <__adddf3+0x2a4>
/Local/xl_ci/toolchain/riscv-gnu-toolchain/riscv-gcc/libgcc/soft-fp/adddf3.c:46 (discriminator 214)
80007008:	40c58633          	sub	a2,a1,a2
8000700c:	00c5b533          	sltu	a0,a1,a2
80007010:	8f99                	sub	a5,a5,a4
80007012:	8f89                	sub	a5,a5,a0
80007014:	85b2                	mv	a1,a2
/Local/xl_ci/toolchain/riscv-gnu-toolchain/riscv-gcc/libgcc/soft-fp/adddf3.c:45 (discriminator 271)
80007016:	4405                	li	s0,1
/Local/xl_ci/toolchain/riscv-gnu-toolchain/riscv-gcc/libgcc/soft-fp/adddf3.c:46 (discriminator 271)
80007018:	a0b1                	j	80007064 <__adddf3+0x2ee>
/Local/xl_ci/toolchain/riscv-gnu-toolchain/riscv-gcc/libgcc/soft-fp/adddf3.c:46 (discriminator 215)
8000701a:	7ff00693          	li	a3,2047
8000701e:	dcd80be3          	beq	a6,a3,80006df4 <__adddf3+0x7e>
/Local/xl_ci/toolchain/riscv-gnu-toolchain/riscv-gcc/libgcc/soft-fp/adddf3.c:46 (discriminator 238)
80007022:	03800693          	li	a3,56
80007026:	08a6c863          	blt	a3,a0,800070b6 <__adddf3+0x340>
/Local/xl_ci/toolchain/riscv-gnu-toolchain/riscv-gcc/libgcc/soft-fp/adddf3.c:46 (discriminator 239)
8000702a:	46fd                	li	a3,31
8000702c:	04a6cf63          	blt	a3,a0,8000708a <__adddf3+0x314>
/Local/xl_ci/toolchain/riscv-gnu-toolchain/riscv-gcc/libgcc/soft-fp/adddf3.c:46 (discriminator 241)
80007030:	02000813          	li	a6,32
80007034:	40a80833          	sub	a6,a6,a0
80007038:	010716b3          	sll	a3,a4,a6
8000703c:	00a658b3          	srl	a7,a2,a0
80007040:	01061633          	sll	a2,a2,a6
80007044:	0116e6b3          	or	a3,a3,a7
80007048:	00c03633          	snez	a2,a2
8000704c:	8e55                	or	a2,a2,a3
8000704e:	00a75733          	srl	a4,a4,a0
/Local/xl_ci/toolchain/riscv-gnu-toolchain/riscv-gcc/libgcc/soft-fp/adddf3.c:46 (discriminator 255)
80007052:	40c58633          	sub	a2,a1,a2
80007056:	00c5b533          	sltu	a0,a1,a2
8000705a:	40e78733          	sub	a4,a5,a4
8000705e:	40a707b3          	sub	a5,a4,a0
80007062:	85b2                	mv	a1,a2
/Local/xl_ci/toolchain/riscv-gnu-toolchain/riscv-gcc/libgcc/soft-fp/adddf3.c:46 (discriminator 313)
80007064:	00800937          	lui	s2,0x800
80007068:	0127f733          	and	a4,a5,s2
8000706c:	d71d                	beqz	a4,80006f9a <__adddf3+0x224>
/Local/xl_ci/toolchain/riscv-gnu-toolchain/riscv-gcc/libgcc/soft-fp/adddf3.c:46 (discriminator 373)
8000706e:	197d                	addi	s2,s2,-1
80007070:	0127f933          	and	s2,a5,s2
80007074:	89ae                	mv	s3,a1
80007076:	aa5d                	j	8000722c <__adddf3+0x4b6>
/Local/xl_ci/toolchain/riscv-gnu-toolchain/riscv-gcc/libgcc/soft-fp/adddf3.c:46 (discriminator 203)
80007078:	7ff00693          	li	a3,2047
8000707c:	f0d40fe3          	beq	s0,a3,80006f9a <__adddf3+0x224>
/Local/xl_ci/toolchain/riscv-gnu-toolchain/riscv-gcc/libgcc/soft-fp/adddf3.c:46 (discriminator 229)
80007080:	008006b7          	lui	a3,0x800
80007084:	8f55                	or	a4,a4,a3
80007086:	8542                	mv	a0,a6
80007088:	bf69                	j	80007022 <__adddf3+0x2ac>
/Local/xl_ci/toolchain/riscv-gnu-toolchain/riscv-gcc/libgcc/soft-fp/adddf3.c:46 (discriminator 242)
8000708a:	fe050693          	addi	a3,a0,-32
8000708e:	02000893          	li	a7,32
80007092:	00d756b3          	srl	a3,a4,a3
80007096:	4801                	li	a6,0
80007098:	01150863          	beq	a0,a7,800070a8 <__adddf3+0x332>
/Local/xl_ci/toolchain/riscv-gnu-toolchain/riscv-gcc/libgcc/soft-fp/adddf3.c:46 (discriminator 249)
8000709c:	04000813          	li	a6,64
800070a0:	40a80533          	sub	a0,a6,a0
800070a4:	00a71833          	sll	a6,a4,a0
/Local/xl_ci/toolchain/riscv-gnu-toolchain/riscv-gcc/libgcc/soft-fp/adddf3.c:46 (discriminator 252)
800070a8:	00c86633          	or	a2,a6,a2
800070ac:	00c03633          	snez	a2,a2
800070b0:	8e55                	or	a2,a2,a3
/Local/xl_ci/toolchain/riscv-gnu-toolchain/riscv-gcc/libgcc/soft-fp/adddf3.c:46 (discriminator 240)
800070b2:	4701                	li	a4,0
800070b4:	bf79                	j	80007052 <__adddf3+0x2dc>
800070b6:	8e59                	or	a2,a2,a4
800070b8:	00c03633          	snez	a2,a2
800070bc:	bfdd                	j	800070b2 <__adddf3+0x33c>
/Local/xl_ci/toolchain/riscv-gnu-toolchain/riscv-gcc/libgcc/soft-fp/adddf3.c:46 (discriminator 201)
800070be:	0c080563          	beqz	a6,80007188 <__adddf3+0x412>
/Local/xl_ci/toolchain/riscv-gnu-toolchain/riscv-gcc/libgcc/soft-fp/adddf3.c:46 (discriminator 257)
800070c2:	40830533          	sub	a0,t1,s0
800070c6:	e81d                	bnez	s0,800070fc <__adddf3+0x386>
/Local/xl_ci/toolchain/riscv-gnu-toolchain/riscv-gcc/libgcc/soft-fp/adddf3.c:46 (discriminator 259)
800070c8:	00b7e833          	or	a6,a5,a1
800070cc:	28080863          	beqz	a6,8000735c <__adddf3+0x5e6>
/Local/xl_ci/toolchain/riscv-gnu-toolchain/riscv-gcc/libgcc/soft-fp/adddf3.c:46 (discriminator 262)
800070d0:	fff50813          	addi	a6,a0,-1
800070d4:	00081b63          	bnez	a6,800070ea <__adddf3+0x374>
/Local/xl_ci/toolchain/riscv-gnu-toolchain/riscv-gcc/libgcc/soft-fp/adddf3.c:46 (discriminator 271)
800070d8:	40b605b3          	sub	a1,a2,a1
800070dc:	40f707b3          	sub	a5,a4,a5
800070e0:	00b63633          	sltu	a2,a2,a1
800070e4:	8f91                	sub	a5,a5,a2
800070e6:	84b6                	mv	s1,a3
800070e8:	b73d                	j	80007016 <__adddf3+0x2a0>
/Local/xl_ci/toolchain/riscv-gnu-toolchain/riscv-gcc/libgcc/soft-fp/adddf3.c:46 (discriminator 272)
800070ea:	7ff00893          	li	a7,2047
800070ee:	03151063          	bne	a0,a7,8000710e <__adddf3+0x398>
/Local/xl_ci/toolchain/riscv-gnu-toolchain/riscv-gcc/libgcc/soft-fp/adddf3.c:45
800070f2:	87ba                	mv	a5,a4
800070f4:	85b2                	mv	a1,a2
/Local/xl_ci/toolchain/riscv-gnu-toolchain/riscv-gcc/libgcc/soft-fp/adddf3.c:46
800070f6:	7ff00413          	li	s0,2047
800070fa:	a07d                	j	800071a8 <__adddf3+0x432>
/Local/xl_ci/toolchain/riscv-gnu-toolchain/riscv-gcc/libgcc/soft-fp/adddf3.c:46 (discriminator 260)
800070fc:	7ff00813          	li	a6,2047
80007100:	ff0309e3          	beq	t1,a6,800070f2 <__adddf3+0x37c>
/Local/xl_ci/toolchain/riscv-gnu-toolchain/riscv-gcc/libgcc/soft-fp/adddf3.c:46 (discriminator 286)
80007104:	00800837          	lui	a6,0x800
80007108:	0107e7b3          	or	a5,a5,a6
8000710c:	882a                	mv	a6,a0
/Local/xl_ci/toolchain/riscv-gnu-toolchain/riscv-gcc/libgcc/soft-fp/adddf3.c:46 (discriminator 295)
8000710e:	03800513          	li	a0,56
80007112:	07054663          	blt	a0,a6,8000717e <__adddf3+0x408>
/Local/xl_ci/toolchain/riscv-gnu-toolchain/riscv-gcc/libgcc/soft-fp/adddf3.c:46 (discriminator 296)
80007116:	457d                	li	a0,31
80007118:	03054d63          	blt	a0,a6,80007152 <__adddf3+0x3dc>
/Local/xl_ci/toolchain/riscv-gnu-toolchain/riscv-gcc/libgcc/soft-fp/adddf3.c:46 (discriminator 298)
8000711c:	02000893          	li	a7,32
80007120:	410888b3          	sub	a7,a7,a6
80007124:	01179533          	sll	a0,a5,a7
80007128:	0105de33          	srl	t3,a1,a6
8000712c:	011595b3          	sll	a1,a1,a7
80007130:	01c56533          	or	a0,a0,t3
80007134:	00b035b3          	snez	a1,a1
80007138:	8d4d                	or	a0,a0,a1
8000713a:	0107d7b3          	srl	a5,a5,a6
/Local/xl_ci/toolchain/riscv-gnu-toolchain/riscv-gcc/libgcc/soft-fp/adddf3.c:46 (discriminator 312)
8000713e:	40a605b3          	sub	a1,a2,a0
80007142:	40f707b3          	sub	a5,a4,a5
80007146:	00b63633          	sltu	a2,a2,a1
8000714a:	8f91                	sub	a5,a5,a2
/Local/xl_ci/toolchain/riscv-gnu-toolchain/riscv-gcc/libgcc/soft-fp/adddf3.c:45 (discriminator 312)
8000714c:	841a                	mv	s0,t1
8000714e:	84b6                	mv	s1,a3
80007150:	bf11                	j	80007064 <__adddf3+0x2ee>
/Local/xl_ci/toolchain/riscv-gnu-toolchain/riscv-gcc/libgcc/soft-fp/adddf3.c:46 (discriminator 299)
80007152:	fe080513          	addi	a0,a6,-32 # 7fffe0 <__stack_size+0x7ff7e0>
80007156:	02000e13          	li	t3,32
8000715a:	00a7d8b3          	srl	a7,a5,a0
8000715e:	4501                	li	a0,0
80007160:	01c80863          	beq	a6,t3,80007170 <__adddf3+0x3fa>
/Local/xl_ci/toolchain/riscv-gnu-toolchain/riscv-gcc/libgcc/soft-fp/adddf3.c:46 (discriminator 306)
80007164:	04000513          	li	a0,64
80007168:	41050533          	sub	a0,a0,a6
8000716c:	00a79533          	sll	a0,a5,a0
/Local/xl_ci/toolchain/riscv-gnu-toolchain/riscv-gcc/libgcc/soft-fp/adddf3.c:46 (discriminator 309)
80007170:	8d4d                	or	a0,a0,a1
80007172:	00a03533          	snez	a0,a0
80007176:	00a8e533          	or	a0,a7,a0
/Local/xl_ci/toolchain/riscv-gnu-toolchain/riscv-gcc/libgcc/soft-fp/adddf3.c:46 (discriminator 297)
8000717a:	4781                	li	a5,0
8000717c:	b7c9                	j	8000713e <__adddf3+0x3c8>
8000717e:	00b7e533          	or	a0,a5,a1
80007182:	00a03533          	snez	a0,a0
80007186:	bfd5                	j	8000717a <__adddf3+0x404>
/Local/xl_ci/toolchain/riscv-gnu-toolchain/riscv-gcc/libgcc/soft-fp/adddf3.c:46 (discriminator 258)
80007188:	00140513          	addi	a0,s0,1
8000718c:	7fe57513          	andi	a0,a0,2046
80007190:	e925                	bnez	a0,80007200 <__adddf3+0x48a>
/Local/xl_ci/toolchain/riscv-gnu-toolchain/riscv-gcc/libgcc/soft-fp/adddf3.c:46 (discriminator 314)
80007192:	00b7e833          	or	a6,a5,a1
80007196:	00c76533          	or	a0,a4,a2
8000719a:	e821                	bnez	s0,800071ea <__adddf3+0x474>
/Local/xl_ci/toolchain/riscv-gnu-toolchain/riscv-gcc/libgcc/soft-fp/adddf3.c:46 (discriminator 316)
8000719c:	00081863          	bnez	a6,800071ac <__adddf3+0x436>
/Local/xl_ci/toolchain/riscv-gnu-toolchain/riscv-gcc/libgcc/soft-fp/adddf3.c:46 (discriminator 318)
800071a0:	1c050263          	beqz	a0,80007364 <__adddf3+0x5ee>
/Local/xl_ci/toolchain/riscv-gnu-toolchain/riscv-gcc/libgcc/soft-fp/adddf3.c:45
800071a4:	87ba                	mv	a5,a4
800071a6:	85b2                	mv	a1,a2
800071a8:	84b6                	mv	s1,a3
800071aa:	bbc5                	j	80006f9a <__adddf3+0x224>
/Local/xl_ci/toolchain/riscv-gnu-toolchain/riscv-gcc/libgcc/soft-fp/adddf3.c:46 (discriminator 319)
800071ac:	de0507e3          	beqz	a0,80006f9a <__adddf3+0x224>
/Local/xl_ci/toolchain/riscv-gnu-toolchain/riscv-gcc/libgcc/soft-fp/adddf3.c:46 (discriminator 326)
800071b0:	40c58833          	sub	a6,a1,a2
800071b4:	0105b8b3          	sltu	a7,a1,a6
800071b8:	40e78533          	sub	a0,a5,a4
800071bc:	41150533          	sub	a0,a0,a7
800071c0:	008008b7          	lui	a7,0x800
800071c4:	011578b3          	and	a7,a0,a7
800071c8:	00088a63          	beqz	a7,800071dc <__adddf3+0x466>
/Local/xl_ci/toolchain/riscv-gnu-toolchain/riscv-gcc/libgcc/soft-fp/adddf3.c:46 (discriminator 328)
800071cc:	40b605b3          	sub	a1,a2,a1
800071d0:	40f707b3          	sub	a5,a4,a5
800071d4:	00b63633          	sltu	a2,a2,a1
800071d8:	8f91                	sub	a5,a5,a2
800071da:	b7f9                	j	800071a8 <__adddf3+0x432>
/Local/xl_ci/toolchain/riscv-gnu-toolchain/riscv-gcc/libgcc/soft-fp/adddf3.c:46 (discriminator 329)
800071dc:	00a865b3          	or	a1,a6,a0
800071e0:	18058663          	beqz	a1,8000736c <__adddf3+0x5f6>
/Local/xl_ci/toolchain/riscv-gnu-toolchain/riscv-gcc/libgcc/soft-fp/adddf3.c:46
800071e4:	87aa                	mv	a5,a0
800071e6:	85c2                	mv	a1,a6
800071e8:	bb4d                	j	80006f9a <__adddf3+0x224>
/Local/xl_ci/toolchain/riscv-gnu-toolchain/riscv-gcc/libgcc/soft-fp/adddf3.c:46 (discriminator 348)
800071ea:	00081863          	bnez	a6,800071fa <__adddf3+0x484>
/Local/xl_ci/toolchain/riscv-gnu-toolchain/riscv-gcc/libgcc/soft-fp/adddf3.c:46 (discriminator 349)
800071ee:	18050163          	beqz	a0,80007370 <__adddf3+0x5fa>
/Local/xl_ci/toolchain/riscv-gnu-toolchain/riscv-gcc/libgcc/soft-fp/adddf3.c:45
800071f2:	87ba                	mv	a5,a4
800071f4:	85b2                	mv	a1,a2
/Local/xl_ci/toolchain/riscv-gnu-toolchain/riscv-gcc/libgcc/soft-fp/adddf3.c:46
800071f6:	84b6                	mv	s1,a3
800071f8:	bef5                	j	80006df4 <__adddf3+0x7e>
/Local/xl_ci/toolchain/riscv-gnu-toolchain/riscv-gcc/libgcc/soft-fp/adddf3.c:46 (discriminator 350)
800071fa:	be050de3          	beqz	a0,80006df4 <__adddf3+0x7e>
800071fe:	b3d1                	j	80006fc2 <__adddf3+0x24c>
/Local/xl_ci/toolchain/riscv-gnu-toolchain/riscv-gcc/libgcc/soft-fp/adddf3.c:46 (discriminator 315)
80007200:	40c589b3          	sub	s3,a1,a2
80007204:	0135b533          	sltu	a0,a1,s3
80007208:	40e78933          	sub	s2,a5,a4
8000720c:	40a90933          	sub	s2,s2,a0
80007210:	00800537          	lui	a0,0x800
80007214:	00a97533          	and	a0,s2,a0
80007218:	c925                	beqz	a0,80007288 <__adddf3+0x512>
/Local/xl_ci/toolchain/riscv-gnu-toolchain/riscv-gcc/libgcc/soft-fp/adddf3.c:46 (discriminator 366)
8000721a:	40b609b3          	sub	s3,a2,a1
8000721e:	40f707b3          	sub	a5,a4,a5
80007222:	01363633          	sltu	a2,a2,s3
80007226:	40c78933          	sub	s2,a5,a2
8000722a:	84b6                	mv	s1,a3
/Local/xl_ci/toolchain/riscv-gnu-toolchain/riscv-gcc/libgcc/soft-fp/adddf3.c:46 (discriminator 375)
8000722c:	06090463          	beqz	s2,80007294 <__adddf3+0x51e>
/Local/xl_ci/toolchain/riscv-gnu-toolchain/riscv-gcc/libgcc/soft-fp/adddf3.c:46 (discriminator 378)
80007230:	854a                	mv	a0,s2
80007232:	62c010ef          	jal	ra,8000885e <__clzsi2>
/Local/xl_ci/toolchain/riscv-gnu-toolchain/riscv-gcc/libgcc/soft-fp/adddf3.c:46 (discriminator 392)
80007236:	ff850713          	addi	a4,a0,-8 # 7ffff8 <__stack_size+0x7ff7f8>
8000723a:	47fd                	li	a5,31
8000723c:	06e7c263          	blt	a5,a4,800072a0 <__adddf3+0x52a>
/Local/xl_ci/toolchain/riscv-gnu-toolchain/riscv-gcc/libgcc/soft-fp/adddf3.c:46 (discriminator 398)
80007240:	02000793          	li	a5,32
80007244:	8f99                	sub	a5,a5,a4
80007246:	00e91933          	sll	s2,s2,a4
8000724a:	00f9d7b3          	srl	a5,s3,a5
8000724e:	0127e7b3          	or	a5,a5,s2
80007252:	00e995b3          	sll	a1,s3,a4
/Local/xl_ci/toolchain/riscv-gnu-toolchain/riscv-gcc/libgcc/soft-fp/adddf3.c:46 (discriminator 402)
80007256:	06874f63          	blt	a4,s0,800072d4 <__adddf3+0x55e>
/Local/xl_ci/toolchain/riscv-gnu-toolchain/riscv-gcc/libgcc/soft-fp/adddf3.c:46 (discriminator 403)
8000725a:	8f01                	sub	a4,a4,s0
8000725c:	00170693          	addi	a3,a4,1 # ff800001 <_sp+0x6f7f0001>
80007260:	467d                	li	a2,31
80007262:	04d64563          	blt	a2,a3,800072ac <__adddf3+0x536>
/Local/xl_ci/toolchain/riscv-gnu-toolchain/riscv-gcc/libgcc/soft-fp/adddf3.c:46 (discriminator 405)
80007266:	02000713          	li	a4,32
8000726a:	8f15                	sub	a4,a4,a3
8000726c:	00e79633          	sll	a2,a5,a4
80007270:	00d5d533          	srl	a0,a1,a3
80007274:	00e595b3          	sll	a1,a1,a4
80007278:	8e49                	or	a2,a2,a0
8000727a:	00b035b3          	snez	a1,a1
8000727e:	8dd1                	or	a1,a1,a2
80007280:	00d7d7b3          	srl	a5,a5,a3
/Local/xl_ci/toolchain/riscv-gnu-toolchain/riscv-gcc/libgcc/soft-fp/adddf3.c:46 (discriminator 417)
80007284:	4401                	li	s0,0
80007286:	bb11                	j	80006f9a <__adddf3+0x224>
/Local/xl_ci/toolchain/riscv-gnu-toolchain/riscv-gcc/libgcc/soft-fp/adddf3.c:46 (discriminator 367)
80007288:	0129e5b3          	or	a1,s3,s2
8000728c:	f1c5                	bnez	a1,8000722c <__adddf3+0x4b6>
8000728e:	4781                	li	a5,0
/Local/xl_ci/toolchain/riscv-gnu-toolchain/riscv-gcc/libgcc/soft-fp/adddf3.c:46
80007290:	4401                	li	s0,0
80007292:	a8d9                	j	80007368 <__adddf3+0x5f2>
/Local/xl_ci/toolchain/riscv-gnu-toolchain/riscv-gcc/libgcc/soft-fp/adddf3.c:46 (discriminator 385)
80007294:	854e                	mv	a0,s3
80007296:	5c8010ef          	jal	ra,8000885e <__clzsi2>
8000729a:	02050513          	addi	a0,a0,32
8000729e:	bf61                	j	80007236 <__adddf3+0x4c0>
/Local/xl_ci/toolchain/riscv-gnu-toolchain/riscv-gcc/libgcc/soft-fp/adddf3.c:46 (discriminator 394)
800072a0:	fd850793          	addi	a5,a0,-40
800072a4:	00f997b3          	sll	a5,s3,a5
800072a8:	4581                	li	a1,0
800072aa:	b775                	j	80007256 <__adddf3+0x4e0>
/Local/xl_ci/toolchain/riscv-gnu-toolchain/riscv-gcc/libgcc/soft-fp/adddf3.c:46 (discriminator 406)
800072ac:	1705                	addi	a4,a4,-31
800072ae:	02000613          	li	a2,32
800072b2:	00e7d733          	srl	a4,a5,a4
800072b6:	4501                	li	a0,0
800072b8:	00c68763          	beq	a3,a2,800072c6 <__adddf3+0x550>
/Local/xl_ci/toolchain/riscv-gnu-toolchain/riscv-gcc/libgcc/soft-fp/adddf3.c:46 (discriminator 414)
800072bc:	04000513          	li	a0,64
800072c0:	8d15                	sub	a0,a0,a3
800072c2:	00a79533          	sll	a0,a5,a0
/Local/xl_ci/toolchain/riscv-gnu-toolchain/riscv-gcc/libgcc/soft-fp/adddf3.c:46 (discriminator 417)
800072c6:	8d4d                	or	a0,a0,a1
800072c8:	00a03533          	snez	a0,a0
800072cc:	00a765b3          	or	a1,a4,a0
800072d0:	4781                	li	a5,0
800072d2:	bf4d                	j	80007284 <__adddf3+0x50e>
/Local/xl_ci/toolchain/riscv-gnu-toolchain/riscv-gcc/libgcc/soft-fp/adddf3.c:46 (discriminator 404)
800072d4:	8c19                	sub	s0,s0,a4
800072d6:	ff800737          	lui	a4,0xff800
800072da:	177d                	addi	a4,a4,-1
800072dc:	8ff9                	and	a5,a5,a4
800072de:	b975                	j	80006f9a <__adddf3+0x224>
/Local/xl_ci/toolchain/riscv-gnu-toolchain/riscv-gcc/libgcc/soft-fp/adddf3.c:45
800072e0:	87ba                	mv	a5,a4
800072e2:	85b2                	mv	a1,a2
/Local/xl_ci/toolchain/riscv-gnu-toolchain/riscv-gcc/libgcc/soft-fp/adddf3.c:46
800072e4:	842a                	mv	s0,a0
800072e6:	b955                	j	80006f9a <__adddf3+0x224>
/Local/xl_ci/toolchain/riscv-gnu-toolchain/riscv-gcc/libgcc/soft-fp/adddf3.c:45
800072e8:	87ba                	mv	a5,a4
800072ea:	85b2                	mv	a1,a2
800072ec:	b17d                	j	80006f9a <__adddf3+0x224>
800072ee:	7ff00413          	li	s0,2047
800072f2:	4781                	li	a5,0
800072f4:	4581                	li	a1,0
/Local/xl_ci/toolchain/riscv-gnu-toolchain/riscv-gcc/libgcc/soft-fp/adddf3.c:47 (discriminator 47)
800072f6:	00800737          	lui	a4,0x800
800072fa:	8f7d                	and	a4,a4,a5
800072fc:	cb11                	beqz	a4,80007310 <__adddf3+0x59a>
/Local/xl_ci/toolchain/riscv-gnu-toolchain/riscv-gcc/libgcc/soft-fp/adddf3.c:47 (discriminator 63)
800072fe:	0405                	addi	s0,s0,1
80007300:	7ff00713          	li	a4,2047
80007304:	06e40b63          	beq	s0,a4,8000737a <__adddf3+0x604>
/Local/xl_ci/toolchain/riscv-gnu-toolchain/riscv-gcc/libgcc/soft-fp/adddf3.c:47
80007308:	ff800737          	lui	a4,0xff800
8000730c:	177d                	addi	a4,a4,-1
8000730e:	8ff9                	and	a5,a5,a4
/Local/xl_ci/toolchain/riscv-gnu-toolchain/riscv-gcc/libgcc/soft-fp/adddf3.c:47 (discriminator 79)
80007310:	01d79713          	slli	a4,a5,0x1d
80007314:	0035d513          	srli	a0,a1,0x3
80007318:	8d59                	or	a0,a0,a4
8000731a:	7ff00713          	li	a4,2047
8000731e:	838d                	srli	a5,a5,0x3
80007320:	00e41963          	bne	s0,a4,80007332 <__adddf3+0x5bc>
/Local/xl_ci/toolchain/riscv-gnu-toolchain/riscv-gcc/libgcc/soft-fp/adddf3.c:47 (discriminator 80)
80007324:	8d5d                	or	a0,a0,a5
80007326:	4781                	li	a5,0
80007328:	c509                	beqz	a0,80007332 <__adddf3+0x5bc>
/Local/xl_ci/toolchain/riscv-gnu-toolchain/riscv-gcc/libgcc/soft-fp/adddf3.c:47
8000732a:	000807b7          	lui	a5,0x80
8000732e:	4501                	li	a0,0
80007330:	4481                	li	s1,0
/Local/xl_ci/toolchain/riscv-gnu-toolchain/riscv-gcc/libgcc/soft-fp/adddf3.c:47 (discriminator 90)
80007332:	01441713          	slli	a4,s0,0x14
80007336:	7ff006b7          	lui	a3,0x7ff00
8000733a:	07b2                	slli	a5,a5,0xc
/Local/xl_ci/toolchain/riscv-gnu-toolchain/riscv-gcc/libgcc/soft-fp/adddf3.c:51 (discriminator 90)
8000733c:	40f2                	lw	ra,28(sp)
8000733e:	4462                	lw	s0,24(sp)
/Local/xl_ci/toolchain/riscv-gnu-toolchain/riscv-gcc/libgcc/soft-fp/adddf3.c:47 (discriminator 90)
80007340:	8f75                	and	a4,a4,a3
80007342:	83b1                	srli	a5,a5,0xc
80007344:	04fe                	slli	s1,s1,0x1f
80007346:	8fd9                	or	a5,a5,a4
80007348:	0097e733          	or	a4,a5,s1
/Local/xl_ci/toolchain/riscv-gnu-toolchain/riscv-gcc/libgcc/soft-fp/adddf3.c:51 (discriminator 90)
8000734c:	4942                	lw	s2,16(sp)
8000734e:	44d2                	lw	s1,20(sp)
80007350:	49b2                	lw	s3,12(sp)
80007352:	85ba                	mv	a1,a4
80007354:	6105                	addi	sp,sp,32
80007356:	8082                	ret
80007358:	8442                	mv	s0,a6
8000735a:	b181                	j	80006f9a <__adddf3+0x224>
/Local/xl_ci/toolchain/riscv-gnu-toolchain/riscv-gcc/libgcc/soft-fp/adddf3.c:45
8000735c:	87ba                	mv	a5,a4
8000735e:	85b2                	mv	a1,a2
/Local/xl_ci/toolchain/riscv-gnu-toolchain/riscv-gcc/libgcc/soft-fp/adddf3.c:46
80007360:	842a                	mv	s0,a0
80007362:	b599                	j	800071a8 <__adddf3+0x432>
80007364:	4781                	li	a5,0
80007366:	4581                	li	a1,0
80007368:	4481                	li	s1,0
8000736a:	b771                	j	800072f6 <__adddf3+0x580>
8000736c:	4781                	li	a5,0
8000736e:	bfed                	j	80007368 <__adddf3+0x5f2>
80007370:	4581                	li	a1,0
80007372:	4481                	li	s1,0
80007374:	004007b7          	lui	a5,0x400
80007378:	b989                	j	80006fca <__adddf3+0x254>
8000737a:	4781                	li	a5,0
8000737c:	4581                	li	a1,0
8000737e:	bf49                	j	80007310 <__adddf3+0x59a>

80007380 <__divdf3>:
__divdf3():
/Local/xl_ci/toolchain/riscv-gnu-toolchain/riscv-gcc/libgcc/soft-fp/divdf3.c:36
80007380:	7179                	addi	sp,sp,-48
80007382:	d04a                	sw	s2,32(sp)
/Local/xl_ci/toolchain/riscv-gnu-toolchain/riscv-gcc/libgcc/soft-fp/divdf3.c:44
80007384:	0145d913          	srli	s2,a1,0x14
/Local/xl_ci/toolchain/riscv-gnu-toolchain/riscv-gcc/libgcc/soft-fp/divdf3.c:36
80007388:	d226                	sw	s1,36(sp)
8000738a:	ce4e                	sw	s3,28(sp)
8000738c:	cc52                	sw	s4,24(sp)
8000738e:	c85a                	sw	s6,16(sp)
80007390:	c462                	sw	s8,8(sp)
/Local/xl_ci/toolchain/riscv-gnu-toolchain/riscv-gcc/libgcc/soft-fp/divdf3.c:44
80007392:	00c59493          	slli	s1,a1,0xc
/Local/xl_ci/toolchain/riscv-gnu-toolchain/riscv-gcc/libgcc/soft-fp/divdf3.c:36
80007396:	d606                	sw	ra,44(sp)
80007398:	d422                	sw	s0,40(sp)
8000739a:	ca56                	sw	s5,20(sp)
8000739c:	c65e                	sw	s7,12(sp)
/Local/xl_ci/toolchain/riscv-gnu-toolchain/riscv-gcc/libgcc/soft-fp/divdf3.c:44
8000739e:	7ff97913          	andi	s2,s2,2047
/Local/xl_ci/toolchain/riscv-gnu-toolchain/riscv-gcc/libgcc/soft-fp/divdf3.c:36
800073a2:	8a2a                	mv	s4,a0
800073a4:	8b32                	mv	s6,a2
800073a6:	8c36                	mv	s8,a3
/Local/xl_ci/toolchain/riscv-gnu-toolchain/riscv-gcc/libgcc/soft-fp/divdf3.c:44
800073a8:	80b1                	srli	s1,s1,0xc
800073aa:	01f5d993          	srli	s3,a1,0x1f
800073ae:	08090463          	beqz	s2,80007436 <__divdf3+0xb6>
800073b2:	7ff00793          	li	a5,2047
800073b6:	0cf90a63          	beq	s2,a5,8000748a <__divdf3+0x10a>
/Local/xl_ci/toolchain/riscv-gnu-toolchain/riscv-gcc/libgcc/soft-fp/divdf3.c:44 (discriminator 1)
800073ba:	01d55a93          	srli	s5,a0,0x1d
800073be:	048e                	slli	s1,s1,0x3
800073c0:	009ae4b3          	or	s1,s5,s1
800073c4:	00800ab7          	lui	s5,0x800
800073c8:	0154eab3          	or	s5,s1,s5
800073cc:	00351413          	slli	s0,a0,0x3
800073d0:	c0190913          	addi	s2,s2,-1023 # 7ffc01 <__stack_size+0x7ff401>
/Local/xl_ci/toolchain/riscv-gnu-toolchain/riscv-gcc/libgcc/soft-fp/divdf3.c:44 (discriminator 41)
800073d4:	4b81                	li	s7,0
/Local/xl_ci/toolchain/riscv-gnu-toolchain/riscv-gcc/libgcc/soft-fp/divdf3.c:45 (discriminator 8)
800073d6:	00cc1513          	slli	a0,s8,0xc
800073da:	00c55493          	srli	s1,a0,0xc
800073de:	014c5513          	srli	a0,s8,0x14
800073e2:	7ff57593          	andi	a1,a0,2047
800073e6:	01fc5c13          	srli	s8,s8,0x1f
800073ea:	c1f9                	beqz	a1,800074b0 <__divdf3+0x130>
/Local/xl_ci/toolchain/riscv-gnu-toolchain/riscv-gcc/libgcc/soft-fp/divdf3.c:45
800073ec:	7ff00793          	li	a5,2047
800073f0:	10f58b63          	beq	a1,a5,80007506 <__divdf3+0x186>
/Local/xl_ci/toolchain/riscv-gnu-toolchain/riscv-gcc/libgcc/soft-fp/divdf3.c:45 (discriminator 1)
800073f4:	00349513          	slli	a0,s1,0x3
800073f8:	01db5793          	srli	a5,s6,0x1d
800073fc:	8d5d                	or	a0,a0,a5
800073fe:	008004b7          	lui	s1,0x800
80007402:	8cc9                	or	s1,s1,a0
80007404:	003b1f93          	slli	t6,s6,0x3
80007408:	c0158513          	addi	a0,a1,-1023
/Local/xl_ci/toolchain/riscv-gnu-toolchain/riscv-gcc/libgcc/soft-fp/divdf3.c:45 (discriminator 41)
8000740c:	4781                	li	a5,0
/Local/xl_ci/toolchain/riscv-gnu-toolchain/riscv-gcc/libgcc/soft-fp/divdf3.c:46 (discriminator 8)
8000740e:	002b9713          	slli	a4,s7,0x2
80007412:	8f5d                	or	a4,a4,a5
80007414:	177d                	addi	a4,a4,-1
80007416:	4639                	li	a2,14
80007418:	0189c6b3          	xor	a3,s3,s8
8000741c:	40a905b3          	sub	a1,s2,a0
80007420:	10e66563          	bltu	a2,a4,8000752a <__divdf3+0x1aa>
80007424:	00002617          	auipc	a2,0x2
80007428:	2b860613          	addi	a2,a2,696 # 800096dc <_ctype_+0x104>
8000742c:	070a                	slli	a4,a4,0x2
8000742e:	9732                	add	a4,a4,a2
80007430:	4318                	lw	a4,0(a4)
80007432:	9732                	add	a4,a4,a2
80007434:	8702                	jr	a4
/Local/xl_ci/toolchain/riscv-gnu-toolchain/riscv-gcc/libgcc/soft-fp/divdf3.c:44 (discriminator 2)
80007436:	00a4eab3          	or	s5,s1,a0
8000743a:	060a8263          	beqz	s5,8000749e <__divdf3+0x11e>
/Local/xl_ci/toolchain/riscv-gnu-toolchain/riscv-gcc/libgcc/soft-fp/divdf3.c:44 (discriminator 13)
8000743e:	c89d                	beqz	s1,80007474 <__divdf3+0xf4>
/Local/xl_ci/toolchain/riscv-gnu-toolchain/riscv-gcc/libgcc/soft-fp/divdf3.c:44 (discriminator 17)
80007440:	8526                	mv	a0,s1
80007442:	41c010ef          	jal	ra,8000885e <__clzsi2>
/Local/xl_ci/toolchain/riscv-gnu-toolchain/riscv-gcc/libgcc/soft-fp/divdf3.c:44 (discriminator 31)
80007446:	ff550793          	addi	a5,a0,-11
8000744a:	4771                	li	a4,28
8000744c:	02f74963          	blt	a4,a5,8000747e <__divdf3+0xfe>
/Local/xl_ci/toolchain/riscv-gnu-toolchain/riscv-gcc/libgcc/soft-fp/divdf3.c:44 (discriminator 32)
80007450:	4af5                	li	s5,29
80007452:	ff850413          	addi	s0,a0,-8
80007456:	40fa8ab3          	sub	s5,s5,a5
8000745a:	008494b3          	sll	s1,s1,s0
8000745e:	015a5ab3          	srl	s5,s4,s5
80007462:	009aeab3          	or	s5,s5,s1
80007466:	008a1433          	sll	s0,s4,s0
/Local/xl_ci/toolchain/riscv-gnu-toolchain/riscv-gcc/libgcc/soft-fp/divdf3.c:44 (discriminator 41)
8000746a:	c0d00593          	li	a1,-1011
8000746e:	40a58933          	sub	s2,a1,a0
80007472:	b78d                	j	800073d4 <__divdf3+0x54>
/Local/xl_ci/toolchain/riscv-gnu-toolchain/riscv-gcc/libgcc/soft-fp/divdf3.c:44 (discriminator 24)
80007474:	3ea010ef          	jal	ra,8000885e <__clzsi2>
80007478:	02050513          	addi	a0,a0,32
8000747c:	b7e9                	j	80007446 <__divdf3+0xc6>
/Local/xl_ci/toolchain/riscv-gnu-toolchain/riscv-gcc/libgcc/soft-fp/divdf3.c:44 (discriminator 33)
8000747e:	fd850493          	addi	s1,a0,-40
80007482:	009a1ab3          	sll	s5,s4,s1
80007486:	4401                	li	s0,0
80007488:	b7cd                	j	8000746a <__divdf3+0xea>
/Local/xl_ci/toolchain/riscv-gnu-toolchain/riscv-gcc/libgcc/soft-fp/divdf3.c:44 (discriminator 3)
8000748a:	00a4eab3          	or	s5,s1,a0
8000748e:	000a8c63          	beqz	s5,800074a6 <__divdf3+0x126>
80007492:	842a                	mv	s0,a0
/Local/xl_ci/toolchain/riscv-gnu-toolchain/riscv-gcc/libgcc/soft-fp/divdf3.c:44
80007494:	8aa6                	mv	s5,s1
80007496:	7ff00913          	li	s2,2047
8000749a:	4b8d                	li	s7,3
8000749c:	bf2d                	j	800073d6 <__divdf3+0x56>
8000749e:	4401                	li	s0,0
800074a0:	4901                	li	s2,0
800074a2:	4b85                	li	s7,1
800074a4:	bf0d                	j	800073d6 <__divdf3+0x56>
800074a6:	4401                	li	s0,0
800074a8:	7ff00913          	li	s2,2047
800074ac:	4b89                	li	s7,2
800074ae:	b725                	j	800073d6 <__divdf3+0x56>
/Local/xl_ci/toolchain/riscv-gnu-toolchain/riscv-gcc/libgcc/soft-fp/divdf3.c:45 (discriminator 2)
800074b0:	0164efb3          	or	t6,s1,s6
800074b4:	060f8263          	beqz	t6,80007518 <__divdf3+0x198>
/Local/xl_ci/toolchain/riscv-gnu-toolchain/riscv-gcc/libgcc/soft-fp/divdf3.c:45 (discriminator 13)
800074b8:	c89d                	beqz	s1,800074ee <__divdf3+0x16e>
/Local/xl_ci/toolchain/riscv-gnu-toolchain/riscv-gcc/libgcc/soft-fp/divdf3.c:45 (discriminator 17)
800074ba:	8526                	mv	a0,s1
800074bc:	3a2010ef          	jal	ra,8000885e <__clzsi2>
800074c0:	85aa                	mv	a1,a0
/Local/xl_ci/toolchain/riscv-gnu-toolchain/riscv-gcc/libgcc/soft-fp/divdf3.c:45 (discriminator 31)
800074c2:	ff558793          	addi	a5,a1,-11
800074c6:	4771                	li	a4,28
800074c8:	02f74963          	blt	a4,a5,800074fa <__divdf3+0x17a>
/Local/xl_ci/toolchain/riscv-gnu-toolchain/riscv-gcc/libgcc/soft-fp/divdf3.c:45 (discriminator 32)
800074cc:	46f5                	li	a3,29
800074ce:	ff858f93          	addi	t6,a1,-8
800074d2:	8e9d                	sub	a3,a3,a5
800074d4:	01f49533          	sll	a0,s1,t6
800074d8:	00db56b3          	srl	a3,s6,a3
800074dc:	00a6e4b3          	or	s1,a3,a0
800074e0:	01fb1fb3          	sll	t6,s6,t6
/Local/xl_ci/toolchain/riscv-gnu-toolchain/riscv-gcc/libgcc/soft-fp/divdf3.c:45 (discriminator 41)
800074e4:	c0d00693          	li	a3,-1011
800074e8:	40b68533          	sub	a0,a3,a1
800074ec:	b705                	j	8000740c <__divdf3+0x8c>
/Local/xl_ci/toolchain/riscv-gnu-toolchain/riscv-gcc/libgcc/soft-fp/divdf3.c:45 (discriminator 24)
800074ee:	855a                	mv	a0,s6
800074f0:	36e010ef          	jal	ra,8000885e <__clzsi2>
800074f4:	02050593          	addi	a1,a0,32
800074f8:	b7e9                	j	800074c2 <__divdf3+0x142>
/Local/xl_ci/toolchain/riscv-gnu-toolchain/riscv-gcc/libgcc/soft-fp/divdf3.c:45 (discriminator 33)
800074fa:	fd858513          	addi	a0,a1,-40
800074fe:	00ab14b3          	sll	s1,s6,a0
80007502:	4f81                	li	t6,0
80007504:	b7c5                	j	800074e4 <__divdf3+0x164>
/Local/xl_ci/toolchain/riscv-gnu-toolchain/riscv-gcc/libgcc/soft-fp/divdf3.c:45 (discriminator 3)
80007506:	0164efb3          	or	t6,s1,s6
8000750a:	000f8b63          	beqz	t6,80007520 <__divdf3+0x1a0>
/Local/xl_ci/toolchain/riscv-gnu-toolchain/riscv-gcc/libgcc/soft-fp/divdf3.c:45
8000750e:	8fda                	mv	t6,s6
80007510:	7ff00513          	li	a0,2047
80007514:	478d                	li	a5,3
80007516:	bde5                	j	8000740e <__divdf3+0x8e>
80007518:	4481                	li	s1,0
8000751a:	4501                	li	a0,0
8000751c:	4785                	li	a5,1
8000751e:	bdc5                	j	8000740e <__divdf3+0x8e>
80007520:	4481                	li	s1,0
80007522:	7ff00513          	li	a0,2047
80007526:	4789                	li	a5,2
80007528:	b5dd                	j	8000740e <__divdf3+0x8e>
/Local/xl_ci/toolchain/riscv-gnu-toolchain/riscv-gcc/libgcc/soft-fp/divdf3.c:46 (discriminator 2)
8000752a:	0154e663          	bltu	s1,s5,80007536 <__divdf3+0x1b6>
/Local/xl_ci/toolchain/riscv-gnu-toolchain/riscv-gcc/libgcc/soft-fp/divdf3.c:46 (discriminator 11)
8000752e:	2a9a9663          	bne	s5,s1,800077da <__divdf3+0x45a>
/Local/xl_ci/toolchain/riscv-gnu-toolchain/riscv-gcc/libgcc/soft-fp/divdf3.c:46 (discriminator 12)
80007532:	2bf46463          	bltu	s0,t6,800077da <__divdf3+0x45a>
/Local/xl_ci/toolchain/riscv-gnu-toolchain/riscv-gcc/libgcc/soft-fp/divdf3.c:46 (discriminator 14)
80007536:	01fa9613          	slli	a2,s5,0x1f
8000753a:	00145713          	srli	a4,s0,0x1
8000753e:	01f41793          	slli	a5,s0,0x1f
80007542:	001ada93          	srli	s5,s5,0x1
80007546:	00e66433          	or	s0,a2,a4
/Local/xl_ci/toolchain/riscv-gnu-toolchain/riscv-gcc/libgcc/soft-fp/divdf3.c:46 (discriminator 19)
8000754a:	00849513          	slli	a0,s1,0x8
8000754e:	018fd893          	srli	a7,t6,0x18
80007552:	00a8e8b3          	or	a7,a7,a0
80007556:	8141                	srli	a0,a0,0x10
80007558:	02aade33          	divu	t3,s5,a0
8000755c:	01089e93          	slli	t4,a7,0x10
80007560:	010ede93          	srli	t4,t4,0x10
80007564:	01045713          	srli	a4,s0,0x10
80007568:	008f9313          	slli	t1,t6,0x8
8000756c:	02aafab3          	remu	s5,s5,a0
80007570:	8672                	mv	a2,t3
80007572:	03ce8833          	mul	a6,t4,t3
80007576:	0ac2                	slli	s5,s5,0x10
80007578:	01576733          	or	a4,a4,s5
8000757c:	01077c63          	bgeu	a4,a6,80007594 <__divdf3+0x214>
/Local/xl_ci/toolchain/riscv-gnu-toolchain/riscv-gcc/libgcc/soft-fp/divdf3.c:46 (discriminator 22)
80007580:	9746                	add	a4,a4,a7
80007582:	fffe0613          	addi	a2,t3,-1 # ffff <__stack_size+0xf7ff>
80007586:	01176763          	bltu	a4,a7,80007594 <__divdf3+0x214>
/Local/xl_ci/toolchain/riscv-gnu-toolchain/riscv-gcc/libgcc/soft-fp/divdf3.c:46 (discriminator 24)
8000758a:	01077563          	bgeu	a4,a6,80007594 <__divdf3+0x214>
/Local/xl_ci/toolchain/riscv-gnu-toolchain/riscv-gcc/libgcc/soft-fp/divdf3.c:46 (discriminator 26)
8000758e:	ffee0613          	addi	a2,t3,-2
80007592:	9746                	add	a4,a4,a7
/Local/xl_ci/toolchain/riscv-gnu-toolchain/riscv-gcc/libgcc/soft-fp/divdf3.c:46 (discriminator 28)
80007594:	41070733          	sub	a4,a4,a6
80007598:	02a75e33          	divu	t3,a4,a0
8000759c:	0442                	slli	s0,s0,0x10
8000759e:	8041                	srli	s0,s0,0x10
800075a0:	02a77733          	remu	a4,a4,a0
800075a4:	82f2                	mv	t0,t3
800075a6:	03ce8833          	mul	a6,t4,t3
800075aa:	0742                	slli	a4,a4,0x10
800075ac:	8f41                	or	a4,a4,s0
800075ae:	01077c63          	bgeu	a4,a6,800075c6 <__divdf3+0x246>
/Local/xl_ci/toolchain/riscv-gnu-toolchain/riscv-gcc/libgcc/soft-fp/divdf3.c:46 (discriminator 29)
800075b2:	9746                	add	a4,a4,a7
800075b4:	fffe0293          	addi	t0,t3,-1
800075b8:	01176763          	bltu	a4,a7,800075c6 <__divdf3+0x246>
/Local/xl_ci/toolchain/riscv-gnu-toolchain/riscv-gcc/libgcc/soft-fp/divdf3.c:46 (discriminator 31)
800075bc:	01077563          	bgeu	a4,a6,800075c6 <__divdf3+0x246>
/Local/xl_ci/toolchain/riscv-gnu-toolchain/riscv-gcc/libgcc/soft-fp/divdf3.c:46 (discriminator 33)
800075c0:	ffee0293          	addi	t0,t3,-2
800075c4:	9746                	add	a4,a4,a7
/Local/xl_ci/toolchain/riscv-gnu-toolchain/riscv-gcc/libgcc/soft-fp/divdf3.c:46 (discriminator 35)
800075c6:	41070433          	sub	s0,a4,a6
800075ca:	0642                	slli	a2,a2,0x10
800075cc:	6841                	lui	a6,0x10
800075ce:	005662b3          	or	t0,a2,t0
800075d2:	fff80e13          	addi	t3,a6,-1 # ffff <__stack_size+0xf7ff>
800075d6:	0102d613          	srli	a2,t0,0x10
800075da:	01c2f733          	and	a4,t0,t3
800075de:	01035f13          	srli	t5,t1,0x10
800075e2:	01c37e33          	and	t3,t1,t3
800075e6:	02ee03b3          	mul	t2,t3,a4
800075ea:	03c604b3          	mul	s1,a2,t3
800075ee:	02ef0733          	mul	a4,t5,a4
800075f2:	03e60fb3          	mul	t6,a2,t5
800075f6:	00970633          	add	a2,a4,s1
800075fa:	0103d713          	srli	a4,t2,0x10
800075fe:	9732                	add	a4,a4,a2
80007600:	00977363          	bgeu	a4,s1,80007606 <__divdf3+0x286>
/Local/xl_ci/toolchain/riscv-gnu-toolchain/riscv-gcc/libgcc/soft-fp/divdf3.c:46 (discriminator 36)
80007604:	9fc2                	add	t6,t6,a6
/Local/xl_ci/toolchain/riscv-gnu-toolchain/riscv-gcc/libgcc/soft-fp/divdf3.c:46 (discriminator 38)
80007606:	01075613          	srli	a2,a4,0x10
8000760a:	967e                	add	a2,a2,t6
8000760c:	6fc1                	lui	t6,0x10
8000760e:	1ffd                	addi	t6,t6,-1
80007610:	01f77833          	and	a6,a4,t6
80007614:	0842                	slli	a6,a6,0x10
80007616:	01f3f3b3          	and	t2,t2,t6
8000761a:	981e                	add	a6,a6,t2
8000761c:	00c46763          	bltu	s0,a2,8000762a <__divdf3+0x2aa>
/Local/xl_ci/toolchain/riscv-gnu-toolchain/riscv-gcc/libgcc/soft-fp/divdf3.c:46 (discriminator 40)
80007620:	8496                	mv	s1,t0
80007622:	02c41e63          	bne	s0,a2,8000765e <__divdf3+0x2de>
/Local/xl_ci/toolchain/riscv-gnu-toolchain/riscv-gcc/libgcc/soft-fp/divdf3.c:46 (discriminator 41)
80007626:	0307fc63          	bgeu	a5,a6,8000765e <__divdf3+0x2de>
/Local/xl_ci/toolchain/riscv-gnu-toolchain/riscv-gcc/libgcc/soft-fp/divdf3.c:46 (discriminator 43)
8000762a:	979a                	add	a5,a5,t1
8000762c:	0067b733          	sltu	a4,a5,t1
80007630:	9746                	add	a4,a4,a7
80007632:	943a                	add	s0,s0,a4
80007634:	fff28493          	addi	s1,t0,-1
80007638:	0088e663          	bltu	a7,s0,80007644 <__divdf3+0x2c4>
/Local/xl_ci/toolchain/riscv-gnu-toolchain/riscv-gcc/libgcc/soft-fp/divdf3.c:46 (discriminator 46)
8000763c:	02889163          	bne	a7,s0,8000765e <__divdf3+0x2de>
/Local/xl_ci/toolchain/riscv-gnu-toolchain/riscv-gcc/libgcc/soft-fp/divdf3.c:46 (discriminator 47)
80007640:	0067ef63          	bltu	a5,t1,8000765e <__divdf3+0x2de>
/Local/xl_ci/toolchain/riscv-gnu-toolchain/riscv-gcc/libgcc/soft-fp/divdf3.c:46 (discriminator 49)
80007644:	00c46663          	bltu	s0,a2,80007650 <__divdf3+0x2d0>
/Local/xl_ci/toolchain/riscv-gnu-toolchain/riscv-gcc/libgcc/soft-fp/divdf3.c:46 (discriminator 52)
80007648:	00861b63          	bne	a2,s0,8000765e <__divdf3+0x2de>
/Local/xl_ci/toolchain/riscv-gnu-toolchain/riscv-gcc/libgcc/soft-fp/divdf3.c:46 (discriminator 53)
8000764c:	0107f963          	bgeu	a5,a6,8000765e <__divdf3+0x2de>
/Local/xl_ci/toolchain/riscv-gnu-toolchain/riscv-gcc/libgcc/soft-fp/divdf3.c:46 (discriminator 55)
80007650:	979a                	add	a5,a5,t1
80007652:	0067b733          	sltu	a4,a5,t1
80007656:	9746                	add	a4,a4,a7
80007658:	ffe28493          	addi	s1,t0,-2
8000765c:	943a                	add	s0,s0,a4
/Local/xl_ci/toolchain/riscv-gnu-toolchain/riscv-gcc/libgcc/soft-fp/divdf3.c:46 (discriminator 57)
8000765e:	41078833          	sub	a6,a5,a6
80007662:	8c11                	sub	s0,s0,a2
80007664:	0107b7b3          	sltu	a5,a5,a6
80007668:	8c1d                	sub	s0,s0,a5
8000766a:	5ffd                	li	t6,-1
8000766c:	0e888763          	beq	a7,s0,8000775a <__divdf3+0x3da>
/Local/xl_ci/toolchain/riscv-gnu-toolchain/riscv-gcc/libgcc/soft-fp/divdf3.c:46 (discriminator 59)
80007670:	02a45fb3          	divu	t6,s0,a0
80007674:	01085713          	srli	a4,a6,0x10
80007678:	02a47433          	remu	s0,s0,a0
8000767c:	867e                	mv	a2,t6
8000767e:	03fe87b3          	mul	a5,t4,t6
80007682:	0442                	slli	s0,s0,0x10
80007684:	8c59                	or	s0,s0,a4
80007686:	00f47c63          	bgeu	s0,a5,8000769e <__divdf3+0x31e>
/Local/xl_ci/toolchain/riscv-gnu-toolchain/riscv-gcc/libgcc/soft-fp/divdf3.c:46 (discriminator 61)
8000768a:	9446                	add	s0,s0,a7
8000768c:	ffff8613          	addi	a2,t6,-1 # ffff <__stack_size+0xf7ff>
80007690:	01146763          	bltu	s0,a7,8000769e <__divdf3+0x31e>
/Local/xl_ci/toolchain/riscv-gnu-toolchain/riscv-gcc/libgcc/soft-fp/divdf3.c:46 (discriminator 63)
80007694:	00f47563          	bgeu	s0,a5,8000769e <__divdf3+0x31e>
/Local/xl_ci/toolchain/riscv-gnu-toolchain/riscv-gcc/libgcc/soft-fp/divdf3.c:46 (discriminator 65)
80007698:	ffef8613          	addi	a2,t6,-2
8000769c:	9446                	add	s0,s0,a7
/Local/xl_ci/toolchain/riscv-gnu-toolchain/riscv-gcc/libgcc/soft-fp/divdf3.c:46 (discriminator 67)
8000769e:	8c1d                	sub	s0,s0,a5
800076a0:	02a45733          	divu	a4,s0,a0
800076a4:	0842                	slli	a6,a6,0x10
800076a6:	01085813          	srli	a6,a6,0x10
800076aa:	02a47433          	remu	s0,s0,a0
800076ae:	87ba                	mv	a5,a4
800076b0:	02ee8eb3          	mul	t4,t4,a4
800076b4:	0442                	slli	s0,s0,0x10
800076b6:	00886433          	or	s0,a6,s0
800076ba:	01d47c63          	bgeu	s0,t4,800076d2 <__divdf3+0x352>
/Local/xl_ci/toolchain/riscv-gnu-toolchain/riscv-gcc/libgcc/soft-fp/divdf3.c:46 (discriminator 68)
800076be:	9446                	add	s0,s0,a7
800076c0:	fff70793          	addi	a5,a4,-1 # ff7fffff <_sp+0x6f7effff>
800076c4:	01146763          	bltu	s0,a7,800076d2 <__divdf3+0x352>
/Local/xl_ci/toolchain/riscv-gnu-toolchain/riscv-gcc/libgcc/soft-fp/divdf3.c:46 (discriminator 70)
800076c8:	01d47563          	bgeu	s0,t4,800076d2 <__divdf3+0x352>
/Local/xl_ci/toolchain/riscv-gnu-toolchain/riscv-gcc/libgcc/soft-fp/divdf3.c:46 (discriminator 72)
800076cc:	ffe70793          	addi	a5,a4,-2
800076d0:	9446                	add	s0,s0,a7
/Local/xl_ci/toolchain/riscv-gnu-toolchain/riscv-gcc/libgcc/soft-fp/divdf3.c:46 (discriminator 74)
800076d2:	0642                	slli	a2,a2,0x10
800076d4:	8e5d                	or	a2,a2,a5
800076d6:	01061793          	slli	a5,a2,0x10
800076da:	83c1                	srli	a5,a5,0x10
800076dc:	01065713          	srli	a4,a2,0x10
800076e0:	02ef0833          	mul	a6,t5,a4
800076e4:	41d40433          	sub	s0,s0,t4
800076e8:	02ff0f33          	mul	t5,t5,a5
800076ec:	03c78eb3          	mul	t4,a5,t3
800076f0:	03c70e33          	mul	t3,a4,t3
800076f4:	010ed793          	srli	a5,t4,0x10
800076f8:	9f72                	add	t5,t5,t3
800076fa:	97fa                	add	a5,a5,t5
800076fc:	01c7f463          	bgeu	a5,t3,80007704 <__divdf3+0x384>
/Local/xl_ci/toolchain/riscv-gnu-toolchain/riscv-gcc/libgcc/soft-fp/divdf3.c:46 (discriminator 75)
80007700:	6741                	lui	a4,0x10
80007702:	983a                	add	a6,a6,a4
/Local/xl_ci/toolchain/riscv-gnu-toolchain/riscv-gcc/libgcc/soft-fp/divdf3.c:46 (discriminator 77)
80007704:	0107d713          	srli	a4,a5,0x10
80007708:	9742                	add	a4,a4,a6
8000770a:	6841                	lui	a6,0x10
8000770c:	187d                	addi	a6,a6,-1
8000770e:	0107f533          	and	a0,a5,a6
80007712:	0542                	slli	a0,a0,0x10
80007714:	010efeb3          	and	t4,t4,a6
80007718:	9576                	add	a0,a0,t4
8000771a:	00e46663          	bltu	s0,a4,80007726 <__divdf3+0x3a6>
/Local/xl_ci/toolchain/riscv-gnu-toolchain/riscv-gcc/libgcc/soft-fp/divdf3.c:46 (discriminator 79)
8000771e:	18e41f63          	bne	s0,a4,800078bc <__divdf3+0x53c>
/Local/xl_ci/toolchain/riscv-gnu-toolchain/riscv-gcc/libgcc/soft-fp/divdf3.c:46 (discriminator 80)
80007722:	8fb2                	mv	t6,a2
80007724:	c91d                	beqz	a0,8000775a <__divdf3+0x3da>
/Local/xl_ci/toolchain/riscv-gnu-toolchain/riscv-gcc/libgcc/soft-fp/divdf3.c:46 (discriminator 82)
80007726:	9446                	add	s0,s0,a7
80007728:	fff60f93          	addi	t6,a2,-1
8000772c:	03146163          	bltu	s0,a7,8000774e <__divdf3+0x3ce>
/Local/xl_ci/toolchain/riscv-gnu-toolchain/riscv-gcc/libgcc/soft-fp/divdf3.c:46 (discriminator 88)
80007730:	00e46663          	bltu	s0,a4,8000773c <__divdf3+0x3bc>
/Local/xl_ci/toolchain/riscv-gnu-toolchain/riscv-gcc/libgcc/soft-fp/divdf3.c:46 (discriminator 91)
80007734:	18e41363          	bne	s0,a4,800078ba <__divdf3+0x53a>
/Local/xl_ci/toolchain/riscv-gnu-toolchain/riscv-gcc/libgcc/soft-fp/divdf3.c:46 (discriminator 92)
80007738:	00a37d63          	bgeu	t1,a0,80007752 <__divdf3+0x3d2>
/Local/xl_ci/toolchain/riscv-gnu-toolchain/riscv-gcc/libgcc/soft-fp/divdf3.c:46 (discriminator 94)
8000773c:	00131793          	slli	a5,t1,0x1
80007740:	0067b333          	sltu	t1,a5,t1
80007744:	989a                	add	a7,a7,t1
80007746:	ffe60f93          	addi	t6,a2,-2
8000774a:	9446                	add	s0,s0,a7
8000774c:	833e                	mv	t1,a5
/Local/xl_ci/toolchain/riscv-gnu-toolchain/riscv-gcc/libgcc/soft-fp/divdf3.c:46 (discriminator 96)
8000774e:	00e41463          	bne	s0,a4,80007756 <__divdf3+0x3d6>
/Local/xl_ci/toolchain/riscv-gnu-toolchain/riscv-gcc/libgcc/soft-fp/divdf3.c:46 (discriminator 98)
80007752:	00650463          	beq	a0,t1,8000775a <__divdf3+0x3da>
/Local/xl_ci/toolchain/riscv-gnu-toolchain/riscv-gcc/libgcc/soft-fp/divdf3.c:46 (discriminator 99)
80007756:	001fef93          	ori	t6,t6,1
/Local/xl_ci/toolchain/riscv-gnu-toolchain/riscv-gcc/libgcc/soft-fp/divdf3.c:47 (discriminator 2)
8000775a:	3ff58793          	addi	a5,a1,1023
8000775e:	0af05b63          	blez	a5,80007814 <__divdf3+0x494>
/Local/xl_ci/toolchain/riscv-gnu-toolchain/riscv-gcc/libgcc/soft-fp/divdf3.c:47 (discriminator 6)
80007762:	007ff713          	andi	a4,t6,7
80007766:	cf01                	beqz	a4,8000777e <__divdf3+0x3fe>
/Local/xl_ci/toolchain/riscv-gnu-toolchain/riscv-gcc/libgcc/soft-fp/divdf3.c:47 (discriminator 8)
80007768:	00fff713          	andi	a4,t6,15
8000776c:	4611                	li	a2,4
8000776e:	00c70863          	beq	a4,a2,8000777e <__divdf3+0x3fe>
/Local/xl_ci/toolchain/riscv-gnu-toolchain/riscv-gcc/libgcc/soft-fp/divdf3.c:47 (discriminator 10)
80007772:	004f8613          	addi	a2,t6,4
80007776:	01f63fb3          	sltu	t6,a2,t6
8000777a:	94fe                	add	s1,s1,t6
8000777c:	8fb2                	mv	t6,a2
/Local/xl_ci/toolchain/riscv-gnu-toolchain/riscv-gcc/libgcc/soft-fp/divdf3.c:47 (discriminator 9)
8000777e:	01000737          	lui	a4,0x1000
80007782:	8f65                	and	a4,a4,s1
80007784:	c719                	beqz	a4,80007792 <__divdf3+0x412>
/Local/xl_ci/toolchain/riscv-gnu-toolchain/riscv-gcc/libgcc/soft-fp/divdf3.c:47 (discriminator 24)
80007786:	ff0007b7          	lui	a5,0xff000
8000778a:	17fd                	addi	a5,a5,-1
8000778c:	8cfd                	and	s1,s1,a5
8000778e:	40058793          	addi	a5,a1,1024
/Local/xl_ci/toolchain/riscv-gnu-toolchain/riscv-gcc/libgcc/soft-fp/divdf3.c:47 (discriminator 26)
80007792:	7fe00713          	li	a4,2046
80007796:	06f74263          	blt	a4,a5,800077fa <__divdf3+0x47a>
/Local/xl_ci/toolchain/riscv-gnu-toolchain/riscv-gcc/libgcc/soft-fp/divdf3.c:47
8000779a:	003fdf93          	srli	t6,t6,0x3
8000779e:	01d49713          	slli	a4,s1,0x1d
800077a2:	01f76733          	or	a4,a4,t6
800077a6:	0034d513          	srli	a0,s1,0x3
/Local/xl_ci/toolchain/riscv-gnu-toolchain/riscv-gcc/libgcc/soft-fp/divdf3.c:47 (discriminator 119)
800077aa:	07d2                	slli	a5,a5,0x14
800077ac:	7ff00637          	lui	a2,0x7ff00
800077b0:	0532                	slli	a0,a0,0xc
/Local/xl_ci/toolchain/riscv-gnu-toolchain/riscv-gcc/libgcc/soft-fp/divdf3.c:51 (discriminator 119)
800077b2:	50b2                	lw	ra,44(sp)
800077b4:	5422                	lw	s0,40(sp)
/Local/xl_ci/toolchain/riscv-gnu-toolchain/riscv-gcc/libgcc/soft-fp/divdf3.c:47 (discriminator 119)
800077b6:	8ff1                	and	a5,a5,a2
800077b8:	8131                	srli	a0,a0,0xc
800077ba:	8d5d                	or	a0,a0,a5
800077bc:	06fe                	slli	a3,a3,0x1f
800077be:	00d567b3          	or	a5,a0,a3
/Local/xl_ci/toolchain/riscv-gnu-toolchain/riscv-gcc/libgcc/soft-fp/divdf3.c:51 (discriminator 119)
800077c2:	5492                	lw	s1,36(sp)
800077c4:	5902                	lw	s2,32(sp)
800077c6:	49f2                	lw	s3,28(sp)
800077c8:	4a62                	lw	s4,24(sp)
800077ca:	4ad2                	lw	s5,20(sp)
800077cc:	4b42                	lw	s6,16(sp)
800077ce:	4bb2                	lw	s7,12(sp)
800077d0:	4c22                	lw	s8,8(sp)
800077d2:	853a                	mv	a0,a4
800077d4:	85be                	mv	a1,a5
800077d6:	6145                	addi	sp,sp,48
800077d8:	8082                	ret
/Local/xl_ci/toolchain/riscv-gnu-toolchain/riscv-gcc/libgcc/soft-fp/divdf3.c:46 (discriminator 15)
800077da:	15fd                	addi	a1,a1,-1
800077dc:	4781                	li	a5,0
800077de:	b3b5                	j	8000754a <__divdf3+0x1ca>
/Local/xl_ci/toolchain/riscv-gnu-toolchain/riscv-gcc/libgcc/soft-fp/divdf3.c:44 (discriminator 8)
800077e0:	86ce                	mv	a3,s3
/Local/xl_ci/toolchain/riscv-gnu-toolchain/riscv-gcc/libgcc/soft-fp/divdf3.c:46 (discriminator 8)
800077e2:	84d6                	mv	s1,s5
800077e4:	8fa2                	mv	t6,s0
800077e6:	87de                	mv	a5,s7
/Local/xl_ci/toolchain/riscv-gnu-toolchain/riscv-gcc/libgcc/soft-fp/divdf3.c:47 (discriminator 108)
800077e8:	470d                	li	a4,3
800077ea:	0ae78a63          	beq	a5,a4,8000789e <__divdf3+0x51e>
/Local/xl_ci/toolchain/riscv-gnu-toolchain/riscv-gcc/libgcc/soft-fp/divdf3.c:47
800077ee:	4705                	li	a4,1
800077f0:	0ae78e63          	beq	a5,a4,800078ac <__divdf3+0x52c>
800077f4:	4709                	li	a4,2
800077f6:	f6e792e3          	bne	a5,a4,8000775a <__divdf3+0x3da>
800077fa:	4501                	li	a0,0
800077fc:	4701                	li	a4,0
800077fe:	7ff00793          	li	a5,2047
80007802:	b765                	j	800077aa <__divdf3+0x42a>
/Local/xl_ci/toolchain/riscv-gnu-toolchain/riscv-gcc/libgcc/soft-fp/divdf3.c:45 (discriminator 5)
80007804:	86e2                	mv	a3,s8
/Local/xl_ci/toolchain/riscv-gnu-toolchain/riscv-gcc/libgcc/soft-fp/divdf3.c:46 (discriminator 5)
80007806:	b7cd                	j	800077e8 <__divdf3+0x468>
/Local/xl_ci/toolchain/riscv-gnu-toolchain/riscv-gcc/libgcc/soft-fp/divdf3.c:46
80007808:	000804b7          	lui	s1,0x80
8000780c:	4f81                	li	t6,0
8000780e:	4681                	li	a3,0
80007810:	478d                	li	a5,3
80007812:	bfd9                	j	800077e8 <__divdf3+0x468>
/Local/xl_ci/toolchain/riscv-gnu-toolchain/riscv-gcc/libgcc/soft-fp/divdf3.c:47 (discriminator 59)
80007814:	4505                	li	a0,1
80007816:	8d1d                	sub	a0,a0,a5
80007818:	03800713          	li	a4,56
8000781c:	08a74863          	blt	a4,a0,800078ac <__divdf3+0x52c>
/Local/xl_ci/toolchain/riscv-gnu-toolchain/riscv-gcc/libgcc/soft-fp/divdf3.c:47 (discriminator 60)
80007820:	477d                	li	a4,31
80007822:	04a74963          	blt	a4,a0,80007874 <__divdf3+0x4f4>
/Local/xl_ci/toolchain/riscv-gnu-toolchain/riscv-gcc/libgcc/soft-fp/divdf3.c:47 (discriminator 62)
80007826:	41e58593          	addi	a1,a1,1054
8000782a:	00b497b3          	sll	a5,s1,a1
8000782e:	00afd733          	srl	a4,t6,a0
80007832:	00bf95b3          	sll	a1,t6,a1
80007836:	8fd9                	or	a5,a5,a4
80007838:	00b035b3          	snez	a1,a1
8000783c:	8fcd                	or	a5,a5,a1
8000783e:	00a4d533          	srl	a0,s1,a0
/Local/xl_ci/toolchain/riscv-gnu-toolchain/riscv-gcc/libgcc/soft-fp/divdf3.c:47 (discriminator 75)
80007842:	0077f713          	andi	a4,a5,7
80007846:	cf01                	beqz	a4,8000785e <__divdf3+0x4de>
/Local/xl_ci/toolchain/riscv-gnu-toolchain/riscv-gcc/libgcc/soft-fp/divdf3.c:47 (discriminator 76)
80007848:	00f7f713          	andi	a4,a5,15
8000784c:	4611                	li	a2,4
8000784e:	00c70863          	beq	a4,a2,8000785e <__divdf3+0x4de>
/Local/xl_ci/toolchain/riscv-gnu-toolchain/riscv-gcc/libgcc/soft-fp/divdf3.c:47 (discriminator 78)
80007852:	00478713          	addi	a4,a5,4 # ff000004 <_sp+0x6eff0004>
80007856:	00f737b3          	sltu	a5,a4,a5
8000785a:	953e                	add	a0,a0,a5
8000785c:	87ba                	mv	a5,a4
/Local/xl_ci/toolchain/riscv-gnu-toolchain/riscv-gcc/libgcc/soft-fp/divdf3.c:47 (discriminator 77)
8000785e:	00800737          	lui	a4,0x800
80007862:	8f69                	and	a4,a4,a0
80007864:	e739                	bnez	a4,800078b2 <__divdf3+0x532>
/Local/xl_ci/toolchain/riscv-gnu-toolchain/riscv-gcc/libgcc/soft-fp/divdf3.c:47 (discriminator 93)
80007866:	01d51713          	slli	a4,a0,0x1d
8000786a:	838d                	srli	a5,a5,0x3
8000786c:	8f5d                	or	a4,a4,a5
8000786e:	810d                	srli	a0,a0,0x3
/Local/xl_ci/toolchain/riscv-gnu-toolchain/riscv-gcc/libgcc/soft-fp/divdf3.c:47
80007870:	4781                	li	a5,0
80007872:	bf25                	j	800077aa <__divdf3+0x42a>
/Local/xl_ci/toolchain/riscv-gnu-toolchain/riscv-gcc/libgcc/soft-fp/divdf3.c:47 (discriminator 63)
80007874:	5705                	li	a4,-31
80007876:	40f707b3          	sub	a5,a4,a5
8000787a:	02000613          	li	a2,32
8000787e:	00f4d7b3          	srl	a5,s1,a5
80007882:	4701                	li	a4,0
80007884:	00c50663          	beq	a0,a2,80007890 <__divdf3+0x510>
/Local/xl_ci/toolchain/riscv-gnu-toolchain/riscv-gcc/libgcc/soft-fp/divdf3.c:47 (discriminator 71)
80007888:	43e58713          	addi	a4,a1,1086
8000788c:	00e49733          	sll	a4,s1,a4
/Local/xl_ci/toolchain/riscv-gnu-toolchain/riscv-gcc/libgcc/soft-fp/divdf3.c:47 (discriminator 74)
80007890:	01f76733          	or	a4,a4,t6
80007894:	00e03733          	snez	a4,a4
80007898:	8fd9                	or	a5,a5,a4
8000789a:	4501                	li	a0,0
8000789c:	b75d                	j	80007842 <__divdf3+0x4c2>
/Local/xl_ci/toolchain/riscv-gnu-toolchain/riscv-gcc/libgcc/soft-fp/divdf3.c:47
8000789e:	00080537          	lui	a0,0x80
800078a2:	4701                	li	a4,0
800078a4:	7ff00793          	li	a5,2047
800078a8:	4681                	li	a3,0
800078aa:	b701                	j	800077aa <__divdf3+0x42a>
800078ac:	4501                	li	a0,0
800078ae:	4701                	li	a4,0
800078b0:	b7c1                	j	80007870 <__divdf3+0x4f0>
800078b2:	4501                	li	a0,0
800078b4:	4701                	li	a4,0
800078b6:	4785                	li	a5,1
800078b8:	bdcd                	j	800077aa <__divdf3+0x42a>
/Local/xl_ci/toolchain/riscv-gnu-toolchain/riscv-gcc/libgcc/soft-fp/divdf3.c:46
800078ba:	867e                	mv	a2,t6
800078bc:	8fb2                	mv	t6,a2
800078be:	bd61                	j	80007756 <__divdf3+0x3d6>

800078c0 <__eqdf2>:
__eqdf2():
/Local/xl_ci/toolchain/riscv-gnu-toolchain/riscv-gcc/libgcc/soft-fp/eqdf2.c:43
800078c0:	0145d713          	srli	a4,a1,0x14
800078c4:	001007b7          	lui	a5,0x100
800078c8:	17fd                	addi	a5,a5,-1
/Local/xl_ci/toolchain/riscv-gnu-toolchain/riscv-gcc/libgcc/soft-fp/eqdf2.c:44
800078ca:	0146d813          	srli	a6,a3,0x14
/Local/xl_ci/toolchain/riscv-gnu-toolchain/riscv-gcc/libgcc/soft-fp/eqdf2.c:36
800078ce:	832a                	mv	t1,a0
800078d0:	8eaa                	mv	t4,a0
/Local/xl_ci/toolchain/riscv-gnu-toolchain/riscv-gcc/libgcc/soft-fp/eqdf2.c:43
800078d2:	7ff77713          	andi	a4,a4,2047
/Local/xl_ci/toolchain/riscv-gnu-toolchain/riscv-gcc/libgcc/soft-fp/eqdf2.c:45
800078d6:	7ff00513          	li	a0,2047
/Local/xl_ci/toolchain/riscv-gnu-toolchain/riscv-gcc/libgcc/soft-fp/eqdf2.c:43
800078da:	00b7f8b3          	and	a7,a5,a1
800078de:	8f32                	mv	t5,a2
/Local/xl_ci/toolchain/riscv-gnu-toolchain/riscv-gcc/libgcc/soft-fp/eqdf2.c:44
800078e0:	8ff5                	and	a5,a5,a3
/Local/xl_ci/toolchain/riscv-gnu-toolchain/riscv-gcc/libgcc/soft-fp/eqdf2.c:43
800078e2:	81fd                	srli	a1,a1,0x1f
/Local/xl_ci/toolchain/riscv-gnu-toolchain/riscv-gcc/libgcc/soft-fp/eqdf2.c:44
800078e4:	7ff87813          	andi	a6,a6,2047
800078e8:	82fd                	srli	a3,a3,0x1f
/Local/xl_ci/toolchain/riscv-gnu-toolchain/riscv-gcc/libgcc/soft-fp/eqdf2.c:45
800078ea:	00a71a63          	bne	a4,a0,800078fe <__eqdf2+0x3e>
/Local/xl_ci/toolchain/riscv-gnu-toolchain/riscv-gcc/libgcc/soft-fp/eqdf2.c:45 (discriminator 20)
800078ee:	0068ee33          	or	t3,a7,t1
800078f2:	4505                	li	a0,1
800078f4:	000e1463          	bnez	t3,800078fc <__eqdf2+0x3c>
/Local/xl_ci/toolchain/riscv-gnu-toolchain/riscv-gcc/libgcc/soft-fp/eqdf2.c:45
800078f8:	00e80563          	beq	a6,a4,80007902 <__eqdf2+0x42>
/Local/xl_ci/toolchain/riscv-gnu-toolchain/riscv-gcc/libgcc/soft-fp/eqdf2.c:49
800078fc:	8082                	ret
/Local/xl_ci/toolchain/riscv-gnu-toolchain/riscv-gcc/libgcc/soft-fp/eqdf2.c:45 (discriminator 23)
800078fe:	00a81563          	bne	a6,a0,80007908 <__eqdf2+0x48>
/Local/xl_ci/toolchain/riscv-gnu-toolchain/riscv-gcc/libgcc/soft-fp/eqdf2.c:45 (discriminator 24)
80007902:	8e5d                	or	a2,a2,a5
80007904:	4505                	li	a0,1
80007906:	fa7d                	bnez	a2,800078fc <__eqdf2+0x3c>
/Local/xl_ci/toolchain/riscv-gnu-toolchain/riscv-gcc/libgcc/soft-fp/eqdf2.c:45 (discriminator 78)
80007908:	4505                	li	a0,1
8000790a:	ff0719e3          	bne	a4,a6,800078fc <__eqdf2+0x3c>
/Local/xl_ci/toolchain/riscv-gnu-toolchain/riscv-gcc/libgcc/soft-fp/eqdf2.c:45 (discriminator 80)
8000790e:	fef897e3          	bne	a7,a5,800078fc <__eqdf2+0x3c>
/Local/xl_ci/toolchain/riscv-gnu-toolchain/riscv-gcc/libgcc/soft-fp/eqdf2.c:45 (discriminator 82)
80007912:	ffee95e3          	bne	t4,t5,800078fc <__eqdf2+0x3c>
/Local/xl_ci/toolchain/riscv-gnu-toolchain/riscv-gcc/libgcc/soft-fp/eqdf2.c:45 (discriminator 84)
80007916:	00d58863          	beq	a1,a3,80007926 <__eqdf2+0x66>
/Local/xl_ci/toolchain/riscv-gnu-toolchain/riscv-gcc/libgcc/soft-fp/eqdf2.c:45 (discriminator 85)
8000791a:	f36d                	bnez	a4,800078fc <__eqdf2+0x3c>
/Local/xl_ci/toolchain/riscv-gnu-toolchain/riscv-gcc/libgcc/soft-fp/eqdf2.c:45 (discriminator 88)
8000791c:	0068e533          	or	a0,a7,t1
80007920:	00a03533          	snez	a0,a0
80007924:	8082                	ret
/Local/xl_ci/toolchain/riscv-gnu-toolchain/riscv-gcc/libgcc/soft-fp/eqdf2.c:45
80007926:	4501                	li	a0,0
80007928:	8082                	ret

8000792a <__gedf2>:
__gedf2():
/Local/xl_ci/toolchain/riscv-gnu-toolchain/riscv-gcc/libgcc/soft-fp/gedf2.c:43
8000792a:	00100737          	lui	a4,0x100
8000792e:	177d                	addi	a4,a4,-1
80007930:	0145d813          	srli	a6,a1,0x14
80007934:	00b778b3          	and	a7,a4,a1
/Local/xl_ci/toolchain/riscv-gnu-toolchain/riscv-gcc/libgcc/soft-fp/gedf2.c:36
80007938:	87aa                	mv	a5,a0
8000793a:	832a                	mv	t1,a0
/Local/xl_ci/toolchain/riscv-gnu-toolchain/riscv-gcc/libgcc/soft-fp/gedf2.c:43
8000793c:	7ff87813          	andi	a6,a6,2047
80007940:	01f5d513          	srli	a0,a1,0x1f
/Local/xl_ci/toolchain/riscv-gnu-toolchain/riscv-gcc/libgcc/soft-fp/gedf2.c:45
80007944:	7ff00e93          	li	t4,2047
/Local/xl_ci/toolchain/riscv-gnu-toolchain/riscv-gcc/libgcc/soft-fp/gedf2.c:44
80007948:	0146d593          	srli	a1,a3,0x14
8000794c:	8f75                	and	a4,a4,a3
8000794e:	8e32                	mv	t3,a2
80007950:	7ff5f593          	andi	a1,a1,2047
80007954:	82fd                	srli	a3,a3,0x1f
/Local/xl_ci/toolchain/riscv-gnu-toolchain/riscv-gcc/libgcc/soft-fp/gedf2.c:45
80007956:	01d81863          	bne	a6,t4,80007966 <__gedf2+0x3c>
/Local/xl_ci/toolchain/riscv-gnu-toolchain/riscv-gcc/libgcc/soft-fp/gedf2.c:45 (discriminator 20)
8000795a:	00f8eeb3          	or	t4,a7,a5
8000795e:	060e8463          	beqz	t4,800079c6 <__gedf2+0x9c>
/Local/xl_ci/toolchain/riscv-gnu-toolchain/riscv-gcc/libgcc/soft-fp/gedf2.c:45
80007962:	5579                	li	a0,-2
80007964:	8082                	ret
/Local/xl_ci/toolchain/riscv-gnu-toolchain/riscv-gcc/libgcc/soft-fp/gedf2.c:45 (discriminator 23)
80007966:	01d59663          	bne	a1,t4,80007972 <__gedf2+0x48>
/Local/xl_ci/toolchain/riscv-gnu-toolchain/riscv-gcc/libgcc/soft-fp/gedf2.c:45 (discriminator 24)
8000796a:	00c76eb3          	or	t4,a4,a2
8000796e:	fe0e9ae3          	bnez	t4,80007962 <__gedf2+0x38>
/Local/xl_ci/toolchain/riscv-gnu-toolchain/riscv-gcc/libgcc/soft-fp/gedf2.c:45 (discriminator 62)
80007972:	04081c63          	bnez	a6,800079ca <__gedf2+0xa0>
/Local/xl_ci/toolchain/riscv-gnu-toolchain/riscv-gcc/libgcc/soft-fp/gedf2.c:45 (discriminator 63)
80007976:	00f8e7b3          	or	a5,a7,a5
8000797a:	0017b793          	seqz	a5,a5
8000797e:	e199                	bnez	a1,80007984 <__gedf2+0x5a>
/Local/xl_ci/toolchain/riscv-gnu-toolchain/riscv-gcc/libgcc/soft-fp/gedf2.c:45 (discriminator 69)
80007980:	8e59                	or	a2,a2,a4
80007982:	ce0d                	beqz	a2,800079bc <__gedf2+0x92>
/Local/xl_ci/toolchain/riscv-gnu-toolchain/riscv-gcc/libgcc/soft-fp/gedf2.c:45
80007984:	eb81                	bnez	a5,80007994 <__gedf2+0x6a>
80007986:	00d51463          	bne	a0,a3,8000798e <__gedf2+0x64>
/Local/xl_ci/toolchain/riscv-gnu-toolchain/riscv-gcc/libgcc/soft-fp/gedf2.c:45 (discriminator 95)
8000798a:	0105d963          	bge	a1,a6,8000799c <__gedf2+0x72>
/Local/xl_ci/toolchain/riscv-gnu-toolchain/riscv-gcc/libgcc/soft-fp/gedf2.c:45 (discriminator 119)
8000798e:	c50d                	beqz	a0,800079b8 <__gedf2+0x8e>
/Local/xl_ci/toolchain/riscv-gnu-toolchain/riscv-gcc/libgcc/soft-fp/gedf2.c:45
80007990:	557d                	li	a0,-1
80007992:	8082                	ret
/Local/xl_ci/toolchain/riscv-gnu-toolchain/riscv-gcc/libgcc/soft-fp/gedf2.c:45 (discriminator 80)
80007994:	557d                	li	a0,-1
80007996:	c691                	beqz	a3,800079a2 <__gedf2+0x78>
/Local/xl_ci/toolchain/riscv-gnu-toolchain/riscv-gcc/libgcc/soft-fp/gedf2.c:45
80007998:	8536                	mv	a0,a3
8000799a:	8082                	ret
/Local/xl_ci/toolchain/riscv-gnu-toolchain/riscv-gcc/libgcc/soft-fp/gedf2.c:45 (discriminator 102)
8000799c:	00b85463          	bge	a6,a1,800079a4 <__gedf2+0x7a>
/Local/xl_ci/toolchain/riscv-gnu-toolchain/riscv-gcc/libgcc/soft-fp/gedf2.c:45 (discriminator 130)
800079a0:	d965                	beqz	a0,80007990 <__gedf2+0x66>
/Local/xl_ci/toolchain/riscv-gnu-toolchain/riscv-gcc/libgcc/soft-fp/gedf2.c:49
800079a2:	8082                	ret
/Local/xl_ci/toolchain/riscv-gnu-toolchain/riscv-gcc/libgcc/soft-fp/gedf2.c:45 (discriminator 109)
800079a4:	ff1765e3          	bltu	a4,a7,8000798e <__gedf2+0x64>
/Local/xl_ci/toolchain/riscv-gnu-toolchain/riscv-gcc/libgcc/soft-fp/gedf2.c:45 (discriminator 116)
800079a8:	00e89c63          	bne	a7,a4,800079c0 <__gedf2+0x96>
/Local/xl_ci/toolchain/riscv-gnu-toolchain/riscv-gcc/libgcc/soft-fp/gedf2.c:45 (discriminator 117)
800079ac:	fe6e61e3          	bltu	t3,t1,8000798e <__gedf2+0x64>
/Local/xl_ci/toolchain/riscv-gnu-toolchain/riscv-gcc/libgcc/soft-fp/gedf2.c:45 (discriminator 128)
800079b0:	ffc368e3          	bltu	t1,t3,800079a0 <__gedf2+0x76>
/Local/xl_ci/toolchain/riscv-gnu-toolchain/riscv-gcc/libgcc/soft-fp/gedf2.c:45
800079b4:	4501                	li	a0,0
800079b6:	8082                	ret
800079b8:	4505                	li	a0,1
800079ba:	8082                	ret
800079bc:	ffe5                	bnez	a5,800079b4 <__gedf2+0x8a>
800079be:	bfc1                	j	8000798e <__gedf2+0x64>
800079c0:	fee8e0e3          	bltu	a7,a4,800079a0 <__gedf2+0x76>
800079c4:	bfc5                	j	800079b4 <__gedf2+0x8a>
800079c6:	fb0582e3          	beq	a1,a6,8000796a <__gedf2+0x40>
800079ca:	fdd5                	bnez	a1,80007986 <__gedf2+0x5c>
800079cc:	4781                	li	a5,0
800079ce:	bf4d                	j	80007980 <__gedf2+0x56>

800079d0 <__ledf2>:
__ledf2():
/Local/xl_ci/toolchain/riscv-gnu-toolchain/riscv-gcc/libgcc/soft-fp/ledf2.c:43
800079d0:	00100737          	lui	a4,0x100
800079d4:	177d                	addi	a4,a4,-1
800079d6:	0145d813          	srli	a6,a1,0x14
800079da:	00b778b3          	and	a7,a4,a1
/Local/xl_ci/toolchain/riscv-gnu-toolchain/riscv-gcc/libgcc/soft-fp/ledf2.c:36
800079de:	87aa                	mv	a5,a0
800079e0:	832a                	mv	t1,a0
/Local/xl_ci/toolchain/riscv-gnu-toolchain/riscv-gcc/libgcc/soft-fp/ledf2.c:43
800079e2:	7ff87813          	andi	a6,a6,2047
800079e6:	01f5d513          	srli	a0,a1,0x1f
/Local/xl_ci/toolchain/riscv-gnu-toolchain/riscv-gcc/libgcc/soft-fp/ledf2.c:45
800079ea:	7ff00e93          	li	t4,2047
/Local/xl_ci/toolchain/riscv-gnu-toolchain/riscv-gcc/libgcc/soft-fp/ledf2.c:44
800079ee:	0146d593          	srli	a1,a3,0x14
800079f2:	8f75                	and	a4,a4,a3
800079f4:	8e32                	mv	t3,a2
800079f6:	7ff5f593          	andi	a1,a1,2047
800079fa:	82fd                	srli	a3,a3,0x1f
/Local/xl_ci/toolchain/riscv-gnu-toolchain/riscv-gcc/libgcc/soft-fp/ledf2.c:45
800079fc:	01d81863          	bne	a6,t4,80007a0c <__ledf2+0x3c>
/Local/xl_ci/toolchain/riscv-gnu-toolchain/riscv-gcc/libgcc/soft-fp/ledf2.c:45 (discriminator 20)
80007a00:	00f8eeb3          	or	t4,a7,a5
80007a04:	060e8463          	beqz	t4,80007a6c <__ledf2+0x9c>
/Local/xl_ci/toolchain/riscv-gnu-toolchain/riscv-gcc/libgcc/soft-fp/ledf2.c:45
80007a08:	4509                	li	a0,2
80007a0a:	8082                	ret
/Local/xl_ci/toolchain/riscv-gnu-toolchain/riscv-gcc/libgcc/soft-fp/ledf2.c:45 (discriminator 23)
80007a0c:	01d59663          	bne	a1,t4,80007a18 <__ledf2+0x48>
/Local/xl_ci/toolchain/riscv-gnu-toolchain/riscv-gcc/libgcc/soft-fp/ledf2.c:45 (discriminator 24)
80007a10:	00c76eb3          	or	t4,a4,a2
80007a14:	fe0e9ae3          	bnez	t4,80007a08 <__ledf2+0x38>
/Local/xl_ci/toolchain/riscv-gnu-toolchain/riscv-gcc/libgcc/soft-fp/ledf2.c:45 (discriminator 62)
80007a18:	04081c63          	bnez	a6,80007a70 <__ledf2+0xa0>
/Local/xl_ci/toolchain/riscv-gnu-toolchain/riscv-gcc/libgcc/soft-fp/ledf2.c:45 (discriminator 63)
80007a1c:	00f8e7b3          	or	a5,a7,a5
80007a20:	0017b793          	seqz	a5,a5
80007a24:	e199                	bnez	a1,80007a2a <__ledf2+0x5a>
/Local/xl_ci/toolchain/riscv-gnu-toolchain/riscv-gcc/libgcc/soft-fp/ledf2.c:45 (discriminator 69)
80007a26:	8e59                	or	a2,a2,a4
80007a28:	ce0d                	beqz	a2,80007a62 <__ledf2+0x92>
/Local/xl_ci/toolchain/riscv-gnu-toolchain/riscv-gcc/libgcc/soft-fp/ledf2.c:45
80007a2a:	eb81                	bnez	a5,80007a3a <__ledf2+0x6a>
80007a2c:	00d51463          	bne	a0,a3,80007a34 <__ledf2+0x64>
/Local/xl_ci/toolchain/riscv-gnu-toolchain/riscv-gcc/libgcc/soft-fp/ledf2.c:45 (discriminator 95)
80007a30:	0105d963          	bge	a1,a6,80007a42 <__ledf2+0x72>
/Local/xl_ci/toolchain/riscv-gnu-toolchain/riscv-gcc/libgcc/soft-fp/ledf2.c:45 (discriminator 119)
80007a34:	c50d                	beqz	a0,80007a5e <__ledf2+0x8e>
/Local/xl_ci/toolchain/riscv-gnu-toolchain/riscv-gcc/libgcc/soft-fp/ledf2.c:45
80007a36:	557d                	li	a0,-1
80007a38:	8082                	ret
/Local/xl_ci/toolchain/riscv-gnu-toolchain/riscv-gcc/libgcc/soft-fp/ledf2.c:45 (discriminator 80)
80007a3a:	557d                	li	a0,-1
80007a3c:	c691                	beqz	a3,80007a48 <__ledf2+0x78>
/Local/xl_ci/toolchain/riscv-gnu-toolchain/riscv-gcc/libgcc/soft-fp/ledf2.c:45
80007a3e:	8536                	mv	a0,a3
80007a40:	8082                	ret
/Local/xl_ci/toolchain/riscv-gnu-toolchain/riscv-gcc/libgcc/soft-fp/ledf2.c:45 (discriminator 102)
80007a42:	00b85463          	bge	a6,a1,80007a4a <__ledf2+0x7a>
/Local/xl_ci/toolchain/riscv-gnu-toolchain/riscv-gcc/libgcc/soft-fp/ledf2.c:45 (discriminator 130)
80007a46:	d965                	beqz	a0,80007a36 <__ledf2+0x66>
/Local/xl_ci/toolchain/riscv-gnu-toolchain/riscv-gcc/libgcc/soft-fp/ledf2.c:49
80007a48:	8082                	ret
/Local/xl_ci/toolchain/riscv-gnu-toolchain/riscv-gcc/libgcc/soft-fp/ledf2.c:45 (discriminator 109)
80007a4a:	ff1765e3          	bltu	a4,a7,80007a34 <__ledf2+0x64>
/Local/xl_ci/toolchain/riscv-gnu-toolchain/riscv-gcc/libgcc/soft-fp/ledf2.c:45 (discriminator 116)
80007a4e:	00e89c63          	bne	a7,a4,80007a66 <__ledf2+0x96>
/Local/xl_ci/toolchain/riscv-gnu-toolchain/riscv-gcc/libgcc/soft-fp/ledf2.c:45 (discriminator 117)
80007a52:	fe6e61e3          	bltu	t3,t1,80007a34 <__ledf2+0x64>
/Local/xl_ci/toolchain/riscv-gnu-toolchain/riscv-gcc/libgcc/soft-fp/ledf2.c:45 (discriminator 128)
80007a56:	ffc368e3          	bltu	t1,t3,80007a46 <__ledf2+0x76>
/Local/xl_ci/toolchain/riscv-gnu-toolchain/riscv-gcc/libgcc/soft-fp/ledf2.c:45
80007a5a:	4501                	li	a0,0
80007a5c:	8082                	ret
80007a5e:	4505                	li	a0,1
80007a60:	8082                	ret
80007a62:	ffe5                	bnez	a5,80007a5a <__ledf2+0x8a>
80007a64:	bfc1                	j	80007a34 <__ledf2+0x64>
80007a66:	fee8e0e3          	bltu	a7,a4,80007a46 <__ledf2+0x76>
80007a6a:	bfc5                	j	80007a5a <__ledf2+0x8a>
80007a6c:	fb0582e3          	beq	a1,a6,80007a10 <__ledf2+0x40>
80007a70:	fdd5                	bnez	a1,80007a2c <__ledf2+0x5c>
80007a72:	4781                	li	a5,0
80007a74:	bf4d                	j	80007a26 <__ledf2+0x56>

80007a76 <__muldf3>:
__muldf3():
/Local/xl_ci/toolchain/riscv-gnu-toolchain/riscv-gcc/libgcc/soft-fp/muldf3.c:36
80007a76:	7179                	addi	sp,sp,-48
80007a78:	ce4e                	sw	s3,28(sp)
/Local/xl_ci/toolchain/riscv-gnu-toolchain/riscv-gcc/libgcc/soft-fp/muldf3.c:44
80007a7a:	0145d993          	srli	s3,a1,0x14
/Local/xl_ci/toolchain/riscv-gnu-toolchain/riscv-gcc/libgcc/soft-fp/muldf3.c:36
80007a7e:	d422                	sw	s0,40(sp)
80007a80:	d226                	sw	s1,36(sp)
80007a82:	cc52                	sw	s4,24(sp)
80007a84:	ca56                	sw	s5,20(sp)
80007a86:	c65e                	sw	s7,12(sp)
/Local/xl_ci/toolchain/riscv-gnu-toolchain/riscv-gcc/libgcc/soft-fp/muldf3.c:44
80007a88:	00c59493          	slli	s1,a1,0xc
/Local/xl_ci/toolchain/riscv-gnu-toolchain/riscv-gcc/libgcc/soft-fp/muldf3.c:36
80007a8c:	d606                	sw	ra,44(sp)
80007a8e:	d04a                	sw	s2,32(sp)
80007a90:	c85a                	sw	s6,16(sp)
/Local/xl_ci/toolchain/riscv-gnu-toolchain/riscv-gcc/libgcc/soft-fp/muldf3.c:44
80007a92:	7ff9f993          	andi	s3,s3,2047
/Local/xl_ci/toolchain/riscv-gnu-toolchain/riscv-gcc/libgcc/soft-fp/muldf3.c:36
80007a96:	842a                	mv	s0,a0
80007a98:	8bb2                	mv	s7,a2
80007a9a:	8ab6                	mv	s5,a3
/Local/xl_ci/toolchain/riscv-gnu-toolchain/riscv-gcc/libgcc/soft-fp/muldf3.c:44
80007a9c:	80b1                	srli	s1,s1,0xc
80007a9e:	01f5da13          	srli	s4,a1,0x1f
80007aa2:	08098163          	beqz	s3,80007b24 <__muldf3+0xae>
80007aa6:	7ff00793          	li	a5,2047
80007aaa:	0cf98563          	beq	s3,a5,80007b74 <__muldf3+0xfe>
/Local/xl_ci/toolchain/riscv-gnu-toolchain/riscv-gcc/libgcc/soft-fp/muldf3.c:44 (discriminator 1)
80007aae:	01d55793          	srli	a5,a0,0x1d
80007ab2:	048e                	slli	s1,s1,0x3
80007ab4:	8cdd                	or	s1,s1,a5
80007ab6:	008007b7          	lui	a5,0x800
80007aba:	8cdd                	or	s1,s1,a5
80007abc:	00351913          	slli	s2,a0,0x3
80007ac0:	c0198993          	addi	s3,s3,-1023
/Local/xl_ci/toolchain/riscv-gnu-toolchain/riscv-gcc/libgcc/soft-fp/muldf3.c:44 (discriminator 41)
80007ac4:	4b01                	li	s6,0
/Local/xl_ci/toolchain/riscv-gnu-toolchain/riscv-gcc/libgcc/soft-fp/muldf3.c:45 (discriminator 8)
80007ac6:	014ad513          	srli	a0,s5,0x14
80007aca:	00ca9413          	slli	s0,s5,0xc
80007ace:	7ff57513          	andi	a0,a0,2047
80007ad2:	8031                	srli	s0,s0,0xc
80007ad4:	01fada93          	srli	s5,s5,0x1f
80007ad8:	c161                	beqz	a0,80007b98 <__muldf3+0x122>
/Local/xl_ci/toolchain/riscv-gnu-toolchain/riscv-gcc/libgcc/soft-fp/muldf3.c:45
80007ada:	7ff00793          	li	a5,2047
80007ade:	10f50563          	beq	a0,a5,80007be8 <__muldf3+0x172>
/Local/xl_ci/toolchain/riscv-gnu-toolchain/riscv-gcc/libgcc/soft-fp/muldf3.c:45 (discriminator 1)
80007ae2:	01dbd793          	srli	a5,s7,0x1d
80007ae6:	040e                	slli	s0,s0,0x3
80007ae8:	8c5d                	or	s0,s0,a5
80007aea:	008007b7          	lui	a5,0x800
80007aee:	8c5d                	or	s0,s0,a5
80007af0:	c0150513          	addi	a0,a0,-1023 # 7fc01 <__stack_size+0x7f401>
80007af4:	003b9793          	slli	a5,s7,0x3
/Local/xl_ci/toolchain/riscv-gnu-toolchain/riscv-gcc/libgcc/soft-fp/muldf3.c:45 (discriminator 41)
80007af8:	4701                	li	a4,0
/Local/xl_ci/toolchain/riscv-gnu-toolchain/riscv-gcc/libgcc/soft-fp/muldf3.c:46 (discriminator 8)
80007afa:	002b1693          	slli	a3,s6,0x2
80007afe:	8ed9                	or	a3,a3,a4
80007b00:	954e                	add	a0,a0,s3
80007b02:	16fd                	addi	a3,a3,-1
80007b04:	4839                	li	a6,14
80007b06:	015a4633          	xor	a2,s4,s5
80007b0a:	00150593          	addi	a1,a0,1
80007b0e:	0ed86e63          	bltu	a6,a3,80007c0a <__muldf3+0x194>
80007b12:	00002517          	auipc	a0,0x2
80007b16:	c0650513          	addi	a0,a0,-1018 # 80009718 <_ctype_+0x140>
80007b1a:	068a                	slli	a3,a3,0x2
80007b1c:	96aa                	add	a3,a3,a0
80007b1e:	4294                	lw	a3,0(a3)
80007b20:	96aa                	add	a3,a3,a0
80007b22:	8682                	jr	a3
/Local/xl_ci/toolchain/riscv-gnu-toolchain/riscv-gcc/libgcc/soft-fp/muldf3.c:44 (discriminator 2)
80007b24:	00a4e933          	or	s2,s1,a0
80007b28:	04090f63          	beqz	s2,80007b86 <__muldf3+0x110>
/Local/xl_ci/toolchain/riscv-gnu-toolchain/riscv-gcc/libgcc/soft-fp/muldf3.c:44 (discriminator 13)
80007b2c:	c88d                	beqz	s1,80007b5e <__muldf3+0xe8>
/Local/xl_ci/toolchain/riscv-gnu-toolchain/riscv-gcc/libgcc/soft-fp/muldf3.c:44 (discriminator 17)
80007b2e:	8526                	mv	a0,s1
80007b30:	52f000ef          	jal	ra,8000885e <__clzsi2>
/Local/xl_ci/toolchain/riscv-gnu-toolchain/riscv-gcc/libgcc/soft-fp/muldf3.c:44 (discriminator 31)
80007b34:	ff550713          	addi	a4,a0,-11
80007b38:	47f1                	li	a5,28
80007b3a:	02e7c763          	blt	a5,a4,80007b68 <__muldf3+0xf2>
/Local/xl_ci/toolchain/riscv-gnu-toolchain/riscv-gcc/libgcc/soft-fp/muldf3.c:44 (discriminator 32)
80007b3e:	47f5                	li	a5,29
80007b40:	ff850913          	addi	s2,a0,-8
80007b44:	8f99                	sub	a5,a5,a4
80007b46:	012494b3          	sll	s1,s1,s2
80007b4a:	00f457b3          	srl	a5,s0,a5
80007b4e:	8cdd                	or	s1,s1,a5
80007b50:	01241933          	sll	s2,s0,s2
/Local/xl_ci/toolchain/riscv-gnu-toolchain/riscv-gcc/libgcc/soft-fp/muldf3.c:44 (discriminator 41)
80007b54:	c0d00993          	li	s3,-1011
80007b58:	40a989b3          	sub	s3,s3,a0
80007b5c:	b7a5                	j	80007ac4 <__muldf3+0x4e>
/Local/xl_ci/toolchain/riscv-gnu-toolchain/riscv-gcc/libgcc/soft-fp/muldf3.c:44 (discriminator 24)
80007b5e:	501000ef          	jal	ra,8000885e <__clzsi2>
80007b62:	02050513          	addi	a0,a0,32
80007b66:	b7f9                	j	80007b34 <__muldf3+0xbe>
/Local/xl_ci/toolchain/riscv-gnu-toolchain/riscv-gcc/libgcc/soft-fp/muldf3.c:44 (discriminator 33)
80007b68:	fd850493          	addi	s1,a0,-40
80007b6c:	009414b3          	sll	s1,s0,s1
80007b70:	4901                	li	s2,0
80007b72:	b7cd                	j	80007b54 <__muldf3+0xde>
/Local/xl_ci/toolchain/riscv-gnu-toolchain/riscv-gcc/libgcc/soft-fp/muldf3.c:44 (discriminator 3)
80007b74:	00a4e933          	or	s2,s1,a0
80007b78:	00090b63          	beqz	s2,80007b8e <__muldf3+0x118>
/Local/xl_ci/toolchain/riscv-gnu-toolchain/riscv-gcc/libgcc/soft-fp/muldf3.c:44
80007b7c:	892a                	mv	s2,a0
80007b7e:	7ff00993          	li	s3,2047
80007b82:	4b0d                	li	s6,3
80007b84:	b789                	j	80007ac6 <__muldf3+0x50>
80007b86:	4481                	li	s1,0
80007b88:	4981                	li	s3,0
80007b8a:	4b05                	li	s6,1
80007b8c:	bf2d                	j	80007ac6 <__muldf3+0x50>
80007b8e:	4481                	li	s1,0
80007b90:	7ff00993          	li	s3,2047
80007b94:	4b09                	li	s6,2
80007b96:	bf05                	j	80007ac6 <__muldf3+0x50>
/Local/xl_ci/toolchain/riscv-gnu-toolchain/riscv-gcc/libgcc/soft-fp/muldf3.c:45 (discriminator 2)
80007b98:	017467b3          	or	a5,s0,s7
80007b9c:	cfb1                	beqz	a5,80007bf8 <__muldf3+0x182>
/Local/xl_ci/toolchain/riscv-gnu-toolchain/riscv-gcc/libgcc/soft-fp/muldf3.c:45 (discriminator 13)
80007b9e:	c80d                	beqz	s0,80007bd0 <__muldf3+0x15a>
/Local/xl_ci/toolchain/riscv-gnu-toolchain/riscv-gcc/libgcc/soft-fp/muldf3.c:45 (discriminator 17)
80007ba0:	8522                	mv	a0,s0
80007ba2:	4bd000ef          	jal	ra,8000885e <__clzsi2>
/Local/xl_ci/toolchain/riscv-gnu-toolchain/riscv-gcc/libgcc/soft-fp/muldf3.c:45 (discriminator 31)
80007ba6:	ff550693          	addi	a3,a0,-11
80007baa:	47f1                	li	a5,28
80007bac:	02d7c863          	blt	a5,a3,80007bdc <__muldf3+0x166>
/Local/xl_ci/toolchain/riscv-gnu-toolchain/riscv-gcc/libgcc/soft-fp/muldf3.c:45 (discriminator 32)
80007bb0:	4775                	li	a4,29
80007bb2:	ff850793          	addi	a5,a0,-8
80007bb6:	8f15                	sub	a4,a4,a3
80007bb8:	00f41433          	sll	s0,s0,a5
80007bbc:	00ebd733          	srl	a4,s7,a4
80007bc0:	8c59                	or	s0,s0,a4
80007bc2:	00fb97b3          	sll	a5,s7,a5
/Local/xl_ci/toolchain/riscv-gnu-toolchain/riscv-gcc/libgcc/soft-fp/muldf3.c:45 (discriminator 41)
80007bc6:	c0d00713          	li	a4,-1011
80007bca:	40a70533          	sub	a0,a4,a0
80007bce:	b72d                	j	80007af8 <__muldf3+0x82>
/Local/xl_ci/toolchain/riscv-gnu-toolchain/riscv-gcc/libgcc/soft-fp/muldf3.c:45 (discriminator 24)
80007bd0:	855e                	mv	a0,s7
80007bd2:	48d000ef          	jal	ra,8000885e <__clzsi2>
80007bd6:	02050513          	addi	a0,a0,32
80007bda:	b7f1                	j	80007ba6 <__muldf3+0x130>
/Local/xl_ci/toolchain/riscv-gnu-toolchain/riscv-gcc/libgcc/soft-fp/muldf3.c:45 (discriminator 33)
80007bdc:	fd850413          	addi	s0,a0,-40
80007be0:	008b9433          	sll	s0,s7,s0
80007be4:	4781                	li	a5,0
80007be6:	b7c5                	j	80007bc6 <__muldf3+0x150>
/Local/xl_ci/toolchain/riscv-gnu-toolchain/riscv-gcc/libgcc/soft-fp/muldf3.c:45 (discriminator 3)
80007be8:	017467b3          	or	a5,s0,s7
80007bec:	cb91                	beqz	a5,80007c00 <__muldf3+0x18a>
/Local/xl_ci/toolchain/riscv-gnu-toolchain/riscv-gcc/libgcc/soft-fp/muldf3.c:45
80007bee:	87de                	mv	a5,s7
80007bf0:	7ff00513          	li	a0,2047
80007bf4:	470d                	li	a4,3
80007bf6:	b711                	j	80007afa <__muldf3+0x84>
80007bf8:	4401                	li	s0,0
80007bfa:	4501                	li	a0,0
80007bfc:	4705                	li	a4,1
80007bfe:	bdf5                	j	80007afa <__muldf3+0x84>
80007c00:	4401                	li	s0,0
80007c02:	7ff00513          	li	a0,2047
80007c06:	4709                	li	a4,2
80007c08:	bdcd                	j	80007afa <__muldf3+0x84>
/Local/xl_ci/toolchain/riscv-gnu-toolchain/riscv-gcc/libgcc/soft-fp/muldf3.c:46 (discriminator 2)
80007c0a:	6f41                	lui	t5,0x10
80007c0c:	ffff0e93          	addi	t4,t5,-1 # ffff <__stack_size+0xf7ff>
80007c10:	01095713          	srli	a4,s2,0x10
80007c14:	0107d893          	srli	a7,a5,0x10
80007c18:	01d97933          	and	s2,s2,t4
80007c1c:	01d7f7b3          	and	a5,a5,t4
80007c20:	03288833          	mul	a6,a7,s2
80007c24:	02f906b3          	mul	a3,s2,a5
80007c28:	02f70fb3          	mul	t6,a4,a5
80007c2c:	01f80333          	add	t1,a6,t6
80007c30:	0106d813          	srli	a6,a3,0x10
80007c34:	981a                	add	a6,a6,t1
80007c36:	03170e33          	mul	t3,a4,a7
80007c3a:	01f87363          	bgeu	a6,t6,80007c40 <__muldf3+0x1ca>
/Local/xl_ci/toolchain/riscv-gnu-toolchain/riscv-gcc/libgcc/soft-fp/muldf3.c:46 (discriminator 9)
80007c3e:	9e7a                	add	t3,t3,t5
/Local/xl_ci/toolchain/riscv-gnu-toolchain/riscv-gcc/libgcc/soft-fp/muldf3.c:46 (discriminator 11)
80007c40:	01085393          	srli	t2,a6,0x10
80007c44:	01d87833          	and	a6,a6,t4
80007c48:	01d6f6b3          	and	a3,a3,t4
80007c4c:	01045f13          	srli	t5,s0,0x10
80007c50:	01d472b3          	and	t0,s0,t4
80007c54:	0842                	slli	a6,a6,0x10
80007c56:	9836                	add	a6,a6,a3
80007c58:	02570eb3          	mul	t4,a4,t0
80007c5c:	025906b3          	mul	a3,s2,t0
80007c60:	032f0933          	mul	s2,t5,s2
80007c64:	01d90333          	add	t1,s2,t4
80007c68:	0106d913          	srli	s2,a3,0x10
80007c6c:	991a                	add	s2,s2,t1
80007c6e:	03e70733          	mul	a4,a4,t5
80007c72:	01d97463          	bgeu	s2,t4,80007c7a <__muldf3+0x204>
/Local/xl_ci/toolchain/riscv-gnu-toolchain/riscv-gcc/libgcc/soft-fp/muldf3.c:46 (discriminator 12)
80007c76:	6341                	lui	t1,0x10
80007c78:	971a                	add	a4,a4,t1
/Local/xl_ci/toolchain/riscv-gnu-toolchain/riscv-gcc/libgcc/soft-fp/muldf3.c:46 (discriminator 14)
80007c7a:	01095e93          	srli	t4,s2,0x10
80007c7e:	69c1                	lui	s3,0x10
80007c80:	9eba                	add	t4,t4,a4
80007c82:	fff98713          	addi	a4,s3,-1 # ffff <__stack_size+0xf7ff>
80007c86:	00e97933          	and	s2,s2,a4
80007c8a:	8ef9                	and	a3,a3,a4
80007c8c:	0104d413          	srli	s0,s1,0x10
80007c90:	0942                	slli	s2,s2,0x10
80007c92:	8cf9                	and	s1,s1,a4
80007c94:	02978733          	mul	a4,a5,s1
80007c98:	9936                	add	s2,s2,a3
80007c9a:	93ca                	add	t2,t2,s2
80007c9c:	02f40333          	mul	t1,s0,a5
80007ca0:	029886b3          	mul	a3,a7,s1
80007ca4:	028887b3          	mul	a5,a7,s0
80007ca8:	006688b3          	add	a7,a3,t1
80007cac:	01075693          	srli	a3,a4,0x10
80007cb0:	96c6                	add	a3,a3,a7
80007cb2:	0066f363          	bgeu	a3,t1,80007cb8 <__muldf3+0x242>
/Local/xl_ci/toolchain/riscv-gnu-toolchain/riscv-gcc/libgcc/soft-fp/muldf3.c:46 (discriminator 15)
80007cb6:	97ce                	add	a5,a5,s3
/Local/xl_ci/toolchain/riscv-gnu-toolchain/riscv-gcc/libgcc/soft-fp/muldf3.c:46 (discriminator 17)
80007cb8:	0106d893          	srli	a7,a3,0x10
80007cbc:	69c1                	lui	s3,0x10
80007cbe:	00f88fb3          	add	t6,a7,a5
80007cc2:	fff98793          	addi	a5,s3,-1 # ffff <__stack_size+0xf7ff>
80007cc6:	029288b3          	mul	a7,t0,s1
80007cca:	8efd                	and	a3,a3,a5
80007ccc:	8f7d                	and	a4,a4,a5
80007cce:	06c2                	slli	a3,a3,0x10
80007cd0:	96ba                	add	a3,a3,a4
80007cd2:	025407b3          	mul	a5,s0,t0
80007cd6:	029f04b3          	mul	s1,t5,s1
80007cda:	028f0333          	mul	t1,t5,s0
80007cde:	94be                	add	s1,s1,a5
80007ce0:	0108d413          	srli	s0,a7,0x10
80007ce4:	94a2                	add	s1,s1,s0
80007ce6:	00f4f363          	bgeu	s1,a5,80007cec <__muldf3+0x276>
/Local/xl_ci/toolchain/riscv-gnu-toolchain/riscv-gcc/libgcc/soft-fp/muldf3.c:46 (discriminator 18)
80007cea:	934e                	add	t1,t1,s3
/Local/xl_ci/toolchain/riscv-gnu-toolchain/riscv-gcc/libgcc/soft-fp/muldf3.c:46 (discriminator 20)
80007cec:	67c1                	lui	a5,0x10
80007cee:	17fd                	addi	a5,a5,-1
80007cf0:	00f4f733          	and	a4,s1,a5
80007cf4:	00f8f8b3          	and	a7,a7,a5
80007cf8:	0742                	slli	a4,a4,0x10
80007cfa:	9e1e                	add	t3,t3,t2
80007cfc:	9746                	add	a4,a4,a7
80007cfe:	012e3933          	sltu	s2,t3,s2
80007d02:	9776                	add	a4,a4,t4
80007d04:	01270433          	add	s0,a4,s2
80007d08:	9e36                	add	t3,t3,a3
80007d0a:	00de36b3          	sltu	a3,t3,a3
80007d0e:	01f408b3          	add	a7,s0,t6
80007d12:	00d88f33          	add	t5,a7,a3
80007d16:	01d73733          	sltu	a4,a4,t4
80007d1a:	01243433          	sltu	s0,s0,s2
80007d1e:	8c59                	or	s0,s0,a4
80007d20:	80c1                	srli	s1,s1,0x10
80007d22:	01f8b8b3          	sltu	a7,a7,t6
80007d26:	00df36b3          	sltu	a3,t5,a3
80007d2a:	9426                	add	s0,s0,s1
80007d2c:	00d8e6b3          	or	a3,a7,a3
80007d30:	9436                	add	s0,s0,a3
80007d32:	941a                	add	s0,s0,t1
80007d34:	017f5793          	srli	a5,t5,0x17
80007d38:	0426                	slli	s0,s0,0x9
80007d3a:	8c5d                	or	s0,s0,a5
80007d3c:	009e1793          	slli	a5,t3,0x9
80007d40:	0107e7b3          	or	a5,a5,a6
80007d44:	00f037b3          	snez	a5,a5
80007d48:	017e5e13          	srli	t3,t3,0x17
80007d4c:	009f1713          	slli	a4,t5,0x9
80007d50:	01c7e7b3          	or	a5,a5,t3
80007d54:	8fd9                	or	a5,a5,a4
80007d56:	01000737          	lui	a4,0x1000
80007d5a:	8f61                	and	a4,a4,s0
80007d5c:	cb4d                	beqz	a4,80007e0e <__muldf3+0x398>
/Local/xl_ci/toolchain/riscv-gnu-toolchain/riscv-gcc/libgcc/soft-fp/muldf3.c:46 (discriminator 38)
80007d5e:	0017d713          	srli	a4,a5,0x1
80007d62:	8b85                	andi	a5,a5,1
80007d64:	8fd9                	or	a5,a5,a4
80007d66:	01f41713          	slli	a4,s0,0x1f
80007d6a:	8fd9                	or	a5,a5,a4
80007d6c:	8005                	srli	s0,s0,0x1
/Local/xl_ci/toolchain/riscv-gnu-toolchain/riscv-gcc/libgcc/soft-fp/muldf3.c:47 (discriminator 2)
80007d6e:	3ff58693          	addi	a3,a1,1023
80007d72:	0ad05063          	blez	a3,80007e12 <__muldf3+0x39c>
/Local/xl_ci/toolchain/riscv-gnu-toolchain/riscv-gcc/libgcc/soft-fp/muldf3.c:47 (discriminator 6)
80007d76:	0077f713          	andi	a4,a5,7
80007d7a:	cf01                	beqz	a4,80007d92 <__muldf3+0x31c>
/Local/xl_ci/toolchain/riscv-gnu-toolchain/riscv-gcc/libgcc/soft-fp/muldf3.c:47 (discriminator 8)
80007d7c:	00f7f713          	andi	a4,a5,15
80007d80:	4511                	li	a0,4
80007d82:	00a70863          	beq	a4,a0,80007d92 <__muldf3+0x31c>
/Local/xl_ci/toolchain/riscv-gnu-toolchain/riscv-gcc/libgcc/soft-fp/muldf3.c:47 (discriminator 10)
80007d86:	00478713          	addi	a4,a5,4 # 10004 <__stack_size+0xf804>
80007d8a:	00f737b3          	sltu	a5,a4,a5
80007d8e:	943e                	add	s0,s0,a5
80007d90:	87ba                	mv	a5,a4
/Local/xl_ci/toolchain/riscv-gnu-toolchain/riscv-gcc/libgcc/soft-fp/muldf3.c:47 (discriminator 9)
80007d92:	01000737          	lui	a4,0x1000
80007d96:	8f61                	and	a4,a4,s0
80007d98:	c719                	beqz	a4,80007da6 <__muldf3+0x330>
/Local/xl_ci/toolchain/riscv-gnu-toolchain/riscv-gcc/libgcc/soft-fp/muldf3.c:47 (discriminator 24)
80007d9a:	ff000737          	lui	a4,0xff000
80007d9e:	177d                	addi	a4,a4,-1
80007da0:	8c79                	and	s0,s0,a4
80007da2:	40058693          	addi	a3,a1,1024
/Local/xl_ci/toolchain/riscv-gnu-toolchain/riscv-gcc/libgcc/soft-fp/muldf3.c:47 (discriminator 26)
80007da6:	7fe00713          	li	a4,2046
80007daa:	0ed74e63          	blt	a4,a3,80007ea6 <__muldf3+0x430>
/Local/xl_ci/toolchain/riscv-gnu-toolchain/riscv-gcc/libgcc/soft-fp/muldf3.c:47
80007dae:	0037d713          	srli	a4,a5,0x3
80007db2:	01d41793          	slli	a5,s0,0x1d
80007db6:	8fd9                	or	a5,a5,a4
80007db8:	800d                	srli	s0,s0,0x3
/Local/xl_ci/toolchain/riscv-gnu-toolchain/riscv-gcc/libgcc/soft-fp/muldf3.c:47 (discriminator 119)
80007dba:	01469713          	slli	a4,a3,0x14
80007dbe:	0432                	slli	s0,s0,0xc
80007dc0:	7ff006b7          	lui	a3,0x7ff00
80007dc4:	8f75                	and	a4,a4,a3
80007dc6:	8031                	srli	s0,s0,0xc
80007dc8:	8c59                	or	s0,s0,a4
80007dca:	067e                	slli	a2,a2,0x1f
/Local/xl_ci/toolchain/riscv-gnu-toolchain/riscv-gcc/libgcc/soft-fp/muldf3.c:51 (discriminator 119)
80007dcc:	50b2                	lw	ra,44(sp)
/Local/xl_ci/toolchain/riscv-gnu-toolchain/riscv-gcc/libgcc/soft-fp/muldf3.c:47 (discriminator 119)
80007dce:	00c46733          	or	a4,s0,a2
/Local/xl_ci/toolchain/riscv-gnu-toolchain/riscv-gcc/libgcc/soft-fp/muldf3.c:51 (discriminator 119)
80007dd2:	5422                	lw	s0,40(sp)
80007dd4:	5492                	lw	s1,36(sp)
80007dd6:	5902                	lw	s2,32(sp)
80007dd8:	49f2                	lw	s3,28(sp)
80007dda:	4a62                	lw	s4,24(sp)
80007ddc:	4ad2                	lw	s5,20(sp)
80007dde:	4b42                	lw	s6,16(sp)
80007de0:	4bb2                	lw	s7,12(sp)
80007de2:	853e                	mv	a0,a5
80007de4:	85ba                	mv	a1,a4
80007de6:	6145                	addi	sp,sp,48
80007de8:	8082                	ret
/Local/xl_ci/toolchain/riscv-gnu-toolchain/riscv-gcc/libgcc/soft-fp/muldf3.c:44 (discriminator 7)
80007dea:	8652                	mv	a2,s4
/Local/xl_ci/toolchain/riscv-gnu-toolchain/riscv-gcc/libgcc/soft-fp/muldf3.c:46 (discriminator 7)
80007dec:	8426                	mv	s0,s1
80007dee:	87ca                	mv	a5,s2
80007df0:	875a                	mv	a4,s6
/Local/xl_ci/toolchain/riscv-gnu-toolchain/riscv-gcc/libgcc/soft-fp/muldf3.c:47 (discriminator 47)
80007df2:	4689                	li	a3,2
80007df4:	0ad70963          	beq	a4,a3,80007ea6 <__muldf3+0x430>
/Local/xl_ci/toolchain/riscv-gnu-toolchain/riscv-gcc/libgcc/soft-fp/muldf3.c:47
80007df8:	468d                	li	a3,3
80007dfa:	08d70f63          	beq	a4,a3,80007e98 <__muldf3+0x422>
80007dfe:	4685                	li	a3,1
80007e00:	f6d717e3          	bne	a4,a3,80007d6e <__muldf3+0x2f8>
80007e04:	4401                	li	s0,0
80007e06:	4781                	li	a5,0
80007e08:	a09d                	j	80007e6e <__muldf3+0x3f8>
/Local/xl_ci/toolchain/riscv-gnu-toolchain/riscv-gcc/libgcc/soft-fp/muldf3.c:45 (discriminator 4)
80007e0a:	8656                	mv	a2,s5
/Local/xl_ci/toolchain/riscv-gnu-toolchain/riscv-gcc/libgcc/soft-fp/muldf3.c:46 (discriminator 4)
80007e0c:	b7dd                	j	80007df2 <__muldf3+0x37c>
/Local/xl_ci/toolchain/riscv-gnu-toolchain/riscv-gcc/libgcc/soft-fp/muldf3.c:46
80007e0e:	85aa                	mv	a1,a0
80007e10:	bfb9                	j	80007d6e <__muldf3+0x2f8>
/Local/xl_ci/toolchain/riscv-gnu-toolchain/riscv-gcc/libgcc/soft-fp/muldf3.c:47 (discriminator 59)
80007e12:	4505                	li	a0,1
80007e14:	8d15                	sub	a0,a0,a3
80007e16:	03800713          	li	a4,56
80007e1a:	fea745e3          	blt	a4,a0,80007e04 <__muldf3+0x38e>
/Local/xl_ci/toolchain/riscv-gnu-toolchain/riscv-gcc/libgcc/soft-fp/muldf3.c:47 (discriminator 60)
80007e1e:	477d                	li	a4,31
80007e20:	04a74963          	blt	a4,a0,80007e72 <__muldf3+0x3fc>
/Local/xl_ci/toolchain/riscv-gnu-toolchain/riscv-gcc/libgcc/soft-fp/muldf3.c:47 (discriminator 62)
80007e24:	41e58593          	addi	a1,a1,1054
80007e28:	00b41733          	sll	a4,s0,a1
80007e2c:	00a7d6b3          	srl	a3,a5,a0
80007e30:	00b797b3          	sll	a5,a5,a1
80007e34:	8f55                	or	a4,a4,a3
80007e36:	00f037b3          	snez	a5,a5
80007e3a:	8fd9                	or	a5,a5,a4
80007e3c:	00a45433          	srl	s0,s0,a0
/Local/xl_ci/toolchain/riscv-gnu-toolchain/riscv-gcc/libgcc/soft-fp/muldf3.c:47 (discriminator 75)
80007e40:	0077f713          	andi	a4,a5,7
80007e44:	cf01                	beqz	a4,80007e5c <__muldf3+0x3e6>
/Local/xl_ci/toolchain/riscv-gnu-toolchain/riscv-gcc/libgcc/soft-fp/muldf3.c:47 (discriminator 76)
80007e46:	00f7f713          	andi	a4,a5,15
80007e4a:	4691                	li	a3,4
80007e4c:	00d70863          	beq	a4,a3,80007e5c <__muldf3+0x3e6>
/Local/xl_ci/toolchain/riscv-gnu-toolchain/riscv-gcc/libgcc/soft-fp/muldf3.c:47 (discriminator 78)
80007e50:	00478713          	addi	a4,a5,4
80007e54:	00f737b3          	sltu	a5,a4,a5
80007e58:	943e                	add	s0,s0,a5
80007e5a:	87ba                	mv	a5,a4
/Local/xl_ci/toolchain/riscv-gnu-toolchain/riscv-gcc/libgcc/soft-fp/muldf3.c:47 (discriminator 77)
80007e5c:	00800737          	lui	a4,0x800
80007e60:	8f61                	and	a4,a4,s0
80007e62:	e739                	bnez	a4,80007eb0 <__muldf3+0x43a>
/Local/xl_ci/toolchain/riscv-gnu-toolchain/riscv-gcc/libgcc/soft-fp/muldf3.c:47 (discriminator 93)
80007e64:	01d41713          	slli	a4,s0,0x1d
80007e68:	838d                	srli	a5,a5,0x3
80007e6a:	8fd9                	or	a5,a5,a4
80007e6c:	800d                	srli	s0,s0,0x3
/Local/xl_ci/toolchain/riscv-gnu-toolchain/riscv-gcc/libgcc/soft-fp/muldf3.c:47
80007e6e:	4681                	li	a3,0
80007e70:	b7a9                	j	80007dba <__muldf3+0x344>
/Local/xl_ci/toolchain/riscv-gnu-toolchain/riscv-gcc/libgcc/soft-fp/muldf3.c:47 (discriminator 63)
80007e72:	5705                	li	a4,-31
80007e74:	8f15                	sub	a4,a4,a3
80007e76:	02000813          	li	a6,32
80007e7a:	00e45733          	srl	a4,s0,a4
80007e7e:	4681                	li	a3,0
80007e80:	01050663          	beq	a0,a6,80007e8c <__muldf3+0x416>
/Local/xl_ci/toolchain/riscv-gnu-toolchain/riscv-gcc/libgcc/soft-fp/muldf3.c:47 (discriminator 71)
80007e84:	43e58593          	addi	a1,a1,1086
80007e88:	00b416b3          	sll	a3,s0,a1
/Local/xl_ci/toolchain/riscv-gnu-toolchain/riscv-gcc/libgcc/soft-fp/muldf3.c:47 (discriminator 74)
80007e8c:	8fd5                	or	a5,a5,a3
80007e8e:	00f037b3          	snez	a5,a5
80007e92:	8fd9                	or	a5,a5,a4
80007e94:	4401                	li	s0,0
80007e96:	b76d                	j	80007e40 <__muldf3+0x3ca>
/Local/xl_ci/toolchain/riscv-gnu-toolchain/riscv-gcc/libgcc/soft-fp/muldf3.c:47
80007e98:	00080437          	lui	s0,0x80
80007e9c:	4781                	li	a5,0
80007e9e:	7ff00693          	li	a3,2047
80007ea2:	4601                	li	a2,0
80007ea4:	bf19                	j	80007dba <__muldf3+0x344>
80007ea6:	4401                	li	s0,0
80007ea8:	4781                	li	a5,0
80007eaa:	7ff00693          	li	a3,2047
80007eae:	b731                	j	80007dba <__muldf3+0x344>
80007eb0:	4401                	li	s0,0
80007eb2:	4781                	li	a5,0
80007eb4:	4685                	li	a3,1
80007eb6:	b711                	j	80007dba <__muldf3+0x344>

80007eb8 <__subdf3>:
__subdf3():
/Local/xl_ci/toolchain/riscv-gnu-toolchain/riscv-gcc/libgcc/soft-fp/subdf3.c:44
80007eb8:	00100837          	lui	a6,0x100
80007ebc:	187d                	addi	a6,a6,-1
/Local/xl_ci/toolchain/riscv-gnu-toolchain/riscv-gcc/libgcc/soft-fp/subdf3.c:36
80007ebe:	1101                	addi	sp,sp,-32
/Local/xl_ci/toolchain/riscv-gnu-toolchain/riscv-gcc/libgcc/soft-fp/subdf3.c:44
80007ec0:	00b877b3          	and	a5,a6,a1
80007ec4:	0145d713          	srli	a4,a1,0x14
/Local/xl_ci/toolchain/riscv-gnu-toolchain/riscv-gcc/libgcc/soft-fp/subdf3.c:45
80007ec8:	00d87833          	and	a6,a6,a3
80007ecc:	0146d313          	srli	t1,a3,0x14
/Local/xl_ci/toolchain/riscv-gnu-toolchain/riscv-gcc/libgcc/soft-fp/subdf3.c:36
80007ed0:	cc22                	sw	s0,24(sp)
/Local/xl_ci/toolchain/riscv-gnu-toolchain/riscv-gcc/libgcc/soft-fp/subdf3.c:44
80007ed2:	078e                	slli	a5,a5,0x3
80007ed4:	7ff77413          	andi	s0,a4,2047
80007ed8:	01d55713          	srli	a4,a0,0x1d
/Local/xl_ci/toolchain/riscv-gnu-toolchain/riscv-gcc/libgcc/soft-fp/subdf3.c:36
80007edc:	ca26                	sw	s1,20(sp)
/Local/xl_ci/toolchain/riscv-gnu-toolchain/riscv-gcc/libgcc/soft-fp/subdf3.c:44
80007ede:	8fd9                	or	a5,a5,a4
80007ee0:	01f5d493          	srli	s1,a1,0x1f
/Local/xl_ci/toolchain/riscv-gnu-toolchain/riscv-gcc/libgcc/soft-fp/subdf3.c:45
80007ee4:	01d65713          	srli	a4,a2,0x1d
/Local/xl_ci/toolchain/riscv-gnu-toolchain/riscv-gcc/libgcc/soft-fp/subdf3.c:44
80007ee8:	00351593          	slli	a1,a0,0x3
/Local/xl_ci/toolchain/riscv-gnu-toolchain/riscv-gcc/libgcc/soft-fp/subdf3.c:45
80007eec:	080e                	slli	a6,a6,0x3
/Local/xl_ci/toolchain/riscv-gnu-toolchain/riscv-gcc/libgcc/soft-fp/subdf3.c:36
80007eee:	ce06                	sw	ra,28(sp)
80007ef0:	c84a                	sw	s2,16(sp)
80007ef2:	c64e                	sw	s3,12(sp)
/Local/xl_ci/toolchain/riscv-gnu-toolchain/riscv-gcc/libgcc/soft-fp/subdf3.c:45
80007ef4:	7ff37313          	andi	t1,t1,2047
/Local/xl_ci/toolchain/riscv-gnu-toolchain/riscv-gcc/libgcc/soft-fp/subdf3.c:46
80007ef8:	7ff00513          	li	a0,2047
/Local/xl_ci/toolchain/riscv-gnu-toolchain/riscv-gcc/libgcc/soft-fp/subdf3.c:45
80007efc:	82fd                	srli	a3,a3,0x1f
80007efe:	01076733          	or	a4,a4,a6
80007f02:	060e                	slli	a2,a2,0x3
/Local/xl_ci/toolchain/riscv-gnu-toolchain/riscv-gcc/libgcc/soft-fp/subdf3.c:46
80007f04:	00a31563          	bne	t1,a0,80007f0e <__subdf3+0x56>
/Local/xl_ci/toolchain/riscv-gnu-toolchain/riscv-gcc/libgcc/soft-fp/subdf3.c:46 (discriminator 2)
80007f08:	00c76533          	or	a0,a4,a2
80007f0c:	e119                	bnez	a0,80007f12 <__subdf3+0x5a>
/Local/xl_ci/toolchain/riscv-gnu-toolchain/riscv-gcc/libgcc/soft-fp/subdf3.c:46 (discriminator 3)
80007f0e:	0016c693          	xori	a3,a3,1
/Local/xl_ci/toolchain/riscv-gnu-toolchain/riscv-gcc/libgcc/soft-fp/subdf3.c:46 (discriminator 11)
80007f12:	40640833          	sub	a6,s0,t1
80007f16:	22969863          	bne	a3,s1,80008146 <__subdf3+0x28e>
/Local/xl_ci/toolchain/riscv-gnu-toolchain/riscv-gcc/libgcc/soft-fp/subdf3.c:46 (discriminator 12)
80007f1a:	0f005363          	blez	a6,80008000 <__subdf3+0x148>
/Local/xl_ci/toolchain/riscv-gnu-toolchain/riscv-gcc/libgcc/soft-fp/subdf3.c:46 (discriminator 14)
80007f1e:	02031863          	bnez	t1,80007f4e <__subdf3+0x96>
/Local/xl_ci/toolchain/riscv-gnu-toolchain/riscv-gcc/libgcc/soft-fp/subdf3.c:46 (discriminator 16)
80007f22:	00c766b3          	or	a3,a4,a2
80007f26:	58068163          	beqz	a3,800084a8 <__subdf3+0x5f0>
/Local/xl_ci/toolchain/riscv-gnu-toolchain/riscv-gcc/libgcc/soft-fp/subdf3.c:46 (discriminator 19)
80007f2a:	fff80513          	addi	a0,a6,-1 # fffff <__stack_size+0xff7ff>
80007f2e:	e909                	bnez	a0,80007f40 <__subdf3+0x88>
/Local/xl_ci/toolchain/riscv-gnu-toolchain/riscv-gcc/libgcc/soft-fp/subdf3.c:46 (discriminator 28)
80007f30:	962e                	add	a2,a2,a1
80007f32:	00b63533          	sltu	a0,a2,a1
80007f36:	97ba                	add	a5,a5,a4
80007f38:	97aa                	add	a5,a5,a0
80007f3a:	85b2                	mv	a1,a2
/Local/xl_ci/toolchain/riscv-gnu-toolchain/riscv-gcc/libgcc/soft-fp/subdf3.c:45 (discriminator 85)
80007f3c:	4405                	li	s0,1
/Local/xl_ci/toolchain/riscv-gnu-toolchain/riscv-gcc/libgcc/soft-fp/subdf3.c:46 (discriminator 85)
80007f3e:	a8b9                	j	80007f9c <__subdf3+0xe4>
/Local/xl_ci/toolchain/riscv-gnu-toolchain/riscv-gcc/libgcc/soft-fp/subdf3.c:46 (discriminator 29)
80007f40:	7ff00693          	li	a3,2047
80007f44:	00d81d63          	bne	a6,a3,80007f5e <__subdf3+0xa6>
/Local/xl_ci/toolchain/riscv-gnu-toolchain/riscv-gcc/libgcc/soft-fp/subdf3.c:46
80007f48:	7ff00413          	li	s0,2047
80007f4c:	a24d                	j	800080ee <__subdf3+0x236>
/Local/xl_ci/toolchain/riscv-gnu-toolchain/riscv-gcc/libgcc/soft-fp/subdf3.c:46 (discriminator 17)
80007f4e:	7ff00693          	li	a3,2047
80007f52:	18d40e63          	beq	s0,a3,800080ee <__subdf3+0x236>
/Local/xl_ci/toolchain/riscv-gnu-toolchain/riscv-gcc/libgcc/soft-fp/subdf3.c:46 (discriminator 43)
80007f56:	008006b7          	lui	a3,0x800
80007f5a:	8f55                	or	a4,a4,a3
80007f5c:	8542                	mv	a0,a6
/Local/xl_ci/toolchain/riscv-gnu-toolchain/riscv-gcc/libgcc/soft-fp/subdf3.c:46 (discriminator 52)
80007f5e:	03800693          	li	a3,56
80007f62:	08a6cb63          	blt	a3,a0,80007ff8 <__subdf3+0x140>
/Local/xl_ci/toolchain/riscv-gnu-toolchain/riscv-gcc/libgcc/soft-fp/subdf3.c:46 (discriminator 53)
80007f66:	46fd                	li	a3,31
80007f68:	06a6c263          	blt	a3,a0,80007fcc <__subdf3+0x114>
/Local/xl_ci/toolchain/riscv-gnu-toolchain/riscv-gcc/libgcc/soft-fp/subdf3.c:46 (discriminator 55)
80007f6c:	02000813          	li	a6,32
80007f70:	40a80833          	sub	a6,a6,a0
80007f74:	010716b3          	sll	a3,a4,a6
80007f78:	00a658b3          	srl	a7,a2,a0
80007f7c:	01061633          	sll	a2,a2,a6
80007f80:	0116e6b3          	or	a3,a3,a7
80007f84:	00c03633          	snez	a2,a2
80007f88:	8e55                	or	a2,a2,a3
80007f8a:	00a75733          	srl	a4,a4,a0
/Local/xl_ci/toolchain/riscv-gnu-toolchain/riscv-gcc/libgcc/soft-fp/subdf3.c:46 (discriminator 69)
80007f8e:	962e                	add	a2,a2,a1
80007f90:	00b63533          	sltu	a0,a2,a1
80007f94:	973e                	add	a4,a4,a5
80007f96:	00a707b3          	add	a5,a4,a0
80007f9a:	85b2                	mv	a1,a2
/Local/xl_ci/toolchain/riscv-gnu-toolchain/riscv-gcc/libgcc/soft-fp/subdf3.c:46 (discriminator 127)
80007f9c:	00800737          	lui	a4,0x800
80007fa0:	8f7d                	and	a4,a4,a5
80007fa2:	14070663          	beqz	a4,800080ee <__subdf3+0x236>
/Local/xl_ci/toolchain/riscv-gnu-toolchain/riscv-gcc/libgcc/soft-fp/subdf3.c:46 (discriminator 187)
80007fa6:	0405                	addi	s0,s0,1
80007fa8:	7ff00713          	li	a4,2047
80007fac:	48e40b63          	beq	s0,a4,80008442 <__subdf3+0x58a>
/Local/xl_ci/toolchain/riscv-gnu-toolchain/riscv-gcc/libgcc/soft-fp/subdf3.c:46
80007fb0:	ff800737          	lui	a4,0xff800
80007fb4:	177d                	addi	a4,a4,-1
80007fb6:	8ff9                	and	a5,a5,a4
80007fb8:	0015f513          	andi	a0,a1,1
80007fbc:	0015d713          	srli	a4,a1,0x1
80007fc0:	8d59                	or	a0,a0,a4
80007fc2:	01f79593          	slli	a1,a5,0x1f
80007fc6:	8dc9                	or	a1,a1,a0
80007fc8:	8385                	srli	a5,a5,0x1
80007fca:	a215                	j	800080ee <__subdf3+0x236>
/Local/xl_ci/toolchain/riscv-gnu-toolchain/riscv-gcc/libgcc/soft-fp/subdf3.c:46 (discriminator 56)
80007fcc:	fe050693          	addi	a3,a0,-32
80007fd0:	02000893          	li	a7,32
80007fd4:	00d756b3          	srl	a3,a4,a3
80007fd8:	4801                	li	a6,0
80007fda:	01150863          	beq	a0,a7,80007fea <__subdf3+0x132>
/Local/xl_ci/toolchain/riscv-gnu-toolchain/riscv-gcc/libgcc/soft-fp/subdf3.c:46 (discriminator 63)
80007fde:	04000813          	li	a6,64
80007fe2:	40a80533          	sub	a0,a6,a0
80007fe6:	00a71833          	sll	a6,a4,a0
/Local/xl_ci/toolchain/riscv-gnu-toolchain/riscv-gcc/libgcc/soft-fp/subdf3.c:46 (discriminator 66)
80007fea:	00c86633          	or	a2,a6,a2
80007fee:	00c03633          	snez	a2,a2
80007ff2:	8e55                	or	a2,a2,a3
/Local/xl_ci/toolchain/riscv-gnu-toolchain/riscv-gcc/libgcc/soft-fp/subdf3.c:46 (discriminator 54)
80007ff4:	4701                	li	a4,0
80007ff6:	bf61                	j	80007f8e <__subdf3+0xd6>
80007ff8:	8e59                	or	a2,a2,a4
80007ffa:	00c03633          	snez	a2,a2
80007ffe:	bfdd                	j	80007ff4 <__subdf3+0x13c>
/Local/xl_ci/toolchain/riscv-gnu-toolchain/riscv-gcc/libgcc/soft-fp/subdf3.c:46 (discriminator 15)
80008000:	0a080b63          	beqz	a6,800080b6 <__subdf3+0x1fe>
/Local/xl_ci/toolchain/riscv-gnu-toolchain/riscv-gcc/libgcc/soft-fp/subdf3.c:46 (discriminator 71)
80008004:	40830533          	sub	a0,t1,s0
80008008:	e40d                	bnez	s0,80008032 <__subdf3+0x17a>
/Local/xl_ci/toolchain/riscv-gnu-toolchain/riscv-gcc/libgcc/soft-fp/subdf3.c:46 (discriminator 73)
8000800a:	00b7e6b3          	or	a3,a5,a1
8000800e:	42068163          	beqz	a3,80008430 <__subdf3+0x578>
/Local/xl_ci/toolchain/riscv-gnu-toolchain/riscv-gcc/libgcc/soft-fp/subdf3.c:46 (discriminator 76)
80008012:	fff50693          	addi	a3,a0,-1
80008016:	e699                	bnez	a3,80008024 <__subdf3+0x16c>
/Local/xl_ci/toolchain/riscv-gnu-toolchain/riscv-gcc/libgcc/soft-fp/subdf3.c:46 (discriminator 85)
80008018:	95b2                	add	a1,a1,a2
8000801a:	97ba                	add	a5,a5,a4
8000801c:	00c5b633          	sltu	a2,a1,a2
80008020:	97b2                	add	a5,a5,a2
80008022:	bf29                	j	80007f3c <__subdf3+0x84>
/Local/xl_ci/toolchain/riscv-gnu-toolchain/riscv-gcc/libgcc/soft-fp/subdf3.c:46 (discriminator 86)
80008024:	7ff00813          	li	a6,2047
80008028:	01051d63          	bne	a0,a6,80008042 <__subdf3+0x18a>
/Local/xl_ci/toolchain/riscv-gnu-toolchain/riscv-gcc/libgcc/soft-fp/subdf3.c:45
8000802c:	87ba                	mv	a5,a4
8000802e:	85b2                	mv	a1,a2
80008030:	bf21                	j	80007f48 <__subdf3+0x90>
/Local/xl_ci/toolchain/riscv-gnu-toolchain/riscv-gcc/libgcc/soft-fp/subdf3.c:46 (discriminator 74)
80008032:	7ff00693          	li	a3,2047
80008036:	fed30be3          	beq	t1,a3,8000802c <__subdf3+0x174>
/Local/xl_ci/toolchain/riscv-gnu-toolchain/riscv-gcc/libgcc/soft-fp/subdf3.c:46 (discriminator 100)
8000803a:	008006b7          	lui	a3,0x800
8000803e:	8fd5                	or	a5,a5,a3
80008040:	86aa                	mv	a3,a0
/Local/xl_ci/toolchain/riscv-gnu-toolchain/riscv-gcc/libgcc/soft-fp/subdf3.c:46 (discriminator 109)
80008042:	03800513          	li	a0,56
80008046:	06d54363          	blt	a0,a3,800080ac <__subdf3+0x1f4>
/Local/xl_ci/toolchain/riscv-gnu-toolchain/riscv-gcc/libgcc/soft-fp/subdf3.c:46 (discriminator 110)
8000804a:	457d                	li	a0,31
8000804c:	02d54b63          	blt	a0,a3,80008082 <__subdf3+0x1ca>
/Local/xl_ci/toolchain/riscv-gnu-toolchain/riscv-gcc/libgcc/soft-fp/subdf3.c:46 (discriminator 112)
80008050:	02000813          	li	a6,32
80008054:	40d80833          	sub	a6,a6,a3
80008058:	01079533          	sll	a0,a5,a6
8000805c:	00d5d8b3          	srl	a7,a1,a3
80008060:	010595b3          	sll	a1,a1,a6
80008064:	01156533          	or	a0,a0,a7
80008068:	00b035b3          	snez	a1,a1
8000806c:	8d4d                	or	a0,a0,a1
8000806e:	00d7d7b3          	srl	a5,a5,a3
/Local/xl_ci/toolchain/riscv-gnu-toolchain/riscv-gcc/libgcc/soft-fp/subdf3.c:46 (discriminator 126)
80008072:	00c505b3          	add	a1,a0,a2
80008076:	97ba                	add	a5,a5,a4
80008078:	00c5b633          	sltu	a2,a1,a2
8000807c:	97b2                	add	a5,a5,a2
/Local/xl_ci/toolchain/riscv-gnu-toolchain/riscv-gcc/libgcc/soft-fp/subdf3.c:45 (discriminator 126)
8000807e:	841a                	mv	s0,t1
80008080:	bf31                	j	80007f9c <__subdf3+0xe4>
/Local/xl_ci/toolchain/riscv-gnu-toolchain/riscv-gcc/libgcc/soft-fp/subdf3.c:46 (discriminator 113)
80008082:	fe068513          	addi	a0,a3,-32 # 7fffe0 <__stack_size+0x7ff7e0>
80008086:	02000893          	li	a7,32
8000808a:	00a7d833          	srl	a6,a5,a0
8000808e:	4501                	li	a0,0
80008090:	01168763          	beq	a3,a7,8000809e <__subdf3+0x1e6>
/Local/xl_ci/toolchain/riscv-gnu-toolchain/riscv-gcc/libgcc/soft-fp/subdf3.c:46 (discriminator 120)
80008094:	04000513          	li	a0,64
80008098:	8d15                	sub	a0,a0,a3
8000809a:	00a79533          	sll	a0,a5,a0
/Local/xl_ci/toolchain/riscv-gnu-toolchain/riscv-gcc/libgcc/soft-fp/subdf3.c:46 (discriminator 123)
8000809e:	8d4d                	or	a0,a0,a1
800080a0:	00a03533          	snez	a0,a0
800080a4:	00a86533          	or	a0,a6,a0
/Local/xl_ci/toolchain/riscv-gnu-toolchain/riscv-gcc/libgcc/soft-fp/subdf3.c:46 (discriminator 111)
800080a8:	4781                	li	a5,0
800080aa:	b7e1                	j	80008072 <__subdf3+0x1ba>
800080ac:	00b7e533          	or	a0,a5,a1
800080b0:	00a03533          	snez	a0,a0
800080b4:	bfd5                	j	800080a8 <__subdf3+0x1f0>
/Local/xl_ci/toolchain/riscv-gnu-toolchain/riscv-gcc/libgcc/soft-fp/subdf3.c:46 (discriminator 72)
800080b6:	00140693          	addi	a3,s0,1 # 80001 <__stack_size+0x7f801>
800080ba:	7fe6f513          	andi	a0,a3,2046
800080be:	e13d                	bnez	a0,80008124 <__subdf3+0x26c>
/Local/xl_ci/toolchain/riscv-gnu-toolchain/riscv-gcc/libgcc/soft-fp/subdf3.c:46 (discriminator 128)
800080c0:	00b7e6b3          	or	a3,a5,a1
800080c4:	e429                	bnez	s0,8000810e <__subdf3+0x256>
/Local/xl_ci/toolchain/riscv-gnu-toolchain/riscv-gcc/libgcc/soft-fp/subdf3.c:46 (discriminator 130)
800080c6:	36068963          	beqz	a3,80008438 <__subdf3+0x580>
/Local/xl_ci/toolchain/riscv-gnu-toolchain/riscv-gcc/libgcc/soft-fp/subdf3.c:46 (discriminator 133)
800080ca:	00c766b3          	or	a3,a4,a2
800080ce:	c285                	beqz	a3,800080ee <__subdf3+0x236>
/Local/xl_ci/toolchain/riscv-gnu-toolchain/riscv-gcc/libgcc/soft-fp/subdf3.c:46 (discriminator 139)
800080d0:	962e                	add	a2,a2,a1
800080d2:	97ba                	add	a5,a5,a4
800080d4:	00b63533          	sltu	a0,a2,a1
800080d8:	97aa                	add	a5,a5,a0
800080da:	00800737          	lui	a4,0x800
800080de:	8f7d                	and	a4,a4,a5
800080e0:	85b2                	mv	a1,a2
800080e2:	c711                	beqz	a4,800080ee <__subdf3+0x236>
/Local/xl_ci/toolchain/riscv-gnu-toolchain/riscv-gcc/libgcc/soft-fp/subdf3.c:46 (discriminator 141)
800080e4:	ff800737          	lui	a4,0xff800
800080e8:	177d                	addi	a4,a4,-1
800080ea:	8ff9                	and	a5,a5,a4
800080ec:	4405                	li	s0,1
/Local/xl_ci/toolchain/riscv-gnu-toolchain/riscv-gcc/libgcc/soft-fp/subdf3.c:47 (discriminator 426)
800080ee:	0075f713          	andi	a4,a1,7
800080f2:	34070a63          	beqz	a4,80008446 <__subdf3+0x58e>
/Local/xl_ci/toolchain/riscv-gnu-toolchain/riscv-gcc/libgcc/soft-fp/subdf3.c:47 (discriminator 37)
800080f6:	00f5f713          	andi	a4,a1,15
800080fa:	4691                	li	a3,4
800080fc:	34d70563          	beq	a4,a3,80008446 <__subdf3+0x58e>
/Local/xl_ci/toolchain/riscv-gnu-toolchain/riscv-gcc/libgcc/soft-fp/subdf3.c:47 (discriminator 44)
80008100:	00458713          	addi	a4,a1,4
80008104:	00b73533          	sltu	a0,a4,a1
80008108:	97aa                	add	a5,a5,a0
8000810a:	85ba                	mv	a1,a4
8000810c:	ae2d                	j	80008446 <__subdf3+0x58e>
/Local/xl_ci/toolchain/riscv-gnu-toolchain/riscv-gcc/libgcc/soft-fp/subdf3.c:46 (discriminator 158)
8000810e:	de99                	beqz	a3,8000802c <__subdf3+0x174>
/Local/xl_ci/toolchain/riscv-gnu-toolchain/riscv-gcc/libgcc/soft-fp/subdf3.c:46 (discriminator 160)
80008110:	8e59                	or	a2,a2,a4
80008112:	e2060be3          	beqz	a2,80007f48 <__subdf3+0x90>
/Local/xl_ci/toolchain/riscv-gnu-toolchain/riscv-gcc/libgcc/soft-fp/subdf3.c:46
80008116:	4481                	li	s1,0
80008118:	004007b7          	lui	a5,0x400
8000811c:	4581                	li	a1,0
8000811e:	7ff00413          	li	s0,2047
80008122:	a615                	j	80008446 <__subdf3+0x58e>
/Local/xl_ci/toolchain/riscv-gnu-toolchain/riscv-gcc/libgcc/soft-fp/subdf3.c:46 (discriminator 129)
80008124:	7ff00513          	li	a0,2047
80008128:	30a68b63          	beq	a3,a0,8000843e <__subdf3+0x586>
/Local/xl_ci/toolchain/riscv-gnu-toolchain/riscv-gcc/libgcc/soft-fp/subdf3.c:46
8000812c:	962e                	add	a2,a2,a1
8000812e:	00b63533          	sltu	a0,a2,a1
80008132:	97ba                	add	a5,a5,a4
80008134:	97aa                	add	a5,a5,a0
80008136:	01f79513          	slli	a0,a5,0x1f
8000813a:	8205                	srli	a2,a2,0x1
8000813c:	00c565b3          	or	a1,a0,a2
80008140:	8385                	srli	a5,a5,0x1
80008142:	8436                	mv	s0,a3
80008144:	b76d                	j	800080ee <__subdf3+0x236>
/Local/xl_ci/toolchain/riscv-gnu-toolchain/riscv-gcc/libgcc/soft-fp/subdf3.c:46 (discriminator 13)
80008146:	0d005663          	blez	a6,80008212 <__subdf3+0x35a>
/Local/xl_ci/toolchain/riscv-gnu-toolchain/riscv-gcc/libgcc/soft-fp/subdf3.c:46 (discriminator 205)
8000814a:	08031163          	bnez	t1,800081cc <__subdf3+0x314>
/Local/xl_ci/toolchain/riscv-gnu-toolchain/riscv-gcc/libgcc/soft-fp/subdf3.c:46 (discriminator 207)
8000814e:	00c766b3          	or	a3,a4,a2
80008152:	34068b63          	beqz	a3,800084a8 <__subdf3+0x5f0>
/Local/xl_ci/toolchain/riscv-gnu-toolchain/riscv-gcc/libgcc/soft-fp/subdf3.c:46 (discriminator 210)
80008156:	fff80513          	addi	a0,a6,-1
8000815a:	e911                	bnez	a0,8000816e <__subdf3+0x2b6>
/Local/xl_ci/toolchain/riscv-gnu-toolchain/riscv-gcc/libgcc/soft-fp/subdf3.c:46 (discriminator 219)
8000815c:	40c58633          	sub	a2,a1,a2
80008160:	00c5b533          	sltu	a0,a1,a2
80008164:	8f99                	sub	a5,a5,a4
80008166:	8f89                	sub	a5,a5,a0
80008168:	85b2                	mv	a1,a2
/Local/xl_ci/toolchain/riscv-gnu-toolchain/riscv-gcc/libgcc/soft-fp/subdf3.c:45 (discriminator 276)
8000816a:	4405                	li	s0,1
/Local/xl_ci/toolchain/riscv-gnu-toolchain/riscv-gcc/libgcc/soft-fp/subdf3.c:46 (discriminator 276)
8000816c:	a0b1                	j	800081b8 <__subdf3+0x300>
/Local/xl_ci/toolchain/riscv-gnu-toolchain/riscv-gcc/libgcc/soft-fp/subdf3.c:46 (discriminator 220)
8000816e:	7ff00693          	li	a3,2047
80008172:	dcd80be3          	beq	a6,a3,80007f48 <__subdf3+0x90>
/Local/xl_ci/toolchain/riscv-gnu-toolchain/riscv-gcc/libgcc/soft-fp/subdf3.c:46 (discriminator 243)
80008176:	03800693          	li	a3,56
8000817a:	08a6c863          	blt	a3,a0,8000820a <__subdf3+0x352>
/Local/xl_ci/toolchain/riscv-gnu-toolchain/riscv-gcc/libgcc/soft-fp/subdf3.c:46 (discriminator 244)
8000817e:	46fd                	li	a3,31
80008180:	04a6cf63          	blt	a3,a0,800081de <__subdf3+0x326>
/Local/xl_ci/toolchain/riscv-gnu-toolchain/riscv-gcc/libgcc/soft-fp/subdf3.c:46 (discriminator 246)
80008184:	02000813          	li	a6,32
80008188:	40a80833          	sub	a6,a6,a0
8000818c:	010716b3          	sll	a3,a4,a6
80008190:	00a658b3          	srl	a7,a2,a0
80008194:	01061633          	sll	a2,a2,a6
80008198:	0116e6b3          	or	a3,a3,a7
8000819c:	00c03633          	snez	a2,a2
800081a0:	8e55                	or	a2,a2,a3
800081a2:	00a75733          	srl	a4,a4,a0
/Local/xl_ci/toolchain/riscv-gnu-toolchain/riscv-gcc/libgcc/soft-fp/subdf3.c:46 (discriminator 260)
800081a6:	40c58633          	sub	a2,a1,a2
800081aa:	00c5b533          	sltu	a0,a1,a2
800081ae:	40e78733          	sub	a4,a5,a4
800081b2:	40a707b3          	sub	a5,a4,a0
800081b6:	85b2                	mv	a1,a2
/Local/xl_ci/toolchain/riscv-gnu-toolchain/riscv-gcc/libgcc/soft-fp/subdf3.c:46 (discriminator 318)
800081b8:	00800937          	lui	s2,0x800
800081bc:	0127f733          	and	a4,a5,s2
800081c0:	d71d                	beqz	a4,800080ee <__subdf3+0x236>
/Local/xl_ci/toolchain/riscv-gnu-toolchain/riscv-gcc/libgcc/soft-fp/subdf3.c:46 (discriminator 378)
800081c2:	197d                	addi	s2,s2,-1
800081c4:	0127f933          	and	s2,a5,s2
800081c8:	89ae                	mv	s3,a1
800081ca:	aa5d                	j	80008380 <__subdf3+0x4c8>
/Local/xl_ci/toolchain/riscv-gnu-toolchain/riscv-gcc/libgcc/soft-fp/subdf3.c:46 (discriminator 208)
800081cc:	7ff00693          	li	a3,2047
800081d0:	f0d40fe3          	beq	s0,a3,800080ee <__subdf3+0x236>
/Local/xl_ci/toolchain/riscv-gnu-toolchain/riscv-gcc/libgcc/soft-fp/subdf3.c:46 (discriminator 234)
800081d4:	008006b7          	lui	a3,0x800
800081d8:	8f55                	or	a4,a4,a3
800081da:	8542                	mv	a0,a6
800081dc:	bf69                	j	80008176 <__subdf3+0x2be>
/Local/xl_ci/toolchain/riscv-gnu-toolchain/riscv-gcc/libgcc/soft-fp/subdf3.c:46 (discriminator 247)
800081de:	fe050693          	addi	a3,a0,-32
800081e2:	02000893          	li	a7,32
800081e6:	00d756b3          	srl	a3,a4,a3
800081ea:	4801                	li	a6,0
800081ec:	01150863          	beq	a0,a7,800081fc <__subdf3+0x344>
/Local/xl_ci/toolchain/riscv-gnu-toolchain/riscv-gcc/libgcc/soft-fp/subdf3.c:46 (discriminator 254)
800081f0:	04000813          	li	a6,64
800081f4:	40a80533          	sub	a0,a6,a0
800081f8:	00a71833          	sll	a6,a4,a0
/Local/xl_ci/toolchain/riscv-gnu-toolchain/riscv-gcc/libgcc/soft-fp/subdf3.c:46 (discriminator 257)
800081fc:	00c86633          	or	a2,a6,a2
80008200:	00c03633          	snez	a2,a2
80008204:	8e55                	or	a2,a2,a3
/Local/xl_ci/toolchain/riscv-gnu-toolchain/riscv-gcc/libgcc/soft-fp/subdf3.c:46 (discriminator 245)
80008206:	4701                	li	a4,0
80008208:	bf79                	j	800081a6 <__subdf3+0x2ee>
8000820a:	8e59                	or	a2,a2,a4
8000820c:	00c03633          	snez	a2,a2
80008210:	bfdd                	j	80008206 <__subdf3+0x34e>
/Local/xl_ci/toolchain/riscv-gnu-toolchain/riscv-gcc/libgcc/soft-fp/subdf3.c:46 (discriminator 206)
80008212:	0c080563          	beqz	a6,800082dc <__subdf3+0x424>
/Local/xl_ci/toolchain/riscv-gnu-toolchain/riscv-gcc/libgcc/soft-fp/subdf3.c:46 (discriminator 262)
80008216:	40830533          	sub	a0,t1,s0
8000821a:	e81d                	bnez	s0,80008250 <__subdf3+0x398>
/Local/xl_ci/toolchain/riscv-gnu-toolchain/riscv-gcc/libgcc/soft-fp/subdf3.c:46 (discriminator 264)
8000821c:	00b7e833          	or	a6,a5,a1
80008220:	28080663          	beqz	a6,800084ac <__subdf3+0x5f4>
/Local/xl_ci/toolchain/riscv-gnu-toolchain/riscv-gcc/libgcc/soft-fp/subdf3.c:46 (discriminator 267)
80008224:	fff50813          	addi	a6,a0,-1
80008228:	00081b63          	bnez	a6,8000823e <__subdf3+0x386>
/Local/xl_ci/toolchain/riscv-gnu-toolchain/riscv-gcc/libgcc/soft-fp/subdf3.c:46 (discriminator 276)
8000822c:	40b605b3          	sub	a1,a2,a1
80008230:	40f707b3          	sub	a5,a4,a5
80008234:	00b63633          	sltu	a2,a2,a1
80008238:	8f91                	sub	a5,a5,a2
8000823a:	84b6                	mv	s1,a3
8000823c:	b73d                	j	8000816a <__subdf3+0x2b2>
/Local/xl_ci/toolchain/riscv-gnu-toolchain/riscv-gcc/libgcc/soft-fp/subdf3.c:46 (discriminator 277)
8000823e:	7ff00893          	li	a7,2047
80008242:	03151063          	bne	a0,a7,80008262 <__subdf3+0x3aa>
/Local/xl_ci/toolchain/riscv-gnu-toolchain/riscv-gcc/libgcc/soft-fp/subdf3.c:45
80008246:	87ba                	mv	a5,a4
80008248:	85b2                	mv	a1,a2
/Local/xl_ci/toolchain/riscv-gnu-toolchain/riscv-gcc/libgcc/soft-fp/subdf3.c:46
8000824a:	7ff00413          	li	s0,2047
8000824e:	a07d                	j	800082fc <__subdf3+0x444>
/Local/xl_ci/toolchain/riscv-gnu-toolchain/riscv-gcc/libgcc/soft-fp/subdf3.c:46 (discriminator 265)
80008250:	7ff00813          	li	a6,2047
80008254:	ff0309e3          	beq	t1,a6,80008246 <__subdf3+0x38e>
/Local/xl_ci/toolchain/riscv-gnu-toolchain/riscv-gcc/libgcc/soft-fp/subdf3.c:46 (discriminator 291)
80008258:	00800837          	lui	a6,0x800
8000825c:	0107e7b3          	or	a5,a5,a6
80008260:	882a                	mv	a6,a0
/Local/xl_ci/toolchain/riscv-gnu-toolchain/riscv-gcc/libgcc/soft-fp/subdf3.c:46 (discriminator 300)
80008262:	03800513          	li	a0,56
80008266:	07054663          	blt	a0,a6,800082d2 <__subdf3+0x41a>
/Local/xl_ci/toolchain/riscv-gnu-toolchain/riscv-gcc/libgcc/soft-fp/subdf3.c:46 (discriminator 301)
8000826a:	457d                	li	a0,31
8000826c:	03054d63          	blt	a0,a6,800082a6 <__subdf3+0x3ee>
/Local/xl_ci/toolchain/riscv-gnu-toolchain/riscv-gcc/libgcc/soft-fp/subdf3.c:46 (discriminator 303)
80008270:	02000893          	li	a7,32
80008274:	410888b3          	sub	a7,a7,a6
80008278:	01179533          	sll	a0,a5,a7
8000827c:	0105de33          	srl	t3,a1,a6
80008280:	011595b3          	sll	a1,a1,a7
80008284:	01c56533          	or	a0,a0,t3
80008288:	00b035b3          	snez	a1,a1
8000828c:	8d4d                	or	a0,a0,a1
8000828e:	0107d7b3          	srl	a5,a5,a6
/Local/xl_ci/toolchain/riscv-gnu-toolchain/riscv-gcc/libgcc/soft-fp/subdf3.c:46 (discriminator 317)
80008292:	40a605b3          	sub	a1,a2,a0
80008296:	40f707b3          	sub	a5,a4,a5
8000829a:	00b63633          	sltu	a2,a2,a1
8000829e:	8f91                	sub	a5,a5,a2
/Local/xl_ci/toolchain/riscv-gnu-toolchain/riscv-gcc/libgcc/soft-fp/subdf3.c:45 (discriminator 317)
800082a0:	841a                	mv	s0,t1
800082a2:	84b6                	mv	s1,a3
800082a4:	bf11                	j	800081b8 <__subdf3+0x300>
/Local/xl_ci/toolchain/riscv-gnu-toolchain/riscv-gcc/libgcc/soft-fp/subdf3.c:46 (discriminator 304)
800082a6:	fe080513          	addi	a0,a6,-32 # 7fffe0 <__stack_size+0x7ff7e0>
800082aa:	02000e13          	li	t3,32
800082ae:	00a7d8b3          	srl	a7,a5,a0
800082b2:	4501                	li	a0,0
800082b4:	01c80863          	beq	a6,t3,800082c4 <__subdf3+0x40c>
/Local/xl_ci/toolchain/riscv-gnu-toolchain/riscv-gcc/libgcc/soft-fp/subdf3.c:46 (discriminator 311)
800082b8:	04000513          	li	a0,64
800082bc:	41050533          	sub	a0,a0,a6
800082c0:	00a79533          	sll	a0,a5,a0
/Local/xl_ci/toolchain/riscv-gnu-toolchain/riscv-gcc/libgcc/soft-fp/subdf3.c:46 (discriminator 314)
800082c4:	8d4d                	or	a0,a0,a1
800082c6:	00a03533          	snez	a0,a0
800082ca:	00a8e533          	or	a0,a7,a0
/Local/xl_ci/toolchain/riscv-gnu-toolchain/riscv-gcc/libgcc/soft-fp/subdf3.c:46 (discriminator 302)
800082ce:	4781                	li	a5,0
800082d0:	b7c9                	j	80008292 <__subdf3+0x3da>
800082d2:	00b7e533          	or	a0,a5,a1
800082d6:	00a03533          	snez	a0,a0
800082da:	bfd5                	j	800082ce <__subdf3+0x416>
/Local/xl_ci/toolchain/riscv-gnu-toolchain/riscv-gcc/libgcc/soft-fp/subdf3.c:46 (discriminator 263)
800082dc:	00140513          	addi	a0,s0,1
800082e0:	7fe57513          	andi	a0,a0,2046
800082e4:	e925                	bnez	a0,80008354 <__subdf3+0x49c>
/Local/xl_ci/toolchain/riscv-gnu-toolchain/riscv-gcc/libgcc/soft-fp/subdf3.c:46 (discriminator 319)
800082e6:	00b7e833          	or	a6,a5,a1
800082ea:	00c76533          	or	a0,a4,a2
800082ee:	e821                	bnez	s0,8000833e <__subdf3+0x486>
/Local/xl_ci/toolchain/riscv-gnu-toolchain/riscv-gcc/libgcc/soft-fp/subdf3.c:46 (discriminator 321)
800082f0:	00081863          	bnez	a6,80008300 <__subdf3+0x448>
/Local/xl_ci/toolchain/riscv-gnu-toolchain/riscv-gcc/libgcc/soft-fp/subdf3.c:46 (discriminator 323)
800082f4:	1c050063          	beqz	a0,800084b4 <__subdf3+0x5fc>
/Local/xl_ci/toolchain/riscv-gnu-toolchain/riscv-gcc/libgcc/soft-fp/subdf3.c:45
800082f8:	87ba                	mv	a5,a4
800082fa:	85b2                	mv	a1,a2
800082fc:	84b6                	mv	s1,a3
800082fe:	bbc5                	j	800080ee <__subdf3+0x236>
/Local/xl_ci/toolchain/riscv-gnu-toolchain/riscv-gcc/libgcc/soft-fp/subdf3.c:46 (discriminator 324)
80008300:	de0507e3          	beqz	a0,800080ee <__subdf3+0x236>
/Local/xl_ci/toolchain/riscv-gnu-toolchain/riscv-gcc/libgcc/soft-fp/subdf3.c:46 (discriminator 331)
80008304:	40c58833          	sub	a6,a1,a2
80008308:	0105b8b3          	sltu	a7,a1,a6
8000830c:	40e78533          	sub	a0,a5,a4
80008310:	41150533          	sub	a0,a0,a7
80008314:	008008b7          	lui	a7,0x800
80008318:	011578b3          	and	a7,a0,a7
8000831c:	00088a63          	beqz	a7,80008330 <__subdf3+0x478>
/Local/xl_ci/toolchain/riscv-gnu-toolchain/riscv-gcc/libgcc/soft-fp/subdf3.c:46 (discriminator 333)
80008320:	40b605b3          	sub	a1,a2,a1
80008324:	40f707b3          	sub	a5,a4,a5
80008328:	00b63633          	sltu	a2,a2,a1
8000832c:	8f91                	sub	a5,a5,a2
8000832e:	b7f9                	j	800082fc <__subdf3+0x444>
/Local/xl_ci/toolchain/riscv-gnu-toolchain/riscv-gcc/libgcc/soft-fp/subdf3.c:46 (discriminator 334)
80008330:	00a865b3          	or	a1,a6,a0
80008334:	18058463          	beqz	a1,800084bc <__subdf3+0x604>
/Local/xl_ci/toolchain/riscv-gnu-toolchain/riscv-gcc/libgcc/soft-fp/subdf3.c:46
80008338:	87aa                	mv	a5,a0
8000833a:	85c2                	mv	a1,a6
8000833c:	bb4d                	j	800080ee <__subdf3+0x236>
/Local/xl_ci/toolchain/riscv-gnu-toolchain/riscv-gcc/libgcc/soft-fp/subdf3.c:46 (discriminator 353)
8000833e:	00081863          	bnez	a6,8000834e <__subdf3+0x496>
/Local/xl_ci/toolchain/riscv-gnu-toolchain/riscv-gcc/libgcc/soft-fp/subdf3.c:46 (discriminator 354)
80008342:	16050f63          	beqz	a0,800084c0 <__subdf3+0x608>
/Local/xl_ci/toolchain/riscv-gnu-toolchain/riscv-gcc/libgcc/soft-fp/subdf3.c:45
80008346:	87ba                	mv	a5,a4
80008348:	85b2                	mv	a1,a2
/Local/xl_ci/toolchain/riscv-gnu-toolchain/riscv-gcc/libgcc/soft-fp/subdf3.c:46
8000834a:	84b6                	mv	s1,a3
8000834c:	bef5                	j	80007f48 <__subdf3+0x90>
/Local/xl_ci/toolchain/riscv-gnu-toolchain/riscv-gcc/libgcc/soft-fp/subdf3.c:46 (discriminator 355)
8000834e:	be050de3          	beqz	a0,80007f48 <__subdf3+0x90>
80008352:	b3d1                	j	80008116 <__subdf3+0x25e>
/Local/xl_ci/toolchain/riscv-gnu-toolchain/riscv-gcc/libgcc/soft-fp/subdf3.c:46 (discriminator 320)
80008354:	40c589b3          	sub	s3,a1,a2
80008358:	0135b533          	sltu	a0,a1,s3
8000835c:	40e78933          	sub	s2,a5,a4
80008360:	40a90933          	sub	s2,s2,a0
80008364:	00800537          	lui	a0,0x800
80008368:	00a97533          	and	a0,s2,a0
8000836c:	c53d                	beqz	a0,800083da <__subdf3+0x522>
/Local/xl_ci/toolchain/riscv-gnu-toolchain/riscv-gcc/libgcc/soft-fp/subdf3.c:46 (discriminator 371)
8000836e:	40b609b3          	sub	s3,a2,a1
80008372:	40f707b3          	sub	a5,a4,a5
80008376:	01363633          	sltu	a2,a2,s3
8000837a:	40c78933          	sub	s2,a5,a2
8000837e:	84b6                	mv	s1,a3
/Local/xl_ci/toolchain/riscv-gnu-toolchain/riscv-gcc/libgcc/soft-fp/subdf3.c:46 (discriminator 380)
80008380:	06090363          	beqz	s2,800083e6 <__subdf3+0x52e>
/Local/xl_ci/toolchain/riscv-gnu-toolchain/riscv-gcc/libgcc/soft-fp/subdf3.c:46 (discriminator 383)
80008384:	854a                	mv	a0,s2
80008386:	29e1                	jal	8000885e <__clzsi2>
/Local/xl_ci/toolchain/riscv-gnu-toolchain/riscv-gcc/libgcc/soft-fp/subdf3.c:46 (discriminator 397)
80008388:	ff850713          	addi	a4,a0,-8 # 7ffff8 <__stack_size+0x7ff7f8>
8000838c:	47fd                	li	a5,31
8000838e:	06e7c163          	blt	a5,a4,800083f0 <__subdf3+0x538>
/Local/xl_ci/toolchain/riscv-gnu-toolchain/riscv-gcc/libgcc/soft-fp/subdf3.c:46 (discriminator 403)
80008392:	02000793          	li	a5,32
80008396:	8f99                	sub	a5,a5,a4
80008398:	00e91933          	sll	s2,s2,a4
8000839c:	00f9d7b3          	srl	a5,s3,a5
800083a0:	0127e7b3          	or	a5,a5,s2
800083a4:	00e995b3          	sll	a1,s3,a4
/Local/xl_ci/toolchain/riscv-gnu-toolchain/riscv-gcc/libgcc/soft-fp/subdf3.c:46 (discriminator 407)
800083a8:	06874e63          	blt	a4,s0,80008424 <__subdf3+0x56c>
/Local/xl_ci/toolchain/riscv-gnu-toolchain/riscv-gcc/libgcc/soft-fp/subdf3.c:46 (discriminator 408)
800083ac:	8f01                	sub	a4,a4,s0
800083ae:	00170693          	addi	a3,a4,1 # ff800001 <_sp+0x6f7f0001>
800083b2:	467d                	li	a2,31
800083b4:	04d64463          	blt	a2,a3,800083fc <__subdf3+0x544>
/Local/xl_ci/toolchain/riscv-gnu-toolchain/riscv-gcc/libgcc/soft-fp/subdf3.c:46 (discriminator 410)
800083b8:	02000713          	li	a4,32
800083bc:	8f15                	sub	a4,a4,a3
800083be:	00e79633          	sll	a2,a5,a4
800083c2:	00d5d533          	srl	a0,a1,a3
800083c6:	00e595b3          	sll	a1,a1,a4
800083ca:	8e49                	or	a2,a2,a0
800083cc:	00b035b3          	snez	a1,a1
800083d0:	8dd1                	or	a1,a1,a2
800083d2:	00d7d7b3          	srl	a5,a5,a3
/Local/xl_ci/toolchain/riscv-gnu-toolchain/riscv-gcc/libgcc/soft-fp/subdf3.c:46 (discriminator 422)
800083d6:	4401                	li	s0,0
800083d8:	bb19                	j	800080ee <__subdf3+0x236>
/Local/xl_ci/toolchain/riscv-gnu-toolchain/riscv-gcc/libgcc/soft-fp/subdf3.c:46 (discriminator 372)
800083da:	0129e5b3          	or	a1,s3,s2
800083de:	f1cd                	bnez	a1,80008380 <__subdf3+0x4c8>
800083e0:	4781                	li	a5,0
/Local/xl_ci/toolchain/riscv-gnu-toolchain/riscv-gcc/libgcc/soft-fp/subdf3.c:46
800083e2:	4401                	li	s0,0
800083e4:	a8d1                	j	800084b8 <__subdf3+0x600>
/Local/xl_ci/toolchain/riscv-gnu-toolchain/riscv-gcc/libgcc/soft-fp/subdf3.c:46 (discriminator 390)
800083e6:	854e                	mv	a0,s3
800083e8:	299d                	jal	8000885e <__clzsi2>
800083ea:	02050513          	addi	a0,a0,32
800083ee:	bf69                	j	80008388 <__subdf3+0x4d0>
/Local/xl_ci/toolchain/riscv-gnu-toolchain/riscv-gcc/libgcc/soft-fp/subdf3.c:46 (discriminator 399)
800083f0:	fd850793          	addi	a5,a0,-40
800083f4:	00f997b3          	sll	a5,s3,a5
800083f8:	4581                	li	a1,0
800083fa:	b77d                	j	800083a8 <__subdf3+0x4f0>
/Local/xl_ci/toolchain/riscv-gnu-toolchain/riscv-gcc/libgcc/soft-fp/subdf3.c:46 (discriminator 411)
800083fc:	1705                	addi	a4,a4,-31
800083fe:	02000613          	li	a2,32
80008402:	00e7d733          	srl	a4,a5,a4
80008406:	4501                	li	a0,0
80008408:	00c68763          	beq	a3,a2,80008416 <__subdf3+0x55e>
/Local/xl_ci/toolchain/riscv-gnu-toolchain/riscv-gcc/libgcc/soft-fp/subdf3.c:46 (discriminator 419)
8000840c:	04000513          	li	a0,64
80008410:	8d15                	sub	a0,a0,a3
80008412:	00a79533          	sll	a0,a5,a0
/Local/xl_ci/toolchain/riscv-gnu-toolchain/riscv-gcc/libgcc/soft-fp/subdf3.c:46 (discriminator 422)
80008416:	8d4d                	or	a0,a0,a1
80008418:	00a03533          	snez	a0,a0
8000841c:	00a765b3          	or	a1,a4,a0
80008420:	4781                	li	a5,0
80008422:	bf55                	j	800083d6 <__subdf3+0x51e>
/Local/xl_ci/toolchain/riscv-gnu-toolchain/riscv-gcc/libgcc/soft-fp/subdf3.c:46 (discriminator 409)
80008424:	8c19                	sub	s0,s0,a4
80008426:	ff800737          	lui	a4,0xff800
8000842a:	177d                	addi	a4,a4,-1
8000842c:	8ff9                	and	a5,a5,a4
8000842e:	b1c1                	j	800080ee <__subdf3+0x236>
/Local/xl_ci/toolchain/riscv-gnu-toolchain/riscv-gcc/libgcc/soft-fp/subdf3.c:45
80008430:	87ba                	mv	a5,a4
80008432:	85b2                	mv	a1,a2
/Local/xl_ci/toolchain/riscv-gnu-toolchain/riscv-gcc/libgcc/soft-fp/subdf3.c:46
80008434:	842a                	mv	s0,a0
80008436:	b965                	j	800080ee <__subdf3+0x236>
/Local/xl_ci/toolchain/riscv-gnu-toolchain/riscv-gcc/libgcc/soft-fp/subdf3.c:45
80008438:	87ba                	mv	a5,a4
8000843a:	85b2                	mv	a1,a2
8000843c:	b94d                	j	800080ee <__subdf3+0x236>
8000843e:	7ff00413          	li	s0,2047
80008442:	4781                	li	a5,0
80008444:	4581                	li	a1,0
/Local/xl_ci/toolchain/riscv-gnu-toolchain/riscv-gcc/libgcc/soft-fp/subdf3.c:47 (discriminator 47)
80008446:	00800737          	lui	a4,0x800
8000844a:	8f7d                	and	a4,a4,a5
8000844c:	cb11                	beqz	a4,80008460 <__subdf3+0x5a8>
/Local/xl_ci/toolchain/riscv-gnu-toolchain/riscv-gcc/libgcc/soft-fp/subdf3.c:47 (discriminator 63)
8000844e:	0405                	addi	s0,s0,1
80008450:	7ff00713          	li	a4,2047
80008454:	06e40b63          	beq	s0,a4,800084ca <__subdf3+0x612>
/Local/xl_ci/toolchain/riscv-gnu-toolchain/riscv-gcc/libgcc/soft-fp/subdf3.c:47
80008458:	ff800737          	lui	a4,0xff800
8000845c:	177d                	addi	a4,a4,-1
8000845e:	8ff9                	and	a5,a5,a4
/Local/xl_ci/toolchain/riscv-gnu-toolchain/riscv-gcc/libgcc/soft-fp/subdf3.c:47 (discriminator 79)
80008460:	01d79713          	slli	a4,a5,0x1d
80008464:	0035d513          	srli	a0,a1,0x3
80008468:	8d59                	or	a0,a0,a4
8000846a:	7ff00713          	li	a4,2047
8000846e:	838d                	srli	a5,a5,0x3
80008470:	00e41963          	bne	s0,a4,80008482 <__subdf3+0x5ca>
/Local/xl_ci/toolchain/riscv-gnu-toolchain/riscv-gcc/libgcc/soft-fp/subdf3.c:47 (discriminator 80)
80008474:	8d5d                	or	a0,a0,a5
80008476:	4781                	li	a5,0
80008478:	c509                	beqz	a0,80008482 <__subdf3+0x5ca>
/Local/xl_ci/toolchain/riscv-gnu-toolchain/riscv-gcc/libgcc/soft-fp/subdf3.c:47
8000847a:	000807b7          	lui	a5,0x80
8000847e:	4501                	li	a0,0
80008480:	4481                	li	s1,0
/Local/xl_ci/toolchain/riscv-gnu-toolchain/riscv-gcc/libgcc/soft-fp/subdf3.c:47 (discriminator 90)
80008482:	01441713          	slli	a4,s0,0x14
80008486:	7ff006b7          	lui	a3,0x7ff00
8000848a:	07b2                	slli	a5,a5,0xc
/Local/xl_ci/toolchain/riscv-gnu-toolchain/riscv-gcc/libgcc/soft-fp/subdf3.c:51 (discriminator 90)
8000848c:	40f2                	lw	ra,28(sp)
8000848e:	4462                	lw	s0,24(sp)
/Local/xl_ci/toolchain/riscv-gnu-toolchain/riscv-gcc/libgcc/soft-fp/subdf3.c:47 (discriminator 90)
80008490:	8f75                	and	a4,a4,a3
80008492:	83b1                	srli	a5,a5,0xc
80008494:	04fe                	slli	s1,s1,0x1f
80008496:	8fd9                	or	a5,a5,a4
80008498:	0097e733          	or	a4,a5,s1
/Local/xl_ci/toolchain/riscv-gnu-toolchain/riscv-gcc/libgcc/soft-fp/subdf3.c:51 (discriminator 90)
8000849c:	4942                	lw	s2,16(sp)
8000849e:	44d2                	lw	s1,20(sp)
800084a0:	49b2                	lw	s3,12(sp)
800084a2:	85ba                	mv	a1,a4
800084a4:	6105                	addi	sp,sp,32
800084a6:	8082                	ret
800084a8:	8442                	mv	s0,a6
800084aa:	b191                	j	800080ee <__subdf3+0x236>
/Local/xl_ci/toolchain/riscv-gnu-toolchain/riscv-gcc/libgcc/soft-fp/subdf3.c:45
800084ac:	87ba                	mv	a5,a4
800084ae:	85b2                	mv	a1,a2
/Local/xl_ci/toolchain/riscv-gnu-toolchain/riscv-gcc/libgcc/soft-fp/subdf3.c:46
800084b0:	842a                	mv	s0,a0
800084b2:	b5a9                	j	800082fc <__subdf3+0x444>
800084b4:	4781                	li	a5,0
800084b6:	4581                	li	a1,0
800084b8:	4481                	li	s1,0
800084ba:	b771                	j	80008446 <__subdf3+0x58e>
800084bc:	4781                	li	a5,0
800084be:	bfed                	j	800084b8 <__subdf3+0x600>
800084c0:	4581                	li	a1,0
800084c2:	4481                	li	s1,0
800084c4:	004007b7          	lui	a5,0x400
800084c8:	b999                	j	8000811e <__subdf3+0x266>
800084ca:	4781                	li	a5,0
800084cc:	4581                	li	a1,0
800084ce:	bf49                	j	80008460 <__subdf3+0x5a8>

800084d0 <__unorddf2>:
__unorddf2():
/Local/xl_ci/toolchain/riscv-gnu-toolchain/riscv-gcc/libgcc/soft-fp/unorddf2.c:42
800084d0:	00100737          	lui	a4,0x100
800084d4:	fff70793          	addi	a5,a4,-1 # fffff <__stack_size+0xff7ff>
800084d8:	00b7f733          	and	a4,a5,a1
800084dc:	81d1                	srli	a1,a1,0x14
/Local/xl_ci/toolchain/riscv-gnu-toolchain/riscv-gcc/libgcc/soft-fp/unorddf2.c:43
800084de:	8ff5                	and	a5,a5,a3
/Local/xl_ci/toolchain/riscv-gnu-toolchain/riscv-gcc/libgcc/soft-fp/unorddf2.c:42
800084e0:	7ff5f593          	andi	a1,a1,2047
/Local/xl_ci/toolchain/riscv-gnu-toolchain/riscv-gcc/libgcc/soft-fp/unorddf2.c:43
800084e4:	82d1                	srli	a3,a3,0x14
/Local/xl_ci/toolchain/riscv-gnu-toolchain/riscv-gcc/libgcc/soft-fp/unorddf2.c:44
800084e6:	7ff00813          	li	a6,2047
/Local/xl_ci/toolchain/riscv-gnu-toolchain/riscv-gcc/libgcc/soft-fp/unorddf2.c:43
800084ea:	7ff6f693          	andi	a3,a3,2047
/Local/xl_ci/toolchain/riscv-gnu-toolchain/riscv-gcc/libgcc/soft-fp/unorddf2.c:44
800084ee:	01059563          	bne	a1,a6,800084f8 <__unorddf2+0x28>
/Local/xl_ci/toolchain/riscv-gnu-toolchain/riscv-gcc/libgcc/soft-fp/unorddf2.c:44 (discriminator 20)
800084f2:	8f49                	or	a4,a4,a0
800084f4:	4505                	li	a0,1
800084f6:	eb09                	bnez	a4,80008508 <__unorddf2+0x38>
/Local/xl_ci/toolchain/riscv-gnu-toolchain/riscv-gcc/libgcc/soft-fp/unorddf2.c:44 (discriminator 23)
800084f8:	7ff00713          	li	a4,2047
800084fc:	4501                	li	a0,0
800084fe:	00e69563          	bne	a3,a4,80008508 <__unorddf2+0x38>
/Local/xl_ci/toolchain/riscv-gnu-toolchain/riscv-gcc/libgcc/soft-fp/unorddf2.c:44 (discriminator 24)
80008502:	8fd1                	or	a5,a5,a2
80008504:	00f03533          	snez	a0,a5
/Local/xl_ci/toolchain/riscv-gnu-toolchain/riscv-gcc/libgcc/soft-fp/unorddf2.c:48
80008508:	8082                	ret

8000850a <__fixdfsi>:
__fixdfsi():
/Local/xl_ci/toolchain/riscv-gnu-toolchain/riscv-gcc/libgcc/soft-fp/fixdfsi.c:42
8000850a:	0145d713          	srli	a4,a1,0x14
8000850e:	001006b7          	lui	a3,0x100
80008512:	fff68793          	addi	a5,a3,-1 # fffff <__stack_size+0xff7ff>
80008516:	7ff77713          	andi	a4,a4,2047
/Local/xl_ci/toolchain/riscv-gnu-toolchain/riscv-gcc/libgcc/soft-fp/fixdfsi.c:43
8000851a:	3fe00613          	li	a2,1022
/Local/xl_ci/toolchain/riscv-gnu-toolchain/riscv-gcc/libgcc/soft-fp/fixdfsi.c:42
8000851e:	8fed                	and	a5,a5,a1
80008520:	81fd                	srli	a1,a1,0x1f
/Local/xl_ci/toolchain/riscv-gnu-toolchain/riscv-gcc/libgcc/soft-fp/fixdfsi.c:43
80008522:	04e65463          	bge	a2,a4,8000856a <__fixdfsi+0x60>
/Local/xl_ci/toolchain/riscv-gnu-toolchain/riscv-gcc/libgcc/soft-fp/fixdfsi.c:43 (discriminator 10)
80008526:	41d00613          	li	a2,1053
8000852a:	00e65863          	bge	a2,a4,8000853a <__fixdfsi+0x30>
/Local/xl_ci/toolchain/riscv-gnu-toolchain/riscv-gcc/libgcc/soft-fp/fixdfsi.c:43 (discriminator 14)
8000852e:	80000537          	lui	a0,0x80000
80008532:	fff54513          	not	a0,a0
80008536:	952e                	add	a0,a0,a1
80008538:	8082                	ret
/Local/xl_ci/toolchain/riscv-gnu-toolchain/riscv-gcc/libgcc/soft-fp/fixdfsi.c:43 (discriminator 13)
8000853a:	8fd5                	or	a5,a5,a3
8000853c:	43300693          	li	a3,1075
80008540:	8e99                	sub	a3,a3,a4
80008542:	467d                	li	a2,31
80008544:	00d64d63          	blt	a2,a3,8000855e <__fixdfsi+0x54>
/Local/xl_ci/toolchain/riscv-gnu-toolchain/riscv-gcc/libgcc/soft-fp/fixdfsi.c:43 (discriminator 30)
80008548:	bed70713          	addi	a4,a4,-1043
8000854c:	00e797b3          	sll	a5,a5,a4
80008550:	00d55533          	srl	a0,a0,a3
80008554:	8d5d                	or	a0,a0,a5
/Local/xl_ci/toolchain/riscv-gnu-toolchain/riscv-gcc/libgcc/soft-fp/fixdfsi.c:43 (discriminator 43)
80008556:	c999                	beqz	a1,8000856c <__fixdfsi+0x62>
/Local/xl_ci/toolchain/riscv-gnu-toolchain/riscv-gcc/libgcc/soft-fp/fixdfsi.c:43 (discriminator 45)
80008558:	40a00533          	neg	a0,a0
8000855c:	8082                	ret
/Local/xl_ci/toolchain/riscv-gnu-toolchain/riscv-gcc/libgcc/soft-fp/fixdfsi.c:43 (discriminator 42)
8000855e:	41300513          	li	a0,1043
80008562:	8d19                	sub	a0,a0,a4
80008564:	00a7d533          	srl	a0,a5,a0
80008568:	b7fd                	j	80008556 <__fixdfsi+0x4c>
/Local/xl_ci/toolchain/riscv-gnu-toolchain/riscv-gcc/libgcc/soft-fp/fixdfsi.c:43
8000856a:	4501                	li	a0,0
/Local/xl_ci/toolchain/riscv-gnu-toolchain/riscv-gcc/libgcc/soft-fp/fixdfsi.c:47 (discriminator 59)
8000856c:	8082                	ret

8000856e <__floatsidf>:
__floatsidf():
/Local/xl_ci/toolchain/riscv-gnu-toolchain/riscv-gcc/libgcc/soft-fp/floatsidf.c:37
8000856e:	1141                	addi	sp,sp,-16
80008570:	c606                	sw	ra,12(sp)
80008572:	c422                	sw	s0,8(sp)
80008574:	c226                	sw	s1,4(sp)
/Local/xl_ci/toolchain/riscv-gnu-toolchain/riscv-gcc/libgcc/soft-fp/floatsidf.c:41
80008576:	cd21                	beqz	a0,800085ce <__floatsidf+0x60>
/Local/xl_ci/toolchain/riscv-gnu-toolchain/riscv-gcc/libgcc/soft-fp/floatsidf.c:41 (discriminator 1)
80008578:	41f55793          	srai	a5,a0,0x1f
8000857c:	00a7c433          	xor	s0,a5,a0
80008580:	8c1d                	sub	s0,s0,a5
80008582:	01f55493          	srli	s1,a0,0x1f
80008586:	8522                	mv	a0,s0
80008588:	2cd9                	jal	8000885e <__clzsi2>
8000858a:	41e00713          	li	a4,1054
8000858e:	47a9                	li	a5,10
80008590:	8f09                	sub	a4,a4,a0
80008592:	02a7c863          	blt	a5,a0,800085c2 <__floatsidf+0x54>
/Local/xl_ci/toolchain/riscv-gnu-toolchain/riscv-gcc/libgcc/soft-fp/floatsidf.c:41 (discriminator 23)
80008596:	47ad                	li	a5,11
80008598:	8f89                	sub	a5,a5,a0
8000859a:	0555                	addi	a0,a0,21
8000859c:	00f457b3          	srl	a5,s0,a5
800085a0:	00a41433          	sll	s0,s0,a0
800085a4:	8526                	mv	a0,s1
/Local/xl_ci/toolchain/riscv-gnu-toolchain/riscv-gcc/libgcc/soft-fp/floatsidf.c:42 (discriminator 126)
800085a6:	07b2                	slli	a5,a5,0xc
800085a8:	0752                	slli	a4,a4,0x14
800085aa:	83b1                	srli	a5,a5,0xc
800085ac:	057e                	slli	a0,a0,0x1f
800085ae:	8fd9                	or	a5,a5,a4
/Local/xl_ci/toolchain/riscv-gnu-toolchain/riscv-gcc/libgcc/soft-fp/floatsidf.c:45 (discriminator 126)
800085b0:	40b2                	lw	ra,12(sp)
/Local/xl_ci/toolchain/riscv-gnu-toolchain/riscv-gcc/libgcc/soft-fp/floatsidf.c:42 (discriminator 126)
800085b2:	00a7e733          	or	a4,a5,a0
/Local/xl_ci/toolchain/riscv-gnu-toolchain/riscv-gcc/libgcc/soft-fp/floatsidf.c:45 (discriminator 126)
800085b6:	8522                	mv	a0,s0
800085b8:	4422                	lw	s0,8(sp)
800085ba:	4492                	lw	s1,4(sp)
800085bc:	85ba                	mv	a1,a4
800085be:	0141                	addi	sp,sp,16
800085c0:	8082                	ret
/Local/xl_ci/toolchain/riscv-gnu-toolchain/riscv-gcc/libgcc/soft-fp/floatsidf.c:41 (discriminator 24)
800085c2:	1555                	addi	a0,a0,-11
800085c4:	00a417b3          	sll	a5,s0,a0
800085c8:	8526                	mv	a0,s1
/Local/xl_ci/toolchain/riscv-gnu-toolchain/riscv-gcc/libgcc/soft-fp/floatsidf.c:41
800085ca:	4401                	li	s0,0
800085cc:	bfe9                	j	800085a6 <__floatsidf+0x38>
800085ce:	4701                	li	a4,0
800085d0:	4781                	li	a5,0
800085d2:	bfe5                	j	800085ca <__floatsidf+0x5c>

800085d4 <__floatunsidf>:
__floatunsidf():
/Local/xl_ci/toolchain/riscv-gnu-toolchain/riscv-gcc/libgcc/soft-fp/floatunsidf.c:37
800085d4:	1141                	addi	sp,sp,-16
800085d6:	c422                	sw	s0,8(sp)
800085d8:	c606                	sw	ra,12(sp)
800085da:	842a                	mv	s0,a0
/Local/xl_ci/toolchain/riscv-gnu-toolchain/riscv-gcc/libgcc/soft-fp/floatunsidf.c:41
800085dc:	c121                	beqz	a0,8000861c <__floatunsidf+0x48>
/Local/xl_ci/toolchain/riscv-gnu-toolchain/riscv-gcc/libgcc/soft-fp/floatunsidf.c:41 (discriminator 6)
800085de:	2441                	jal	8000885e <__clzsi2>
800085e0:	41e00713          	li	a4,1054
800085e4:	47a9                	li	a5,10
800085e6:	8f09                	sub	a4,a4,a0
800085e8:	02a7c463          	blt	a5,a0,80008610 <__floatunsidf+0x3c>
/Local/xl_ci/toolchain/riscv-gnu-toolchain/riscv-gcc/libgcc/soft-fp/floatunsidf.c:41 (discriminator 23)
800085ec:	47ad                	li	a5,11
800085ee:	8f89                	sub	a5,a5,a0
800085f0:	0555                	addi	a0,a0,21
800085f2:	00f457b3          	srl	a5,s0,a5
800085f6:	00a41433          	sll	s0,s0,a0
/Local/xl_ci/toolchain/riscv-gnu-toolchain/riscv-gcc/libgcc/soft-fp/floatunsidf.c:45 (discriminator 126)
800085fa:	40b2                	lw	ra,12(sp)
800085fc:	8522                	mv	a0,s0
/Local/xl_ci/toolchain/riscv-gnu-toolchain/riscv-gcc/libgcc/soft-fp/floatunsidf.c:42 (discriminator 126)
800085fe:	07b2                	slli	a5,a5,0xc
/Local/xl_ci/toolchain/riscv-gnu-toolchain/riscv-gcc/libgcc/soft-fp/floatunsidf.c:45 (discriminator 126)
80008600:	4422                	lw	s0,8(sp)
/Local/xl_ci/toolchain/riscv-gnu-toolchain/riscv-gcc/libgcc/soft-fp/floatunsidf.c:42 (discriminator 126)
80008602:	0752                	slli	a4,a4,0x14
80008604:	83b1                	srli	a5,a5,0xc
80008606:	00f766b3          	or	a3,a4,a5
/Local/xl_ci/toolchain/riscv-gnu-toolchain/riscv-gcc/libgcc/soft-fp/floatunsidf.c:45 (discriminator 126)
8000860a:	85b6                	mv	a1,a3
8000860c:	0141                	addi	sp,sp,16
8000860e:	8082                	ret
/Local/xl_ci/toolchain/riscv-gnu-toolchain/riscv-gcc/libgcc/soft-fp/floatunsidf.c:41 (discriminator 24)
80008610:	ff550793          	addi	a5,a0,-11 # 7ffffff5 <_sp+0xeffefff5>
80008614:	00f417b3          	sll	a5,s0,a5
80008618:	4401                	li	s0,0
8000861a:	b7c5                	j	800085fa <__floatunsidf+0x26>
/Local/xl_ci/toolchain/riscv-gnu-toolchain/riscv-gcc/libgcc/soft-fp/floatunsidf.c:41
8000861c:	4781                	li	a5,0
8000861e:	4701                	li	a4,0
80008620:	bfe9                	j	800085fa <__floatunsidf+0x26>

80008622 <__trunctfdf2>:
__trunctfdf2():
/Local/xl_ci/toolchain/riscv-gnu-toolchain/riscv-gcc/libgcc/soft-fp/trunctfdf2.c:37
80008622:	7179                	addi	sp,sp,-48
80008624:	451c                	lw	a5,8(a0)
80008626:	d422                	sw	s0,40(sp)
80008628:	4540                	lw	s0,12(a0)
8000862a:	4158                	lw	a4,4(a0)
8000862c:	4114                	lw	a3,0(a0)
/Local/xl_ci/toolchain/riscv-gnu-toolchain/riscv-gcc/libgcc/soft-fp/trunctfdf2.c:44
8000862e:	c43e                	sw	a5,8(sp)
80008630:	cc3e                	sw	a5,24(sp)
80008632:	01041793          	slli	a5,s0,0x10
80008636:	c23a                	sw	a4,4(sp)
80008638:	ca3a                	sw	a4,20(sp)
8000863a:	83c1                	srli	a5,a5,0x10
8000863c:	00141713          	slli	a4,s0,0x1
80008640:	c622                	sw	s0,12(sp)
/Local/xl_ci/toolchain/riscv-gnu-toolchain/riscv-gcc/libgcc/soft-fp/trunctfdf2.c:37
80008642:	d606                	sw	ra,44(sp)
80008644:	d226                	sw	s1,36(sp)
/Local/xl_ci/toolchain/riscv-gnu-toolchain/riscv-gcc/libgcc/soft-fp/trunctfdf2.c:44
80008646:	c036                	sw	a3,0(sp)
80008648:	c836                	sw	a3,16(sp)
8000864a:	ce3e                	sw	a5,28(sp)
8000864c:	8345                	srli	a4,a4,0x11
8000864e:	807d                	srli	s0,s0,0x1f
80008650:	0808                	addi	a0,sp,16
80008652:	0870                	addi	a2,sp,28
/Local/xl_ci/toolchain/riscv-gnu-toolchain/riscv-gcc/libgcc/soft-fp/trunctfdf2.c:44 (discriminator 8)
80008654:	421c                	lw	a5,0(a2)
80008656:	ffc62683          	lw	a3,-4(a2) # 7feffffc <__stack_size+0x7feff7fc>
8000865a:	1671                	addi	a2,a2,-4
8000865c:	078e                	slli	a5,a5,0x3
8000865e:	82f5                	srli	a3,a3,0x1d
80008660:	8fd5                	or	a5,a5,a3
80008662:	c25c                	sw	a5,4(a2)
80008664:	fec518e3          	bne	a0,a2,80008654 <__trunctfdf2+0x32>
/Local/xl_ci/toolchain/riscv-gnu-toolchain/riscv-gcc/libgcc/soft-fp/trunctfdf2.c:44 (discriminator 9)
80008668:	46c2                	lw	a3,16(sp)
/Local/xl_ci/toolchain/riscv-gnu-toolchain/riscv-gcc/libgcc/soft-fp/trunctfdf2.c:46 (discriminator 9)
8000866a:	00170793          	addi	a5,a4,1
/Local/xl_ci/toolchain/riscv-gnu-toolchain/riscv-gcc/libgcc/soft-fp/trunctfdf2.c:44 (discriminator 9)
8000866e:	00369593          	slli	a1,a3,0x3
/Local/xl_ci/toolchain/riscv-gnu-toolchain/riscv-gcc/libgcc/soft-fp/trunctfdf2.c:46 (discriminator 9)
80008672:	66a1                	lui	a3,0x8
80008674:	16f9                	addi	a3,a3,-2
/Local/xl_ci/toolchain/riscv-gnu-toolchain/riscv-gcc/libgcc/soft-fp/trunctfdf2.c:44 (discriminator 9)
80008676:	c82e                	sw	a1,16(sp)
/Local/xl_ci/toolchain/riscv-gnu-toolchain/riscv-gcc/libgcc/soft-fp/trunctfdf2.c:46 (discriminator 9)
80008678:	8ff5                	and	a5,a5,a3
8000867a:	12078f63          	beqz	a5,800087b8 <__trunctfdf2+0x196>
/Local/xl_ci/toolchain/riscv-gnu-toolchain/riscv-gcc/libgcc/soft-fp/trunctfdf2.c:46 (discriminator 1)
8000867e:	77f1                	lui	a5,0xffffc
80008680:	40078793          	addi	a5,a5,1024 # ffffc400 <_sp+0x6ffec400>
80008684:	973e                	add	a4,a4,a5
80008686:	7fe00793          	li	a5,2046
8000868a:	16e7c363          	blt	a5,a4,800087f0 <__trunctfdf2+0x1ce>
/Local/xl_ci/toolchain/riscv-gnu-toolchain/riscv-gcc/libgcc/soft-fp/trunctfdf2.c:46 (discriminator 4)
8000868e:	04e05663          	blez	a4,800086da <__trunctfdf2+0xb8>
/Local/xl_ci/toolchain/riscv-gnu-toolchain/riscv-gcc/libgcc/soft-fp/trunctfdf2.c:46
80008692:	4562                	lw	a0,24(sp)
80008694:	4672                	lw	a2,28(sp)
80008696:	47d2                	lw	a5,20(sp)
80008698:	01c55693          	srli	a3,a0,0x1c
8000869c:	0612                	slli	a2,a2,0x4
8000869e:	8e55                	or	a2,a2,a3
800086a0:	00479693          	slli	a3,a5,0x4
800086a4:	8ecd                	or	a3,a3,a1
800086a6:	83f1                	srli	a5,a5,0x1c
800086a8:	0512                	slli	a0,a0,0x4
800086aa:	00d036b3          	snez	a3,a3
800086ae:	8fc9                	or	a5,a5,a0
800086b0:	8edd                	or	a3,a3,a5
800086b2:	ca32                	sw	a2,20(sp)
800086b4:	c836                	sw	a3,16(sp)
/Local/xl_ci/toolchain/riscv-gnu-toolchain/riscv-gcc/libgcc/soft-fp/trunctfdf2.c:46 (discriminator 59)
800086b6:	46c2                	lw	a3,16(sp)
800086b8:	47d2                	lw	a5,20(sp)
/Local/xl_ci/toolchain/riscv-gnu-toolchain/riscv-gcc/libgcc/soft-fp/trunctfdf2.c:50 (discriminator 117)
800086ba:	0076f613          	andi	a2,a3,7
800086be:	12060d63          	beqz	a2,800087f8 <__trunctfdf2+0x1d6>
/Local/xl_ci/toolchain/riscv-gnu-toolchain/riscv-gcc/libgcc/soft-fp/trunctfdf2.c:50 (discriminator 37)
800086c2:	00f6f613          	andi	a2,a3,15
800086c6:	4591                	li	a1,4
800086c8:	12b60863          	beq	a2,a1,800087f8 <__trunctfdf2+0x1d6>
/Local/xl_ci/toolchain/riscv-gnu-toolchain/riscv-gcc/libgcc/soft-fp/trunctfdf2.c:50 (discriminator 44)
800086cc:	00468613          	addi	a2,a3,4 # 8004 <__stack_size+0x7804>
800086d0:	00d636b3          	sltu	a3,a2,a3
800086d4:	97b6                	add	a5,a5,a3
800086d6:	86b2                	mv	a3,a2
800086d8:	a205                	j	800087f8 <__trunctfdf2+0x1d6>
/Local/xl_ci/toolchain/riscv-gnu-toolchain/riscv-gcc/libgcc/soft-fp/trunctfdf2.c:46 (discriminator 18)
800086da:	fcc00793          	li	a5,-52
800086de:	00f75763          	bge	a4,a5,800086ec <__trunctfdf2+0xca>
/Local/xl_ci/toolchain/riscv-gnu-toolchain/riscv-gcc/libgcc/soft-fp/trunctfdf2.c:46 (discriminator 20)
800086e2:	ca02                	sw	zero,20(sp)
800086e4:	4785                	li	a5,1
/Local/xl_ci/toolchain/riscv-gnu-toolchain/riscv-gcc/libgcc/soft-fp/trunctfdf2.c:46 (discriminator 37)
800086e6:	c83e                	sw	a5,16(sp)
800086e8:	4701                	li	a4,0
800086ea:	b7f1                	j	800086b6 <__trunctfdf2+0x94>
/Local/xl_ci/toolchain/riscv-gnu-toolchain/riscv-gcc/libgcc/soft-fp/trunctfdf2.c:46 (discriminator 21)
800086ec:	47f2                	lw	a5,28(sp)
800086ee:	000808b7          	lui	a7,0x80
/Local/xl_ci/toolchain/riscv-gnu-toolchain/riscv-gcc/libgcc/soft-fp/trunctfdf2.c:44 (discriminator 21)
800086f2:	85aa                	mv	a1,a0
/Local/xl_ci/toolchain/riscv-gnu-toolchain/riscv-gcc/libgcc/soft-fp/trunctfdf2.c:46 (discriminator 21)
800086f4:	00f8e8b3          	or	a7,a7,a5
800086f8:	03d00793          	li	a5,61
800086fc:	40e78733          	sub	a4,a5,a4
80008700:	ce46                	sw	a7,28(sp)
80008702:	40575793          	srai	a5,a4,0x5
80008706:	4681                	li	a3,0
80008708:	4481                	li	s1,0
/Local/xl_ci/toolchain/riscv-gnu-toolchain/riscv-gcc/libgcc/soft-fp/trunctfdf2.c:46 (discriminator 25)
8000870a:	0005a803          	lw	a6,0(a1)
8000870e:	0685                	addi	a3,a3,1
80008710:	0591                	addi	a1,a1,4
80008712:	0104e4b3          	or	s1,s1,a6
80008716:	fed79ae3          	bne	a5,a3,8000870a <__trunctfdf2+0xe8>
/Local/xl_ci/toolchain/riscv-gnu-toolchain/riscv-gcc/libgcc/soft-fp/trunctfdf2.c:46 (discriminator 26)
8000871a:	8b7d                	andi	a4,a4,31
8000871c:	00279693          	slli	a3,a5,0x2
80008720:	e30d                	bnez	a4,80008742 <__trunctfdf2+0x120>
/Local/xl_ci/toolchain/riscv-gnu-toolchain/riscv-gcc/libgcc/soft-fp/trunctfdf2.c:46
80008722:	458d                	li	a1,3
80008724:	8d9d                	sub	a1,a1,a5
/Local/xl_ci/toolchain/riscv-gnu-toolchain/riscv-gcc/libgcc/soft-fp/trunctfdf2.c:46 (discriminator 31)
80008726:	00d60833          	add	a6,a2,a3
8000872a:	00082803          	lw	a6,0(a6)
8000872e:	0705                	addi	a4,a4,1
80008730:	01062023          	sw	a6,0(a2)
80008734:	0611                	addi	a2,a2,4
80008736:	fee5d8e3          	bge	a1,a4,80008726 <__trunctfdf2+0x104>
8000873a:	4711                	li	a4,4
8000873c:	40f707b3          	sub	a5,a4,a5
80008740:	a83d                	j	8000877e <__trunctfdf2+0x15c>
80008742:	5e71                	li	t3,-4
80008744:	03c78e33          	mul	t3,a5,t3
/Local/xl_ci/toolchain/riscv-gnu-toolchain/riscv-gcc/libgcc/soft-fp/trunctfdf2.c:46 (discriminator 28)
80008748:	1010                	addi	a2,sp,32
8000874a:	9636                	add	a2,a2,a3
8000874c:	ff062603          	lw	a2,-16(a2)
80008750:	02000813          	li	a6,32
80008754:	40e80833          	sub	a6,a6,a4
80008758:	01061633          	sll	a2,a2,a6
8000875c:	8cd1                	or	s1,s1,a2
8000875e:	460d                	li	a2,3
80008760:	96aa                	add	a3,a3,a0
80008762:	4301                	li	t1,0
80008764:	8e1d                	sub	a2,a2,a5
/Local/xl_ci/toolchain/riscv-gnu-toolchain/riscv-gcc/libgcc/soft-fp/trunctfdf2.c:46 (discriminator 32)
80008766:	02c34963          	blt	t1,a2,80008798 <__trunctfdf2+0x176>
/Local/xl_ci/toolchain/riscv-gnu-toolchain/riscv-gcc/libgcc/soft-fp/trunctfdf2.c:46 (discriminator 35)
8000876a:	4691                	li	a3,4
8000876c:	40f687b3          	sub	a5,a3,a5
80008770:	060a                	slli	a2,a2,0x2
80008772:	1014                	addi	a3,sp,32
80008774:	9636                	add	a2,a2,a3
80008776:	00e8d733          	srl	a4,a7,a4
8000877a:	fee62823          	sw	a4,-16(a2)
/Local/xl_ci/toolchain/riscv-gnu-toolchain/riscv-gcc/libgcc/soft-fp/trunctfdf2.c:46 (discriminator 37)
8000877e:	4611                	li	a2,4
80008780:	8e1d                	sub	a2,a2,a5
80008782:	078a                	slli	a5,a5,0x2
80008784:	953e                	add	a0,a0,a5
80008786:	060a                	slli	a2,a2,0x2
80008788:	4581                	li	a1,0
8000878a:	cacfd0ef          	jal	ra,80005c36 <memset>
8000878e:	4742                	lw	a4,16(sp)
80008790:	009037b3          	snez	a5,s1
80008794:	8fd9                	or	a5,a5,a4
80008796:	bf81                	j	800086e6 <__trunctfdf2+0xc4>
/Local/xl_ci/toolchain/riscv-gnu-toolchain/riscv-gcc/libgcc/soft-fp/trunctfdf2.c:46 (discriminator 34)
80008798:	428c                	lw	a1,0(a3)
8000879a:	0046ae83          	lw	t4,4(a3)
8000879e:	01c68f33          	add	t5,a3,t3
800087a2:	00e5d5b3          	srl	a1,a1,a4
800087a6:	010e9eb3          	sll	t4,t4,a6
800087aa:	01d5e5b3          	or	a1,a1,t4
800087ae:	00bf2023          	sw	a1,0(t5)
800087b2:	0305                	addi	t1,t1,1
800087b4:	0691                	addi	a3,a3,4
800087b6:	bf45                	j	80008766 <__trunctfdf2+0x144>
/Local/xl_ci/toolchain/riscv-gnu-toolchain/riscv-gcc/libgcc/soft-fp/trunctfdf2.c:46 (discriminator 2)
800087b8:	4652                	lw	a2,20(sp)
800087ba:	47e2                	lw	a5,24(sp)
800087bc:	4572                	lw	a0,28(sp)
800087be:	00f666b3          	or	a3,a2,a5
800087c2:	8ec9                	or	a3,a3,a0
800087c4:	8ecd                	or	a3,a3,a1
800087c6:	e709                	bnez	a4,800087d0 <__trunctfdf2+0x1ae>
/Local/xl_ci/toolchain/riscv-gnu-toolchain/riscv-gcc/libgcc/soft-fp/trunctfdf2.c:46 (discriminator 65)
800087c8:	00d036b3          	snez	a3,a3
800087cc:	4781                	li	a5,0
800087ce:	b5f5                	j	800086ba <__trunctfdf2+0x98>
/Local/xl_ci/toolchain/riscv-gnu-toolchain/riscv-gcc/libgcc/soft-fp/trunctfdf2.c:46 (discriminator 62)
800087d0:	c2d1                	beqz	a3,80008854 <__trunctfdf2+0x232>
/Local/xl_ci/toolchain/riscv-gnu-toolchain/riscv-gcc/libgcc/soft-fp/trunctfdf2.c:46
800087d2:	01c65693          	srli	a3,a2,0x1c
800087d6:	0512                	slli	a0,a0,0x4
800087d8:	00479613          	slli	a2,a5,0x4
800087dc:	83f1                	srli	a5,a5,0x1c
800087de:	00400737          	lui	a4,0x400
800087e2:	8ed1                	or	a3,a3,a2
800087e4:	8fc9                	or	a5,a5,a0
800087e6:	8fd9                	or	a5,a5,a4
800087e8:	9ae1                	andi	a3,a3,-8
800087ea:	7ff00713          	li	a4,2047
800087ee:	b5f1                	j	800086ba <__trunctfdf2+0x98>
800087f0:	4781                	li	a5,0
800087f2:	4681                	li	a3,0
800087f4:	7ff00713          	li	a4,2047
/Local/xl_ci/toolchain/riscv-gnu-toolchain/riscv-gcc/libgcc/soft-fp/trunctfdf2.c:50 (discriminator 47)
800087f8:	00800637          	lui	a2,0x800
800087fc:	8e7d                	and	a2,a2,a5
800087fe:	ca11                	beqz	a2,80008812 <__trunctfdf2+0x1f0>
/Local/xl_ci/toolchain/riscv-gnu-toolchain/riscv-gcc/libgcc/soft-fp/trunctfdf2.c:50 (discriminator 63)
80008800:	0705                	addi	a4,a4,1
80008802:	7ff00613          	li	a2,2047
80008806:	04c70963          	beq	a4,a2,80008858 <__trunctfdf2+0x236>
/Local/xl_ci/toolchain/riscv-gnu-toolchain/riscv-gcc/libgcc/soft-fp/trunctfdf2.c:50
8000880a:	ff800637          	lui	a2,0xff800
8000880e:	167d                	addi	a2,a2,-1
80008810:	8ff1                	and	a5,a5,a2
/Local/xl_ci/toolchain/riscv-gnu-toolchain/riscv-gcc/libgcc/soft-fp/trunctfdf2.c:50 (discriminator 79)
80008812:	01d79613          	slli	a2,a5,0x1d
80008816:	828d                	srli	a3,a3,0x3
80008818:	8ed1                	or	a3,a3,a2
8000881a:	7ff00613          	li	a2,2047
8000881e:	838d                	srli	a5,a5,0x3
80008820:	00c71963          	bne	a4,a2,80008832 <__trunctfdf2+0x210>
/Local/xl_ci/toolchain/riscv-gnu-toolchain/riscv-gcc/libgcc/soft-fp/trunctfdf2.c:50 (discriminator 80)
80008824:	8edd                	or	a3,a3,a5
80008826:	4781                	li	a5,0
80008828:	c689                	beqz	a3,80008832 <__trunctfdf2+0x210>
/Local/xl_ci/toolchain/riscv-gnu-toolchain/riscv-gcc/libgcc/soft-fp/trunctfdf2.c:50
8000882a:	000807b7          	lui	a5,0x80
8000882e:	4681                	li	a3,0
80008830:	4401                	li	s0,0
/Local/xl_ci/toolchain/riscv-gnu-toolchain/riscv-gcc/libgcc/soft-fp/trunctfdf2.c:50 (discriminator 90)
80008832:	0752                	slli	a4,a4,0x14
80008834:	7ff00637          	lui	a2,0x7ff00
80008838:	07b2                	slli	a5,a5,0xc
8000883a:	8f71                	and	a4,a4,a2
8000883c:	83b1                	srli	a5,a5,0xc
8000883e:	047e                	slli	s0,s0,0x1f
80008840:	8fd9                	or	a5,a5,a4
/Local/xl_ci/toolchain/riscv-gnu-toolchain/riscv-gcc/libgcc/soft-fp/trunctfdf2.c:54 (discriminator 90)
80008842:	50b2                	lw	ra,44(sp)
/Local/xl_ci/toolchain/riscv-gnu-toolchain/riscv-gcc/libgcc/soft-fp/trunctfdf2.c:50 (discriminator 90)
80008844:	0087e733          	or	a4,a5,s0
/Local/xl_ci/toolchain/riscv-gnu-toolchain/riscv-gcc/libgcc/soft-fp/trunctfdf2.c:54 (discriminator 90)
80008848:	5422                	lw	s0,40(sp)
8000884a:	5492                	lw	s1,36(sp)
8000884c:	8536                	mv	a0,a3
8000884e:	85ba                	mv	a1,a4
80008850:	6145                	addi	sp,sp,48
80008852:	8082                	ret
80008854:	4781                	li	a5,0
80008856:	bf79                	j	800087f4 <__trunctfdf2+0x1d2>
80008858:	4781                	li	a5,0
8000885a:	4681                	li	a3,0
8000885c:	bf5d                	j	80008812 <__trunctfdf2+0x1f0>

8000885e <__clzsi2>:
__clzsi2():
/Local/xl_ci/toolchain/riscv-gnu-toolchain/riscv-gcc/libgcc/libgcc2.c:710
8000885e:	67c1                	lui	a5,0x10
80008860:	02f57663          	bgeu	a0,a5,8000888c <__clzsi2+0x2e>
/Local/xl_ci/toolchain/riscv-gnu-toolchain/riscv-gcc/libgcc/libgcc2.c:710 (discriminator 3)
80008864:	0ff00793          	li	a5,255
80008868:	00a7b7b3          	sltu	a5,a5,a0
8000886c:	078e                	slli	a5,a5,0x3
/Local/xl_ci/toolchain/riscv-gnu-toolchain/riscv-gcc/libgcc/libgcc2.c:710 (discriminator 14)
8000886e:	02000713          	li	a4,32
80008872:	8f1d                	sub	a4,a4,a5
80008874:	00f55533          	srl	a0,a0,a5
80008878:	00001797          	auipc	a5,0x1
8000887c:	92878793          	addi	a5,a5,-1752 # 800091a0 <__clz_tab>
80008880:	953e                	add	a0,a0,a5
80008882:	00054503          	lbu	a0,0(a0)
/Local/xl_ci/toolchain/riscv-gnu-toolchain/riscv-gcc/libgcc/libgcc2.c:713 (discriminator 14)
80008886:	40a70533          	sub	a0,a4,a0
8000888a:	8082                	ret
/Local/xl_ci/toolchain/riscv-gnu-toolchain/riscv-gcc/libgcc/libgcc2.c:710 (discriminator 4)
8000888c:	01000737          	lui	a4,0x1000
80008890:	47c1                	li	a5,16
80008892:	fce56ee3          	bltu	a0,a4,8000886e <__clzsi2+0x10>
/Local/xl_ci/toolchain/riscv-gnu-toolchain/riscv-gcc/libgcc/libgcc2.c:710
80008896:	47e1                	li	a5,24
80008898:	bfd9                	j	8000886e <__clzsi2+0x10>
